Certificate:
    Data:
        Version: 3 (0x2)
        Serial Number:
            ab:c3:9b:c5:ee:5e:29:1b
    Signature Algorithm: sha256WithRSAEncryption
        Issuer: C=US, ST=California, L=Santa Clara, O=pkg5, OU=ta11, CN=localhost/emailAddress=ta11
        Validity
            Not Before: Nov 11 12:38:35 2017 GMT
            Not After : Aug  7 12:38:35 2020 GMT
        Subject: C=US, ST=California, L=Santa Clara, O=pkg5, OU=ta11, CN=localhost/emailAddress=ta11
        Subject Public Key Info:
            Public Key Algorithm: rsaEncryption
                Public-Key: (2048 bit)
                Modulus:
                    00:d5:85:cf:a7:89:f2:ef:08:7b:e9:d9:11:16:6d:
                    e3:fb:ad:c4:6e:17:d7:2b:b9:dd:1a:9e:5a:3c:46:
                    43:0d:cd:7a:f8:c9:db:b7:30:81:a9:60:6d:3a:14:
                    73:60:c5:4a:33:17:f9:13:0c:9a:2a:94:bb:20:eb:
                    47:e0:bf:f8:c9:8e:36:f6:a4:96:95:46:35:38:0f:
                    f8:ef:d3:66:c0:07:26:02:3f:73:87:11:2a:5a:ef:
                    20:d1:af:10:ea:5e:ba:1e:f6:01:ad:40:a0:59:a0:
                    e2:2e:79:14:0e:fc:d6:b8:7a:90:8a:30:32:85:bd:
                    51:cd:5d:4f:78:94:ba:db:91:f2:b2:55:b4:94:aa:
                    d8:73:65:6f:42:4a:da:8a:e5:ba:95:f0:33:17:23:
                    cd:00:ab:9b:78:2f:f7:33:c9:fe:6e:ba:d0:64:4c:
                    86:fe:85:6a:48:63:22:0a:13:fb:0a:5b:44:9b:01:
                    de:16:a5:a2:c1:3c:d4:9e:88:6a:2e:f0:a6:28:a3:
                    4b:7c:12:be:dd:3c:8d:f3:ae:f0:fe:a6:95:f9:4e:
                    4d:b0:77:a1:c8:9b:de:8f:1d:3f:12:5d:9b:24:06:
                    a9:c5:e4:44:21:da:eb:ca:c1:ed:c6:4a:27:14:4a:
                    53:a6:43:21:dd:94:a2:da:2f:23:92:5d:16:b5:ff:
                    04:eb
                Exponent: 65537 (0x10001)
        X509v3 extensions:
            X509v3 Subject Key Identifier: 
                7A:2F:0C:DE:28:53:C6:E6:5D:04:78:C8:E2:4B:69:1B:29:10:02:8D
            X509v3 Authority Key Identifier: 
                keyid:7A:2F:0C:DE:28:53:C6:E6:5D:04:78:C8:E2:4B:69:1B:29:10:02:8D

            X509v3 Basic Constraints: 
                CA:TRUE
    Signature Algorithm: sha256WithRSAEncryption
         36:1c:41:18:06:3a:be:18:84:03:57:70:19:6e:c1:ed:d6:e3:
         24:78:54:2b:f4:89:30:57:c0:e3:55:8e:6f:c0:f9:6a:63:f0:
         4e:92:90:4a:01:84:59:af:59:53:2c:42:b4:c5:82:4f:dc:f7:
         f7:5c:7b:a0:12:b3:b8:09:ba:f9:da:f3:b7:94:be:83:07:c3:
         ce:e5:36:1d:76:59:0f:bb:18:e2:39:f6:ff:94:52:61:a1:4f:
         9b:3e:f4:c3:4b:d9:6e:7a:82:a9:00:28:1d:c4:a1:58:a2:f1:
         06:a1:98:f1:aa:42:1b:bf:a6:bc:01:50:df:ce:49:fa:c9:0c:
         a4:49:b8:68:20:dd:ec:2e:9c:63:32:7b:54:34:10:ba:22:2c:
         ca:30:dc:e2:5b:32:d4:a9:10:c9:62:e2:68:c2:f1:0f:c6:f6:
         0f:cf:01:1b:4d:15:23:35:c4:71:0e:44:9f:f1:c5:56:86:65:
         0b:f7:f0:77:b0:51:83:6b:15:29:bc:b4:3a:9a:42:53:d8:bc:
         cf:da:ee:08:8a:ef:a9:63:98:43:ce:27:3f:82:52:82:f7:9f:
         97:60:88:b6:84:01:e9:ec:27:2d:15:41:45:3d:d7:9b:2b:80:
         26:48:21:df:e0:a2:f7:42:26:d4:91:f7:2b:4f:a8:af:8b:a8:
         ec:8a:74:6b
-----BEGIN CERTIFICATE-----
MIID0TCCArmgAwIBAgIJAKvDm8XuXikbMA0GCSqGSIb3DQEBCwUAMH8xCzAJBgNV
BAYTAlVTMRMwEQYDVQQIDApDYWxpZm9ybmlhMRQwEgYDVQQHDAtTYW50YSBDbGFy
YTENMAsGA1UECgwEcGtnNTENMAsGA1UECwwEdGExMTESMBAGA1UEAwwJbG9jYWxo
b3N0MRMwEQYJKoZIhvcNAQkBFgR0YTExMB4XDTE3MTExMTEyMzgzNVoXDTIwMDgw
NzEyMzgzNVowfzELMAkGA1UEBhMCVVMxEzARBgNVBAgMCkNhbGlmb3JuaWExFDAS
BgNVBAcMC1NhbnRhIENsYXJhMQ0wCwYDVQQKDARwa2c1MQ0wCwYDVQQLDAR0YTEx
MRIwEAYDVQQDDAlsb2NhbGhvc3QxEzARBgkqhkiG9w0BCQEWBHRhMTEwggEiMA0G
CSqGSIb3DQEBAQUAA4IBDwAwggEKAoIBAQDVhc+nifLvCHvp2REWbeP7rcRuF9cr
ud0anlo8RkMNzXr4ydu3MIGpYG06FHNgxUozF/kTDJoqlLsg60fgv/jJjjb2pJaV
RjU4D/jv02bAByYCP3OHESpa7yDRrxDqXroe9gGtQKBZoOIueRQO/Na4epCKMDKF
vVHNXU94lLrbkfKyVbSUqthzZW9CStqK5bqV8DMXI80Aq5t4L/czyf5uutBkTIb+
hWpIYyIKE/sKW0SbAd4WpaLBPNSeiGou8KYoo0t8Er7dPI3zrvD+ppX5Tk2wd6HI
m96PHT8SXZskBqnF5EQh2uvKwe3GSicUSlOmQyHdlKLaLyOSXRa1/wTrAgMBAAGj
UDBOMB0GA1UdDgQWBBR6LwzeKFPG5l0EeMjiS2kbKRACjTAfBgNVHSMEGDAWgBR6
LwzeKFPG5l0EeMjiS2kbKRACjTAMBgNVHRMEBTADAQH/MA0GCSqGSIb3DQEBCwUA
A4IBAQA2HEEYBjq+GIQDV3AZbsHt1uMkeFQr9IkwV8DjVY5vwPlqY/BOkpBKAYRZ
r1lTLEK0xYJP3Pf3XHugErO4Cbr52vO3lL6DB8PO5TYddlkPuxjiOfb/lFJhoU+b
PvTDS9lueoKpACgdxKFYovEGoZjxqkIbv6a8AVDfzkn6yQykSbhoIN3sLpxjMntU
NBC6IizKMNziWzLUqRDJYuJowvEPxvYPzwEbTRUjNcRxDkSf8cVWhmUL9/B3sFGD
axUpvLQ6mkJT2LzP2u4Iiu+pY5hDzic/glKC95+XYIi2hAHp7CctFUFFPdebK4Am
SCHf4KL3QibUkfcrT6ivi6jsinRr
-----END CERTIFICATE-----
