Certificate:
    Data:
        Version: 3 (0x2)
        Serial Number:
            f3:80:47:a6:2b:c4:49:55
    Signature Algorithm: sha256WithRSAEncryption
        Issuer: C=US, ST=California, L=Santa Clara, O=pkg5, OU=ta11, CN=localhost/emailAddress=ta11
        Validity
            Not Before: Jul  3 14:14:06 2018 GMT
            Not After : Mar 29 14:14:06 2021 GMT
        Subject: C=US, ST=California, L=Santa Clara, O=pkg5, OU=ta11, CN=localhost/emailAddress=ta11
        Subject Public Key Info:
            Public Key Algorithm: rsaEncryption
                Public-Key: (2048 bit)
                Modulus:
                    00:ed:4d:9c:47:9e:0a:46:ce:ea:bc:84:36:8d:e9:
                    c1:b4:7e:56:5b:c9:c0:7a:6f:b4:28:aa:61:b9:09:
                    62:10:f3:97:00:92:80:27:2f:36:81:a8:a9:1a:31:
                    3d:fe:0d:3c:77:a2:9b:3e:d3:f9:f0:2d:47:b4:bf:
                    c2:c6:c9:02:9d:77:f4:5a:4e:ea:43:fc:6e:2b:70:
                    63:a4:23:8f:77:e3:a4:50:97:71:03:a2:90:b2:0b:
                    7f:43:48:d4:b5:04:1e:3e:ba:61:ee:6f:70:3c:a9:
                    21:45:a7:f8:5d:99:fd:8e:39:1c:0a:76:e4:90:68:
                    d1:86:a7:94:7e:80:b5:e5:8d:93:02:91:b1:45:8d:
                    a5:da:b6:ff:cc:97:ec:08:77:9d:c1:c2:f8:06:eb:
                    26:0b:73:2c:61:c2:41:fe:c7:2c:12:4a:91:6c:53:
                    90:46:f0:09:17:eb:7a:74:00:cb:b3:1c:1d:26:e5:
                    db:6d:5d:8f:35:87:49:07:e9:58:40:7b:1e:f1:dc:
                    9c:b6:0e:b3:46:26:92:74:51:fb:79:94:e9:9f:b1:
                    dc:71:d7:e2:fe:86:9b:c9:e2:ed:62:d1:41:fa:14:
                    e0:7b:62:b2:01:fc:ea:94:cd:f2:37:e8:62:18:af:
                    9c:c2:a6:6e:45:80:0a:04:9f:d5:f9:69:23:98:0d:
                    95:75
                Exponent: 65537 (0x10001)
        X509v3 extensions:
            X509v3 Subject Key Identifier: 
                BE:ED:A5:9F:1C:4A:54:25:88:33:E1:00:1C:35:2C:BE:34:15:F2:F4
            X509v3 Authority Key Identifier: 
                keyid:BE:ED:A5:9F:1C:4A:54:25:88:33:E1:00:1C:35:2C:BE:34:15:F2:F4

            X509v3 Basic Constraints: 
                CA:TRUE
    Signature Algorithm: sha256WithRSAEncryption
         24:4d:fe:1e:82:c4:3a:e8:3f:c0:39:57:41:1b:b9:81:9f:29:
         9a:56:78:2b:4f:65:dc:ac:99:0c:4a:c5:c8:6d:e5:5c:f8:f2:
         70:39:c7:af:3c:61:c2:c3:0f:9c:ab:af:a4:ab:e2:a8:cb:e4:
         37:5d:3e:e4:11:c9:dd:f9:fb:9f:63:aa:30:43:9b:28:25:08:
         e6:c9:99:1c:df:e8:59:c4:95:f9:27:b0:3b:f8:1f:8f:16:ee:
         13:4f:fa:8e:b1:18:3f:fc:1f:ef:51:66:d2:27:5e:bb:bd:3f:
         7f:17:94:f0:04:71:1c:2f:74:69:e4:72:73:51:e8:5d:c7:5d:
         a4:90:81:6b:ea:85:6e:e0:fb:35:47:5a:ee:e7:e0:6f:21:05:
         1b:33:b4:73:7b:05:ec:ad:1e:a6:94:6c:50:a1:d7:1d:04:cb:
         65:6e:52:5a:92:1b:15:18:60:26:89:43:52:46:07:e8:da:ad:
         e2:ae:ee:43:4f:56:9b:2c:f4:25:b5:c6:c3:73:2a:ae:9b:15:
         a7:5a:1f:84:45:f9:6b:21:b1:79:c1:b8:89:78:cb:19:1d:32:
         2d:1b:b5:4f:f7:10:65:28:1c:6b:e1:88:8b:e1:1d:85:52:68:
         64:65:ef:e2:7e:d8:90:29:43:32:ce:6d:ea:5a:28:25:50:47:
         f4:c9:12:d1
-----BEGIN CERTIFICATE-----
MIID0TCCArmgAwIBAgIJAPOAR6YrxElVMA0GCSqGSIb3DQEBCwUAMH8xCzAJBgNV
BAYTAlVTMRMwEQYDVQQIDApDYWxpZm9ybmlhMRQwEgYDVQQHDAtTYW50YSBDbGFy
YTENMAsGA1UECgwEcGtnNTENMAsGA1UECwwEdGExMTESMBAGA1UEAwwJbG9jYWxo
b3N0MRMwEQYJKoZIhvcNAQkBFgR0YTExMB4XDTE4MDcwMzE0MTQwNloXDTIxMDMy
OTE0MTQwNlowfzELMAkGA1UEBhMCVVMxEzARBgNVBAgMCkNhbGlmb3JuaWExFDAS
BgNVBAcMC1NhbnRhIENsYXJhMQ0wCwYDVQQKDARwa2c1MQ0wCwYDVQQLDAR0YTEx
MRIwEAYDVQQDDAlsb2NhbGhvc3QxEzARBgkqhkiG9w0BCQEWBHRhMTEwggEiMA0G
CSqGSIb3DQEBAQUAA4IBDwAwggEKAoIBAQDtTZxHngpGzuq8hDaN6cG0flZbycB6
b7QoqmG5CWIQ85cAkoAnLzaBqKkaMT3+DTx3ops+0/nwLUe0v8LGyQKdd/RaTupD
/G4rcGOkI49346RQl3EDopCyC39DSNS1BB4+umHub3A8qSFFp/hdmf2OORwKduSQ
aNGGp5R+gLXljZMCkbFFjaXatv/Ml+wId53BwvgG6yYLcyxhwkH+xywSSpFsU5BG
8AkX63p0AMuzHB0m5dttXY81h0kH6VhAex7x3Jy2DrNGJpJ0Uft5lOmfsdxx1+L+
hpvJ4u1i0UH6FOB7YrIB/OqUzfI36GIYr5zCpm5FgAoEn9X5aSOYDZV1AgMBAAGj
UDBOMB0GA1UdDgQWBBS+7aWfHEpUJYgz4QAcNSy+NBXy9DAfBgNVHSMEGDAWgBS+
7aWfHEpUJYgz4QAcNSy+NBXy9DAMBgNVHRMEBTADAQH/MA0GCSqGSIb3DQEBCwUA
A4IBAQAkTf4egsQ66D/AOVdBG7mBnymaVngrT2XcrJkMSsXIbeVc+PJwOcevPGHC
ww+cq6+kq+Koy+Q3XT7kEcnd+fufY6owQ5soJQjmyZkc3+hZxJX5J7A7+B+PFu4T
T/qOsRg//B/vUWbSJ167vT9/F5TwBHEcL3Rp5HJzUehdx12kkIFr6oVu4Ps1R1ru
5+BvIQUbM7RzewXsrR6mlGxQodcdBMtlblJakhsVGGAmiUNSRgfo2q3iru5DT1ab
LPQltcbDcyqumxWnWh+ERflrIbF5wbiJeMsZHTItG7VP9xBlKBxr4YiL4R2FUmhk
Ze/iftiQKUMyzm3qWiglUEf0yRLR
-----END CERTIFICATE-----
