Certificate:
    Data:
        Version: 3 (0x2)
        Serial Number:
            d8:8b:82:45:dd:71:02:6e
    Signature Algorithm: sha256WithRSAEncryption
        Issuer: C=US, ST=California, L=Santa Clara, O=pkg5, CN=ta4/emailAddress=ta4
        Validity
            Not Before: Nov 11 12:38:32 2017 GMT
            Not After : Aug  7 12:38:32 2020 GMT
        Subject: C=US, ST=California, L=Santa Clara, O=pkg5, CN=ta4/emailAddress=ta4
        Subject Public Key Info:
            Public Key Algorithm: rsaEncryption
                Public-Key: (2048 bit)
                Modulus:
                    00:b5:7d:3f:29:25:f6:c2:23:01:22:08:9a:58:71:
                    99:f8:91:ff:a1:97:8d:3e:d2:2e:b9:7f:38:ad:b2:
                    30:b4:df:f7:14:63:c6:54:0a:f1:39:b6:77:35:4e:
                    39:70:44:9c:8b:70:aa:7b:e6:8b:90:95:f2:94:8d:
                    b8:28:16:55:c6:b1:8d:37:4b:af:10:c8:8f:08:5d:
                    4a:e2:52:d6:82:0e:b6:8e:1c:3e:c3:92:25:61:2a:
                    95:87:37:88:1d:e4:74:6c:e9:31:ee:b2:7d:44:10:
                    2b:b6:2c:df:d6:59:3f:fe:7c:47:47:f5:a8:8b:6f:
                    2b:b3:9f:82:57:7c:4b:e1:7f:85:99:53:05:9f:5b:
                    e3:2a:80:2e:97:7a:2f:5d:22:32:84:4e:76:44:eb:
                    69:42:7b:43:6c:0f:bc:cb:dc:71:09:1a:ab:5c:27:
                    c3:e8:28:fd:1b:a8:42:0f:74:3e:fc:09:28:62:4f:
                    16:70:a7:51:0c:9e:77:15:64:3f:c9:6f:5f:f8:fd:
                    d6:99:49:78:c7:73:3b:b0:53:56:a5:d4:7c:e3:69:
                    66:ff:4e:fb:15:63:8c:c6:cb:6a:31:b9:17:01:31:
                    be:8e:8f:4c:e5:3a:58:ae:fb:6d:f3:cc:73:53:a2:
                    03:bb:0b:3e:d9:d9:fc:f8:50:13:92:11:11:a0:ea:
                    14:75
                Exponent: 65537 (0x10001)
        X509v3 extensions:
            X509v3 Subject Key Identifier: 
                3B:B7:A1:3E:10:9F:0F:E4:EC:DE:30:8A:9A:41:5B:09:3D:C7:FA:29
            X509v3 Authority Key Identifier: 
                keyid:3B:B7:A1:3E:10:9F:0F:E4:EC:DE:30:8A:9A:41:5B:09:3D:C7:FA:29

            X509v3 Basic Constraints: 
                CA:TRUE
    Signature Algorithm: sha256WithRSAEncryption
         19:92:20:39:c7:d6:32:cd:06:4a:0a:4e:64:3c:ad:a0:4f:6b:
         ee:49:39:d2:53:05:8f:ed:4a:21:71:e6:17:06:76:84:9d:71:
         f7:12:66:5e:50:0f:82:9a:56:57:ff:ec:20:99:92:44:0e:2f:
         ed:f4:55:7c:a0:37:70:aa:50:95:fc:2c:44:e4:3e:b4:b8:b5:
         44:3b:12:e5:ef:0a:28:72:3e:5e:85:f1:76:75:1a:10:eb:01:
         bd:a5:7c:2b:02:fd:ac:ec:2a:79:b1:9f:96:e4:fa:15:ff:5b:
         30:76:4f:d2:17:3e:a6:53:4e:b7:7a:6d:52:7c:17:0c:a5:8b:
         01:ec:49:39:1c:e3:50:1f:71:4e:d3:fb:39:64:fb:56:d6:cb:
         43:7f:04:f4:2e:06:cf:31:32:76:71:48:45:b6:35:43:69:5d:
         66:d4:4d:3f:f4:9d:b2:97:31:72:5b:1e:80:e6:2d:ee:53:16:
         bf:f4:42:81:ab:c0:c9:56:30:a4:a8:e8:13:8d:89:f4:7c:21:
         10:c8:7c:f6:14:15:ef:e0:e8:93:af:79:e9:3e:af:6f:ce:4c:
         f7:55:6a:85:e6:0b:ab:4a:d8:a1:d6:0c:3d:4f:b0:67:5c:63:
         87:2a:22:89:36:72:bb:3e:88:72:23:10:e6:04:a2:97:87:37:
         b0:2a:b2:fb
-----BEGIN CERTIFICATE-----
MIIDpTCCAo2gAwIBAgIJANiLgkXdcQJuMA0GCSqGSIb3DQEBCwUAMGkxCzAJBgNV
BAYTAlVTMRMwEQYDVQQIDApDYWxpZm9ybmlhMRQwEgYDVQQHDAtTYW50YSBDbGFy
YTENMAsGA1UECgwEcGtnNTEMMAoGA1UEAwwDdGE0MRIwEAYJKoZIhvcNAQkBFgN0
YTQwHhcNMTcxMTExMTIzODMyWhcNMjAwODA3MTIzODMyWjBpMQswCQYDVQQGEwJV
UzETMBEGA1UECAwKQ2FsaWZvcm5pYTEUMBIGA1UEBwwLU2FudGEgQ2xhcmExDTAL
BgNVBAoMBHBrZzUxDDAKBgNVBAMMA3RhNDESMBAGCSqGSIb3DQEJARYDdGE0MIIB
IjANBgkqhkiG9w0BAQEFAAOCAQ8AMIIBCgKCAQEAtX0/KSX2wiMBIgiaWHGZ+JH/
oZeNPtIuuX84rbIwtN/3FGPGVArxObZ3NU45cESci3Cqe+aLkJXylI24KBZVxrGN
N0uvEMiPCF1K4lLWgg62jhw+w5IlYSqVhzeIHeR0bOkx7rJ9RBArtizf1lk//nxH
R/Woi28rs5+CV3xL4X+FmVMFn1vjKoAul3ovXSIyhE52ROtpQntDbA+8y9xxCRqr
XCfD6Cj9G6hCD3Q+/AkoYk8WcKdRDJ53FWQ/yW9f+P3WmUl4x3M7sFNWpdR842lm
/077FWOMxstqMbkXATG+jo9M5TpYrvtt88xzU6IDuws+2dn8+FATkhERoOoUdQID
AQABo1AwTjAdBgNVHQ4EFgQUO7ehPhCfD+Ts3jCKmkFbCT3H+ikwHwYDVR0jBBgw
FoAUO7ehPhCfD+Ts3jCKmkFbCT3H+ikwDAYDVR0TBAUwAwEB/zANBgkqhkiG9w0B
AQsFAAOCAQEAGZIgOcfWMs0GSgpOZDytoE9r7kk50lMFj+1KIXHmFwZ2hJ1x9xJm
XlAPgppWV//sIJmSRA4v7fRVfKA3cKpQlfwsROQ+tLi1RDsS5e8KKHI+XoXxdnUa
EOsBvaV8KwL9rOwqebGfluT6Ff9bMHZP0hc+plNOt3ptUnwXDKWLAexJORzjUB9x
TtP7OWT7VtbLQ38E9C4GzzEydnFIRbY1Q2ldZtRNP/SdspcxclsegOYt7lMWv/RC
gavAyVYwpKjoE42J9HwhEMh89hQV7+Dok6956T6vb85M91VqheYLq0rYodYMPU+w
Z1xjhyoiiTZyuz6IciMQ5gSil4c3sCqy+w==
-----END CERTIFICATE-----
