Certificate:
    Data:
        Version: 3 (0x2)
        Serial Number:
            f8:3a:b7:59:47:03:61:ef
    Signature Algorithm: sha256WithRSAEncryption
        Issuer: C=US, ST=California, L=Santa Clara, O=pkg5, OU=ta6, CN=localhost/emailAddress=ta6
        Validity
            Not Before: Nov 24 01:22:44 2021 GMT
            Not After : Aug 20 01:22:44 2024 GMT
        Subject: C=US, ST=California, L=Santa Clara, O=pkg5, OU=ta6, CN=localhost/emailAddress=ta6
        Subject Public Key Info:
            Public Key Algorithm: rsaEncryption
                Public-Key: (2048 bit)
                Modulus:
                    00:c2:a8:9d:7c:30:61:8d:61:32:e5:c2:1b:50:a4:
                    ff:3b:3a:28:e4:45:9f:6e:e3:ba:6f:00:bc:a7:62:
                    a0:72:96:48:e6:1f:a3:91:2a:da:69:61:ca:a9:07:
                    af:7e:8e:bd:2d:55:c8:d1:10:b8:92:bc:7d:d9:7c:
                    27:88:ca:c9:3a:41:52:d2:d4:01:50:59:ab:fa:4d:
                    d7:97:c4:2a:4e:d3:03:9a:97:95:d0:14:91:4a:a5:
                    30:18:4c:e5:bb:23:9d:2e:bf:d1:6f:1e:74:b4:6d:
                    6c:08:ec:6c:be:1e:50:3a:12:eb:69:e5:b3:d9:29:
                    53:02:0e:79:1f:73:92:09:66:97:30:83:b4:a5:03:
                    f3:11:b2:22:ac:df:90:e5:24:25:f7:b0:c7:cf:93:
                    fe:49:46:21:f9:4f:f9:15:59:7f:3e:62:67:e6:36:
                    18:52:a0:8f:83:b8:dc:e3:99:cc:ae:5b:cf:8e:b3:
                    b6:4c:e0:3d:80:6b:b2:12:3f:5f:ec:0d:1b:66:60:
                    16:fd:6a:fe:15:78:51:4a:a6:49:1b:26:ed:cd:6a:
                    16:08:d8:37:07:90:e2:7b:a0:77:dc:74:bb:a9:9d:
                    e4:b8:75:9a:cf:95:73:36:08:0c:6d:25:6c:28:cf:
                    42:ef:6d:5a:cb:cf:89:1d:7c:0f:65:eb:bf:e9:dd:
                    b9:11
                Exponent: 65537 (0x10001)
        X509v3 extensions:
            X509v3 Subject Key Identifier: 
                87:A0:15:07:76:CB:EE:1E:7D:93:F8:64:A4:95:C7:7E:CB:C6:74:1E
            X509v3 Authority Key Identifier: 
                keyid:87:A0:15:07:76:CB:EE:1E:7D:93:F8:64:A4:95:C7:7E:CB:C6:74:1E

            X509v3 Basic Constraints: 
                CA:TRUE
    Signature Algorithm: sha256WithRSAEncryption
         8d:64:6f:89:1e:22:4c:de:05:f3:d4:6c:6a:3d:1c:8d:8d:53:
         1e:68:c0:7e:61:df:19:4b:58:0a:f8:24:f9:83:ab:1d:b4:01:
         fd:d4:bd:f6:21:5e:e7:b4:89:7a:86:dd:19:a1:51:15:d3:cf:
         49:d7:20:b0:e8:77:84:d6:5e:2b:b2:37:2f:32:0f:1c:fb:a5:
         11:a5:1c:f1:e0:cb:23:d3:e3:f1:40:f3:e6:e3:b0:d8:8d:d7:
         1d:bb:41:60:0f:6a:ed:9f:9a:35:81:17:a4:17:d7:88:12:14:
         d4:eb:0d:61:53:c7:91:38:fb:4a:16:f8:8c:f9:6d:a5:d2:1f:
         92:de:41:5a:0f:58:91:43:8f:df:48:07:7b:d4:4c:c8:4f:b4:
         df:f8:2e:05:d8:bc:85:65:9b:ee:23:32:c1:bc:b9:e3:3e:6c:
         6d:74:14:54:0d:6d:3e:32:4f:c0:35:64:13:a9:8e:cb:be:c5:
         a9:e6:ef:a5:7d:96:77:a3:29:54:94:37:9a:f5:51:df:69:c9:
         79:d8:ba:02:3e:02:1a:80:57:0c:7b:83:5d:65:61:4f:bf:52:
         b1:9b:ad:17:75:76:f5:74:bf:00:ff:ff:fd:a5:5e:d9:8c:10:
         0e:3b:44:b4:65:31:35:f3:d1:84:bd:d8:50:bc:7d:63:05:c7:
         0d:0b:d6:95
-----BEGIN CERTIFICATE-----
MIIDzTCCArWgAwIBAgIJAPg6t1lHA2HvMA0GCSqGSIb3DQEBCwUAMH0xCzAJBgNV
BAYTAlVTMRMwEQYDVQQIDApDYWxpZm9ybmlhMRQwEgYDVQQHDAtTYW50YSBDbGFy
YTENMAsGA1UECgwEcGtnNTEMMAoGA1UECwwDdGE2MRIwEAYDVQQDDAlsb2NhbGhv
c3QxEjAQBgkqhkiG9w0BCQEWA3RhNjAeFw0yMTExMjQwMTIyNDRaFw0yNDA4MjAw
MTIyNDRaMH0xCzAJBgNVBAYTAlVTMRMwEQYDVQQIDApDYWxpZm9ybmlhMRQwEgYD
VQQHDAtTYW50YSBDbGFyYTENMAsGA1UECgwEcGtnNTEMMAoGA1UECwwDdGE2MRIw
EAYDVQQDDAlsb2NhbGhvc3QxEjAQBgkqhkiG9w0BCQEWA3RhNjCCASIwDQYJKoZI
hvcNAQEBBQADggEPADCCAQoCggEBAMKonXwwYY1hMuXCG1Ck/zs6KORFn27jum8A
vKdioHKWSOYfo5Eq2mlhyqkHr36OvS1VyNEQuJK8fdl8J4jKyTpBUtLUAVBZq/pN
15fEKk7TA5qXldAUkUqlMBhM5bsjnS6/0W8edLRtbAjsbL4eUDoS62nls9kpUwIO
eR9zkglmlzCDtKUD8xGyIqzfkOUkJfewx8+T/klGIflP+RVZfz5iZ+Y2GFKgj4O4
3OOZzK5bz46ztkzgPYBrshI/X+wNG2ZgFv1q/hV4UUqmSRsm7c1qFgjYNweQ4nug
d9x0u6md5Lh1ms+VczYIDG0lbCjPQu9tWsvPiR18D2Xrv+nduRECAwEAAaNQME4w
HQYDVR0OBBYEFIegFQd2y+4efZP4ZKSVx37LxnQeMB8GA1UdIwQYMBaAFIegFQd2
y+4efZP4ZKSVx37LxnQeMAwGA1UdEwQFMAMBAf8wDQYJKoZIhvcNAQELBQADggEB
AI1kb4keIkzeBfPUbGo9HI2NUx5owH5h3xlLWAr4JPmDqx20Af3UvfYhXue0iXqG
3RmhURXTz0nXILDod4TWXiuyNy8yDxz7pRGlHPHgyyPT4/FA8+bjsNiN1x27QWAP
au2fmjWBF6QX14gSFNTrDWFTx5E4+0oW+Iz5baXSH5LeQVoPWJFDj99IB3vUTMhP
tN/4LgXYvIVlm+4jMsG8ueM+bG10FFQNbT4yT8A1ZBOpjsu+xanm76V9lnejKVSU
N5r1Ud9pyXnYugI+AhqAVwx7g11lYU+/UrGbrRd1dvV0vwD///2lXtmMEA47RLRl
MTXz0YS92FC8fWMFxw0L1pU=
-----END CERTIFICATE-----
