Certificate:
    Data:
        Version: 3 (0x2)
        Serial Number:
            a7:6e:fa:d0:87:25:33:bf
    Signature Algorithm: sha256WithRSAEncryption
        Issuer: C=US, ST=California, L=Santa Clara, O=pkg5, OU=ta6, CN=localhost/emailAddress=ta6
        Validity
            Not Before: Jul  3 14:14:04 2018 GMT
            Not After : Mar 29 14:14:04 2021 GMT
        Subject: C=US, ST=California, L=Santa Clara, O=pkg5, OU=ta6, CN=localhost/emailAddress=ta6
        Subject Public Key Info:
            Public Key Algorithm: rsaEncryption
                Public-Key: (2048 bit)
                Modulus:
                    00:c4:ba:93:b5:f1:d5:c5:15:7b:ff:7a:4b:3e:cf:
                    94:8b:df:88:b3:ea:f5:0c:b1:fe:27:9f:9f:1d:82:
                    a7:8b:3f:7a:c3:a2:be:86:28:f4:73:1e:07:c8:72:
                    59:66:6a:64:73:4a:0b:43:b6:40:78:c7:bd:4b:58:
                    69:8a:4f:14:06:10:15:2e:ed:f6:79:fe:0e:a9:68:
                    36:2c:93:07:53:e6:31:97:9d:c0:00:e0:e6:80:8f:
                    f8:78:d1:a2:36:a3:b1:38:63:10:fc:24:0f:32:cc:
                    68:e0:bf:ea:b1:12:bc:a0:47:c6:e2:5b:f1:87:03:
                    f6:54:2a:f9:8b:29:8b:9d:83:da:2c:83:99:42:8a:
                    c5:08:d9:e1:08:c7:e0:32:49:56:9b:c0:b9:4b:f1:
                    0c:e4:da:4a:2d:44:ac:44:04:38:0c:eb:8f:36:90:
                    69:82:68:05:58:fb:43:98:2e:33:2f:14:92:e5:0c:
                    d8:e9:39:ca:5c:97:d7:36:ed:42:7d:e9:b5:83:d0:
                    cc:f9:19:be:a6:83:d2:85:c5:a7:39:35:ee:d1:cd:
                    82:5a:78:2b:b7:05:fe:48:df:7a:ff:58:52:74:8e:
                    ed:32:bb:21:bd:50:7f:6c:44:4e:ec:10:aa:fa:88:
                    96:1b:cc:8e:18:d5:52:f6:64:dd:e0:94:3d:43:97:
                    75:b3
                Exponent: 65537 (0x10001)
        X509v3 extensions:
            X509v3 Subject Key Identifier: 
                EF:EA:DD:5B:CC:F8:7E:D0:F6:34:5D:0F:DC:23:59:76:15:B1:FF:F3
            X509v3 Authority Key Identifier: 
                keyid:EF:EA:DD:5B:CC:F8:7E:D0:F6:34:5D:0F:DC:23:59:76:15:B1:FF:F3

            X509v3 Basic Constraints: 
                CA:TRUE
    Signature Algorithm: sha256WithRSAEncryption
         11:05:11:f1:a3:57:6d:77:19:f0:ff:9c:16:c1:bb:e4:63:98:
         1d:ae:6a:63:9b:31:09:17:07:37:e1:ec:2c:38:67:40:f8:b1:
         16:47:cb:aa:35:8e:68:72:f5:16:a5:29:e2:3d:9d:f0:f4:cc:
         ef:73:3e:fd:6e:48:fa:d3:0e:d6:e2:66:1f:78:17:71:44:e8:
         ae:2d:4f:50:04:17:ac:0f:60:58:ab:13:80:dc:eb:f5:a7:1c:
         68:54:9f:39:9f:2d:37:b7:75:81:0e:5f:ac:0f:24:96:68:2f:
         70:ba:75:ca:ec:0f:8a:a6:8f:f8:76:ab:3c:03:43:45:52:9e:
         db:13:7a:01:a2:b7:1b:8f:6c:ac:98:da:fc:6a:c7:65:a4:49:
         65:24:42:72:a8:32:c7:5e:e5:70:fe:ce:cf:df:95:27:7c:67:
         b7:f0:8f:39:86:80:47:66:2d:a8:7a:eb:ad:c2:5e:68:d7:82:
         df:69:05:9a:27:9a:09:3f:1b:6e:cd:54:f2:b8:25:3b:ba:ea:
         5c:76:41:74:2d:5f:2e:f4:83:49:02:5e:24:92:77:c9:ab:1b:
         95:f6:d3:31:76:70:ce:a3:ac:df:db:77:af:97:79:32:9f:ed:
         28:94:f1:a1:e5:56:89:91:ac:28:df:25:07:d4:01:31:7e:42:
         13:4f:a8:76
-----BEGIN CERTIFICATE-----
MIIDzTCCArWgAwIBAgIJAKdu+tCHJTO/MA0GCSqGSIb3DQEBCwUAMH0xCzAJBgNV
BAYTAlVTMRMwEQYDVQQIDApDYWxpZm9ybmlhMRQwEgYDVQQHDAtTYW50YSBDbGFy
YTENMAsGA1UECgwEcGtnNTEMMAoGA1UECwwDdGE2MRIwEAYDVQQDDAlsb2NhbGhv
c3QxEjAQBgkqhkiG9w0BCQEWA3RhNjAeFw0xODA3MDMxNDE0MDRaFw0yMTAzMjkx
NDE0MDRaMH0xCzAJBgNVBAYTAlVTMRMwEQYDVQQIDApDYWxpZm9ybmlhMRQwEgYD
VQQHDAtTYW50YSBDbGFyYTENMAsGA1UECgwEcGtnNTEMMAoGA1UECwwDdGE2MRIw
EAYDVQQDDAlsb2NhbGhvc3QxEjAQBgkqhkiG9w0BCQEWA3RhNjCCASIwDQYJKoZI
hvcNAQEBBQADggEPADCCAQoCggEBAMS6k7Xx1cUVe/96Sz7PlIvfiLPq9Qyx/ief
nx2Cp4s/esOivoYo9HMeB8hyWWZqZHNKC0O2QHjHvUtYaYpPFAYQFS7t9nn+Dqlo
NiyTB1PmMZedwADg5oCP+HjRojajsThjEPwkDzLMaOC/6rESvKBHxuJb8YcD9lQq
+Yspi52D2iyDmUKKxQjZ4QjH4DJJVpvAuUvxDOTaSi1ErEQEOAzrjzaQaYJoBVj7
Q5guMy8UkuUM2Ok5ylyX1zbtQn3ptYPQzPkZvqaD0oXFpzk17tHNglp4K7cF/kjf
ev9YUnSO7TK7Ib1Qf2xETuwQqvqIlhvMjhjVUvZk3eCUPUOXdbMCAwEAAaNQME4w
HQYDVR0OBBYEFO/q3VvM+H7Q9jRdD9wjWXYVsf/zMB8GA1UdIwQYMBaAFO/q3VvM
+H7Q9jRdD9wjWXYVsf/zMAwGA1UdEwQFMAMBAf8wDQYJKoZIhvcNAQELBQADggEB
ABEFEfGjV213GfD/nBbBu+RjmB2uamObMQkXBzfh7Cw4Z0D4sRZHy6o1jmhy9Ral
KeI9nfD0zO9zPv1uSPrTDtbiZh94F3FE6K4tT1AEF6wPYFirE4Dc6/WnHGhUnzmf
LTe3dYEOX6wPJJZoL3C6dcrsD4qmj/h2qzwDQ0VSntsTegGitxuPbKyY2vxqx2Wk
SWUkQnKoMsde5XD+zs/flSd8Z7fwjzmGgEdmLah6663CXmjXgt9pBZonmgk/G27N
VPK4JTu66lx2QXQtXy70g0kCXiSSd8mrG5X20zF2cM6jrN/bd6+XeTKf7SiU8aHl
VomRrCjfJQfUATF+QhNPqHY=
-----END CERTIFICATE-----
