Certificate:
    Data:
        Version: 3 (0x2)
        Serial Number:
            88:90:9f:26:87:58:42:ab
    Signature Algorithm: sha256WithRSAEncryption
        Issuer: C=US, ST=California, L=Santa Clara, O=pkg5, CN=ta2/emailAddress=ta2
        Validity
            Not Before: Jul  3 14:14:00 2018 GMT
            Not After : Mar 29 14:14:00 2021 GMT
        Subject: C=US, ST=California, L=Santa Clara, O=pkg5, CN=ta2/emailAddress=ta2
        Subject Public Key Info:
            Public Key Algorithm: rsaEncryption
                Public-Key: (2048 bit)
                Modulus:
                    00:ec:d3:9c:12:6d:eb:10:73:6e:ea:95:59:44:35:
                    c2:b5:7f:7c:b6:c6:cb:63:a2:73:9d:f4:69:29:88:
                    76:0c:fa:85:bc:e5:1c:d1:11:23:d4:93:78:40:5e:
                    9f:d0:8d:05:e3:89:d9:76:95:b0:7e:e2:cb:dc:e3:
                    14:fc:32:66:df:2a:ac:9d:8d:8a:54:76:fc:7d:db:
                    95:27:84:ce:5d:10:94:60:69:db:ad:b3:c7:99:44:
                    01:91:cc:49:81:6b:4b:bd:2b:f6:1f:0c:dd:a2:9a:
                    43:ae:41:2b:16:8f:5c:d1:f3:b5:b7:7b:80:7f:55:
                    ed:5f:55:f5:f9:04:3c:ff:f5:5f:4d:c9:12:c5:c9:
                    1e:db:a6:f4:98:f4:0a:d6:df:a0:ce:99:8f:18:f7:
                    36:78:36:b9:7b:58:2a:4e:26:c2:ce:92:95:c6:2f:
                    71:65:44:11:f5:3a:25:e9:f6:81:f3:68:b6:7b:a0:
                    03:84:19:2c:41:48:67:8d:5f:61:e7:78:04:a7:27:
                    1f:d1:a5:6d:d1:0a:c4:e4:97:1c:02:85:bc:4b:b1:
                    53:48:ac:84:3b:c6:e8:92:b5:28:44:3f:76:aa:82:
                    b1:a5:e2:6e:3c:84:92:82:55:17:cc:97:dd:0d:5d:
                    af:fc:41:59:3c:9d:9e:1a:b1:7d:73:ba:e7:25:21:
                    14:8f
                Exponent: 65537 (0x10001)
        X509v3 extensions:
            X509v3 Subject Key Identifier: 
                6B:7C:20:9D:3A:C9:CA:18:05:CC:D4:24:78:0F:69:72:C9:32:31:9D
            X509v3 Authority Key Identifier: 
                keyid:6B:7C:20:9D:3A:C9:CA:18:05:CC:D4:24:78:0F:69:72:C9:32:31:9D

            X509v3 Basic Constraints: 
                CA:TRUE
    Signature Algorithm: sha256WithRSAEncryption
         88:1e:08:52:02:24:55:db:49:08:51:16:9f:53:97:66:4f:dd:
         43:1b:4a:95:4d:a2:32:dd:e3:f3:b7:f1:0d:1e:9e:fe:01:d8:
         15:37:e2:a4:70:b1:85:5c:e2:44:e7:6e:28:e6:30:3b:c3:73:
         2e:02:87:58:6e:26:b9:73:28:08:f9:d1:cb:d7:42:bb:11:d0:
         e0:40:68:92:23:66:52:f8:dc:ae:11:6d:0d:b7:18:75:37:f1:
         00:63:c9:bb:61:37:ec:0b:7e:6e:18:91:c7:70:15:97:02:75:
         d2:c3:60:3f:0e:c3:e2:93:8c:b5:7f:a8:94:32:e7:3e:2c:09:
         55:13:24:84:7f:52:0f:a0:7a:4d:b9:fd:0a:69:eb:26:12:00:
         55:0e:57:14:36:81:d4:67:ca:4f:40:64:8c:8d:b0:e2:b5:af:
         a1:5e:ba:60:62:26:fc:7e:5c:98:6a:21:93:b1:e0:63:44:a5:
         f5:e7:02:bf:e2:51:93:cb:97:ea:9b:7c:b6:70:42:7a:94:0e:
         00:74:44:0f:a8:85:d3:58:73:1c:b2:b0:18:f8:e2:c0:c9:bc:
         7b:53:4a:95:11:62:c0:13:9c:f7:c2:52:53:94:75:51:8b:84:
         4b:10:46:89:90:81:6f:e7:ac:55:64:8b:ed:cf:2c:8e:85:c0:
         7c:04:28:ca
-----BEGIN CERTIFICATE-----
MIIDpTCCAo2gAwIBAgIJAIiQnyaHWEKrMA0GCSqGSIb3DQEBCwUAMGkxCzAJBgNV
BAYTAlVTMRMwEQYDVQQIDApDYWxpZm9ybmlhMRQwEgYDVQQHDAtTYW50YSBDbGFy
YTENMAsGA1UECgwEcGtnNTEMMAoGA1UEAwwDdGEyMRIwEAYJKoZIhvcNAQkBFgN0
YTIwHhcNMTgwNzAzMTQxNDAwWhcNMjEwMzI5MTQxNDAwWjBpMQswCQYDVQQGEwJV
UzETMBEGA1UECAwKQ2FsaWZvcm5pYTEUMBIGA1UEBwwLU2FudGEgQ2xhcmExDTAL
BgNVBAoMBHBrZzUxDDAKBgNVBAMMA3RhMjESMBAGCSqGSIb3DQEJARYDdGEyMIIB
IjANBgkqhkiG9w0BAQEFAAOCAQ8AMIIBCgKCAQEA7NOcEm3rEHNu6pVZRDXCtX98
tsbLY6JznfRpKYh2DPqFvOUc0REj1JN4QF6f0I0F44nZdpWwfuLL3OMU/DJm3yqs
nY2KVHb8fduVJ4TOXRCUYGnbrbPHmUQBkcxJgWtLvSv2HwzdoppDrkErFo9c0fO1
t3uAf1XtX1X1+QQ8//VfTckSxcke26b0mPQK1t+gzpmPGPc2eDa5e1gqTibCzpKV
xi9xZUQR9Tol6faB82i2e6ADhBksQUhnjV9h53gEpycf0aVt0QrE5JccAoW8S7FT
SKyEO8bokrUoRD92qoKxpeJuPISSglUXzJfdDV2v/EFZPJ2eGrF9c7rnJSEUjwID
AQABo1AwTjAdBgNVHQ4EFgQUa3wgnTrJyhgFzNQkeA9pcskyMZ0wHwYDVR0jBBgw
FoAUa3wgnTrJyhgFzNQkeA9pcskyMZ0wDAYDVR0TBAUwAwEB/zANBgkqhkiG9w0B
AQsFAAOCAQEAiB4IUgIkVdtJCFEWn1OXZk/dQxtKlU2iMt3j87fxDR6e/gHYFTfi
pHCxhVziROduKOYwO8NzLgKHWG4muXMoCPnRy9dCuxHQ4EBokiNmUvjcrhFtDbcY
dTfxAGPJu2E37At+bhiRx3AVlwJ10sNgPw7D4pOMtX+olDLnPiwJVRMkhH9SD6B6
Tbn9CmnrJhIAVQ5XFDaB1GfKT0BkjI2w4rWvoV66YGIm/H5cmGohk7HgY0Sl9ecC
v+JRk8uX6pt8tnBCepQOAHRED6iF01hzHLKwGPjiwMm8e1NKlRFiwBOc98JSU5R1
UYuESxBGiZCBb+esVWSL7c8sjoXAfAQoyg==
-----END CERTIFICATE-----
