Certificate:
    Data:
        Version: 3 (0x2)
        Serial Number:
            ce:d3:36:4f:ad:01:b3:a7
    Signature Algorithm: sha256WithRSAEncryption
        Issuer: C=US, ST=California, L=Santa Clara, O=pkg5, CN=ta2/emailAddress=ta2
        Validity
            Not Before: Nov 11 12:38:31 2017 GMT
            Not After : Aug  7 12:38:31 2020 GMT
        Subject: C=US, ST=California, L=Santa Clara, O=pkg5, CN=ta2/emailAddress=ta2
        Subject Public Key Info:
            Public Key Algorithm: rsaEncryption
                Public-Key: (2048 bit)
                Modulus:
                    00:b7:53:de:bf:ed:ce:83:49:7c:37:27:94:21:73:
                    fe:7b:cf:cf:35:ca:d1:11:47:b9:27:6c:58:0d:bc:
                    b9:ff:d8:da:50:76:7a:28:9d:5e:db:57:dd:6b:91:
                    92:c8:08:3a:e3:ab:c2:62:76:85:1f:97:8a:5a:77:
                    f5:28:17:9b:9f:ac:36:88:f3:4d:98:5f:8d:85:8a:
                    38:d4:ce:21:dc:54:3b:25:c4:8b:10:db:fa:9c:ed:
                    5b:ff:ad:85:4f:3d:26:ea:70:99:bd:88:f1:0a:d6:
                    4d:88:71:64:d8:5c:90:0a:2a:33:0e:ba:b8:0d:92:
                    16:80:c9:de:8e:f1:ca:a8:55:5e:31:05:31:e1:1e:
                    5c:73:7c:0f:57:83:3c:55:82:91:99:5f:c5:59:33:
                    8d:3e:7b:df:b7:64:4f:99:ae:c2:e9:e7:35:57:6e:
                    21:67:98:ce:6f:02:e4:bc:57:ba:32:3d:19:94:95:
                    48:5c:78:9c:bc:70:44:bc:f5:cf:b0:78:91:b1:f2:
                    d7:fa:fc:c8:a0:8d:02:cb:e7:8e:fc:4e:db:df:0a:
                    6e:c3:19:b9:87:65:11:eb:be:70:00:a4:7c:ef:07:
                    5a:5e:b8:a7:76:4b:94:39:f0:88:a8:13:ff:86:1b:
                    22:24:eb:1b:cc:83:18:15:be:15:9e:5f:55:39:23:
                    bc:0b
                Exponent: 65537 (0x10001)
        X509v3 extensions:
            X509v3 Subject Key Identifier: 
                BF:7D:04:5E:C5:4C:7B:07:B9:5B:4E:52:71:B1:57:D5:9E:2C:66:3C
            X509v3 Authority Key Identifier: 
                keyid:BF:7D:04:5E:C5:4C:7B:07:B9:5B:4E:52:71:B1:57:D5:9E:2C:66:3C

            X509v3 Basic Constraints: 
                CA:TRUE
    Signature Algorithm: sha256WithRSAEncryption
         2b:15:5e:cd:55:d6:a6:0e:b6:46:0a:5e:db:fb:8d:b9:97:52:
         3c:16:2d:e4:fc:48:6c:f0:43:56:ee:e4:8a:5f:d9:3e:85:a8:
         4d:4c:65:f4:0f:31:15:e2:2a:a0:f6:af:15:65:a3:e7:cf:bb:
         55:24:02:8e:42:3e:26:a2:23:bc:0f:bf:58:5c:b2:c3:c9:d2:
         6e:c3:5a:27:ae:a6:1f:8a:3b:96:91:39:20:79:f0:86:f0:96:
         a3:1b:6a:ec:e6:01:ac:ee:c9:32:5b:ac:5a:21:0e:f9:bc:d0:
         82:e3:4f:46:b9:ba:30:2d:96:71:e3:a3:05:7d:da:9e:c6:d2:
         c0:c5:95:da:20:61:fd:37:67:01:e6:a9:d8:fc:37:ed:d9:c0:
         28:6d:01:6f:42:be:2e:a7:7a:ae:93:0e:d7:4b:d1:fc:bc:1e:
         3e:8c:a5:1f:80:f5:72:34:dd:89:af:a7:13:77:25:95:9a:57:
         8a:50:b3:ff:da:c1:f9:7d:6f:b1:a9:96:8c:85:03:29:42:fe:
         41:14:7a:cc:8e:3e:66:8b:fe:ed:e9:c4:bb:15:0e:25:6a:2d:
         9a:d1:19:bf:3f:56:ff:a6:a7:a0:6b:22:a7:d2:57:d4:19:b6:
         b3:02:6e:7a:6e:3d:9d:95:fc:ed:17:b9:46:15:42:23:85:7e:
         ad:58:f1:c0
-----BEGIN CERTIFICATE-----
MIIDpTCCAo2gAwIBAgIJAM7TNk+tAbOnMA0GCSqGSIb3DQEBCwUAMGkxCzAJBgNV
BAYTAlVTMRMwEQYDVQQIDApDYWxpZm9ybmlhMRQwEgYDVQQHDAtTYW50YSBDbGFy
YTENMAsGA1UECgwEcGtnNTEMMAoGA1UEAwwDdGEyMRIwEAYJKoZIhvcNAQkBFgN0
YTIwHhcNMTcxMTExMTIzODMxWhcNMjAwODA3MTIzODMxWjBpMQswCQYDVQQGEwJV
UzETMBEGA1UECAwKQ2FsaWZvcm5pYTEUMBIGA1UEBwwLU2FudGEgQ2xhcmExDTAL
BgNVBAoMBHBrZzUxDDAKBgNVBAMMA3RhMjESMBAGCSqGSIb3DQEJARYDdGEyMIIB
IjANBgkqhkiG9w0BAQEFAAOCAQ8AMIIBCgKCAQEAt1Pev+3Og0l8NyeUIXP+e8/P
NcrREUe5J2xYDby5/9jaUHZ6KJ1e21fda5GSyAg646vCYnaFH5eKWnf1KBebn6w2
iPNNmF+NhYo41M4h3FQ7JcSLENv6nO1b/62FTz0m6nCZvYjxCtZNiHFk2FyQCioz
Drq4DZIWgMnejvHKqFVeMQUx4R5cc3wPV4M8VYKRmV/FWTONPnvft2RPma7C6ec1
V24hZ5jObwLkvFe6Mj0ZlJVIXHicvHBEvPXPsHiRsfLX+vzIoI0Cy+eO/E7b3wpu
wxm5h2UR675wAKR87wdaXrindkuUOfCIqBP/hhsiJOsbzIMYFb4Vnl9VOSO8CwID
AQABo1AwTjAdBgNVHQ4EFgQUv30EXsVMewe5W05ScbFX1Z4sZjwwHwYDVR0jBBgw
FoAUv30EXsVMewe5W05ScbFX1Z4sZjwwDAYDVR0TBAUwAwEB/zANBgkqhkiG9w0B
AQsFAAOCAQEAKxVezVXWpg62Rgpe2/uNuZdSPBYt5PxIbPBDVu7kil/ZPoWoTUxl
9A8xFeIqoPavFWWj58+7VSQCjkI+JqIjvA+/WFyyw8nSbsNaJ66mH4o7lpE5IHnw
hvCWoxtq7OYBrO7JMlusWiEO+bzQguNPRrm6MC2WceOjBX3ansbSwMWV2iBh/Tdn
Aeap2Pw37dnAKG0Bb0K+Lqd6rpMO10vR/LwePoylH4D1cjTdia+nE3cllZpXilCz
/9rB+X1vsamWjIUDKUL+QRR6zI4+Zov+7enEuxUOJWotmtEZvz9W/6anoGsip9JX
1Bm2swJuem49nZX87Re5RhVCI4V+rVjxwA==
-----END CERTIFICATE-----
