Certificate:
    Data:
        Version: 3 (0x2)
        Serial Number:
            e1:6e:90:90:6c:17:8c:84
    Signature Algorithm: sha256WithRSAEncryption
        Issuer: C=US, ST=California, L=Santa Clara, O=pkg5, OU=ta10, CN=localhost/emailAddress=ta10
        Validity
            Not Before: Jul  3 14:14:06 2018 GMT
            Not After : Mar 29 14:14:06 2021 GMT
        Subject: C=US, ST=California, L=Santa Clara, O=pkg5, OU=ta10, CN=localhost/emailAddress=ta10
        Subject Public Key Info:
            Public Key Algorithm: rsaEncryption
                Public-Key: (2048 bit)
                Modulus:
                    00:c7:6f:3e:97:f5:55:cd:3e:9e:3e:b0:ab:a4:2c:
                    c0:ea:d9:e6:c7:03:a4:1c:e7:aa:84:00:3e:61:7c:
                    29:66:bf:02:7d:19:7b:e8:83:59:e5:d8:2e:d5:63:
                    7a:44:96:a9:8b:70:55:03:1a:15:b5:1b:dd:8d:b7:
                    72:45:52:07:18:51:70:60:66:77:27:a8:0c:db:5a:
                    3d:d0:d1:c0:09:39:c9:98:33:cf:96:ee:75:1c:93:
                    2e:ea:38:cf:f9:a6:4e:41:a6:be:62:ef:f3:6f:64:
                    cc:65:88:a1:00:60:e6:94:3c:1a:c9:68:bc:45:5d:
                    3f:53:fc:7b:33:ac:34:e5:7a:95:2e:6b:df:1c:42:
                    1b:7b:c1:06:b1:17:08:8a:a7:ec:69:d0:7c:a2:be:
                    be:67:dc:05:1b:76:81:86:e6:71:51:67:e6:80:e1:
                    8a:cb:b7:35:2a:89:2f:65:e8:31:5f:58:03:5e:68:
                    7f:8f:20:da:94:ab:60:95:9c:d0:07:c4:f9:15:73:
                    ea:34:48:0f:28:22:04:d8:af:50:6a:53:32:1a:c1:
                    67:ed:ad:6d:fc:02:71:26:65:5d:e6:b7:75:5a:20:
                    23:c5:79:63:dc:eb:79:3c:25:5e:cf:f1:a1:3c:26:
                    ba:83:3c:80:68:ed:94:1c:29:31:fc:f7:a8:8c:07:
                    83:43
                Exponent: 65537 (0x10001)
        X509v3 extensions:
            X509v3 Subject Key Identifier: 
                E1:C9:A5:8B:0D:F2:8A:E6:1C:FC:5E:A6:FB:F8:B4:9B:D0:A4:52:07
            X509v3 Authority Key Identifier: 
                keyid:E1:C9:A5:8B:0D:F2:8A:E6:1C:FC:5E:A6:FB:F8:B4:9B:D0:A4:52:07

            X509v3 Basic Constraints: 
                CA:TRUE
    Signature Algorithm: sha256WithRSAEncryption
         7e:38:63:ee:2c:c3:f9:fa:93:a1:01:9c:58:21:8d:5f:9b:8f:
         56:bd:af:67:39:ce:fc:c5:d6:36:a0:d5:cd:92:98:95:9f:a5:
         9d:ac:a0:73:9e:de:7f:9f:b1:cb:3b:1f:36:e4:df:c0:ca:40:
         65:c8:c1:27:31:56:a1:d4:57:80:f4:cd:75:5d:dd:08:59:10:
         f1:c3:9f:0e:80:92:58:52:87:d5:ba:e1:f7:d0:2e:bd:72:ac:
         a1:4f:35:39:02:e6:c8:c7:05:cc:e9:f5:63:06:0d:76:b9:77:
         41:09:68:16:90:b4:4c:c1:6a:aa:f9:42:01:6c:6c:3d:94:26:
         d8:f1:f2:e8:72:f7:b0:b6:d4:ca:99:45:24:52:45:84:35:83:
         1f:85:40:3b:0d:9a:cc:3b:91:b7:75:c8:0b:6f:dd:d0:81:7b:
         85:21:72:53:8b:69:32:05:dd:0c:d8:49:ed:b6:c2:56:d1:67:
         8d:10:40:dd:13:dd:8c:77:8d:a7:6f:fc:6e:93:c3:d8:e4:7e:
         ff:f8:ad:83:12:ba:6f:2b:b0:98:a5:37:95:e5:9e:c3:18:52:
         78:51:af:4e:86:9c:a3:5e:fb:7b:e8:84:17:60:d5:21:16:08:
         ac:3b:58:68:bb:a3:48:ee:35:e5:00:a2:86:02:27:c4:57:8d:
         a2:87:a1:df
-----BEGIN CERTIFICATE-----
MIID0TCCArmgAwIBAgIJAOFukJBsF4yEMA0GCSqGSIb3DQEBCwUAMH8xCzAJBgNV
BAYTAlVTMRMwEQYDVQQIDApDYWxpZm9ybmlhMRQwEgYDVQQHDAtTYW50YSBDbGFy
YTENMAsGA1UECgwEcGtnNTENMAsGA1UECwwEdGExMDESMBAGA1UEAwwJbG9jYWxo
b3N0MRMwEQYJKoZIhvcNAQkBFgR0YTEwMB4XDTE4MDcwMzE0MTQwNloXDTIxMDMy
OTE0MTQwNlowfzELMAkGA1UEBhMCVVMxEzARBgNVBAgMCkNhbGlmb3JuaWExFDAS
BgNVBAcMC1NhbnRhIENsYXJhMQ0wCwYDVQQKDARwa2c1MQ0wCwYDVQQLDAR0YTEw
MRIwEAYDVQQDDAlsb2NhbGhvc3QxEzARBgkqhkiG9w0BCQEWBHRhMTAwggEiMA0G
CSqGSIb3DQEBAQUAA4IBDwAwggEKAoIBAQDHbz6X9VXNPp4+sKukLMDq2ebHA6Qc
56qEAD5hfClmvwJ9GXvog1nl2C7VY3pElqmLcFUDGhW1G92Nt3JFUgcYUXBgZncn
qAzbWj3Q0cAJOcmYM8+W7nUcky7qOM/5pk5Bpr5i7/NvZMxliKEAYOaUPBrJaLxF
XT9T/HszrDTlepUua98cQht7wQaxFwiKp+xp0Hyivr5n3AUbdoGG5nFRZ+aA4YrL
tzUqiS9l6DFfWANeaH+PINqUq2CVnNAHxPkVc+o0SA8oIgTYr1BqUzIawWftrW38
AnEmZV3mt3VaICPFeWPc63k8JV7P8aE8JrqDPIBo7ZQcKTH896iMB4NDAgMBAAGj
UDBOMB0GA1UdDgQWBBThyaWLDfKK5hz8Xqb7+LSb0KRSBzAfBgNVHSMEGDAWgBTh
yaWLDfKK5hz8Xqb7+LSb0KRSBzAMBgNVHRMEBTADAQH/MA0GCSqGSIb3DQEBCwUA
A4IBAQB+OGPuLMP5+pOhAZxYIY1fm49Wva9nOc78xdY2oNXNkpiVn6WdrKBznt5/
n7HLOx825N/AykBlyMEnMVah1FeA9M11Xd0IWRDxw58OgJJYUofVuuH30C69cqyh
TzU5AubIxwXM6fVjBg12uXdBCWgWkLRMwWqq+UIBbGw9lCbY8fLocvewttTKmUUk
UkWENYMfhUA7DZrMO5G3dcgLb93QgXuFIXJTi2kyBd0M2EnttsJW0WeNEEDdE92M
d42nb/xuk8PY5H7/+K2DErpvK7CYpTeV5Z7DGFJ4Ua9OhpyjXvt76IQXYNUhFgis
O1hou6NI7jXlAKKGAifEV42ih6Hf
-----END CERTIFICATE-----
