Certificate:
    Data:
        Version: 3 (0x2)
        Serial Number:
            84:49:02:49:20:6a:dd:f8
    Signature Algorithm: sha256WithRSAEncryption
        Issuer: C=US, ST=California, L=Santa Clara, O=pkg5, OU=ta11, CN=localhost/emailAddress=ta11
        Validity
            Not Before: Nov 24 01:22:45 2021 GMT
            Not After : Aug 20 01:22:45 2024 GMT
        Subject: C=US, ST=California, L=Santa Clara, O=pkg5, OU=ta11, CN=localhost/emailAddress=ta11
        Subject Public Key Info:
            Public Key Algorithm: rsaEncryption
                Public-Key: (2048 bit)
                Modulus:
                    00:af:5d:95:4a:1b:91:b0:ba:07:36:e0:aa:18:c1:
                    a3:85:35:7a:79:51:b9:1a:9a:b2:b8:8c:8d:88:9e:
                    e2:94:49:49:98:39:2d:0e:e2:00:cc:f6:58:95:ba:
                    5c:9f:67:bc:09:fb:9b:88:38:3f:ff:76:f2:42:06:
                    ab:53:0d:85:31:1b:28:d5:83:74:e5:bd:1b:15:1b:
                    03:1b:51:71:92:f6:2d:c4:98:27:16:27:0f:ed:de:
                    03:18:12:26:de:8c:f3:30:53:1f:f2:f7:8f:47:f8:
                    97:fb:61:ee:b5:d1:78:d4:ff:9e:07:95:c6:08:5e:
                    4a:08:f2:c7:d5:3e:5f:cf:4c:97:20:72:0d:aa:82:
                    82:1e:3f:3b:98:21:7a:12:a8:34:8f:d4:1e:66:f0:
                    83:66:a4:1c:99:cb:d7:d9:ca:7d:e5:ee:06:bc:06:
                    29:2b:e2:7d:a0:ea:2a:53:91:d5:41:30:0c:53:24:
                    1b:1a:ee:66:19:cd:2d:57:cd:5c:12:31:d8:6b:1a:
                    1b:05:21:b9:09:fd:ba:7d:bc:d6:f7:23:22:f8:aa:
                    c3:83:04:a5:af:6b:42:ad:c0:42:b3:29:9e:6e:87:
                    ef:9d:d2:01:e8:03:43:e0:8b:58:b0:68:cc:1a:55:
                    41:58:e1:71:cb:2a:8b:54:c9:c0:51:4b:ca:36:3d:
                    2a:8b
                Exponent: 65537 (0x10001)
        X509v3 extensions:
            X509v3 Subject Key Identifier: 
                46:F4:F9:F5:13:AB:77:DB:16:9E:A9:90:E0:5E:91:71:BE:14:33:25
            X509v3 Authority Key Identifier: 
                keyid:46:F4:F9:F5:13:AB:77:DB:16:9E:A9:90:E0:5E:91:71:BE:14:33:25

            X509v3 Basic Constraints: 
                CA:TRUE
    Signature Algorithm: sha256WithRSAEncryption
         47:22:bc:d9:d0:7d:24:18:17:ed:c8:e3:69:8b:20:20:fa:54:
         e4:b2:9a:90:59:b8:ac:0a:d5:db:b8:90:35:96:e8:f1:4a:b9:
         8d:15:99:3f:4f:41:95:c0:9f:d1:92:92:fb:c9:71:21:3e:ba:
         56:ca:c6:6b:00:91:5b:4a:4a:31:84:d3:39:c1:ea:ad:41:7e:
         2e:a8:8d:66:89:b5:e2:89:91:38:e7:ff:c4:2f:90:8f:44:e5:
         06:ee:b3:60:18:b4:27:35:a8:54:80:ad:f6:13:5a:dd:54:ee:
         43:96:39:c6:fa:07:12:c7:f0:0a:54:b1:31:0f:82:19:8c:c3:
         d5:cb:d6:b0:68:3c:13:bc:61:50:ee:2d:2d:51:d8:08:83:18:
         6e:75:c4:b8:51:05:18:96:81:7f:62:ed:c2:f1:68:7b:08:b1:
         59:29:d9:ce:75:06:79:a3:e6:21:2f:72:8f:af:38:2a:e1:d8:
         df:e6:10:2a:40:8f:f6:5d:04:5e:f4:a7:a7:51:7f:8d:12:be:
         8b:95:8d:82:0b:72:fe:5e:9f:76:d7:0f:7c:cb:bc:33:c3:0c:
         b3:bd:cb:b3:cd:99:14:4e:32:a1:a1:62:48:e5:73:fd:fc:29:
         c1:4b:77:66:6d:c0:f8:b5:1a:1b:bc:52:04:b5:b7:2b:95:3a:
         4d:7e:66:4c
-----BEGIN CERTIFICATE-----
MIID0TCCArmgAwIBAgIJAIRJAkkgat34MA0GCSqGSIb3DQEBCwUAMH8xCzAJBgNV
BAYTAlVTMRMwEQYDVQQIDApDYWxpZm9ybmlhMRQwEgYDVQQHDAtTYW50YSBDbGFy
YTENMAsGA1UECgwEcGtnNTENMAsGA1UECwwEdGExMTESMBAGA1UEAwwJbG9jYWxo
b3N0MRMwEQYJKoZIhvcNAQkBFgR0YTExMB4XDTIxMTEyNDAxMjI0NVoXDTI0MDgy
MDAxMjI0NVowfzELMAkGA1UEBhMCVVMxEzARBgNVBAgMCkNhbGlmb3JuaWExFDAS
BgNVBAcMC1NhbnRhIENsYXJhMQ0wCwYDVQQKDARwa2c1MQ0wCwYDVQQLDAR0YTEx
MRIwEAYDVQQDDAlsb2NhbGhvc3QxEzARBgkqhkiG9w0BCQEWBHRhMTEwggEiMA0G
CSqGSIb3DQEBAQUAA4IBDwAwggEKAoIBAQCvXZVKG5Gwugc24KoYwaOFNXp5Ubka
mrK4jI2InuKUSUmYOS0O4gDM9liVulyfZ7wJ+5uIOD//dvJCBqtTDYUxGyjVg3Tl
vRsVGwMbUXGS9i3EmCcWJw/t3gMYEibejPMwUx/y949H+Jf7Ye610XjU/54HlcYI
XkoI8sfVPl/PTJcgcg2qgoIePzuYIXoSqDSP1B5m8INmpByZy9fZyn3l7ga8Bikr
4n2g6ipTkdVBMAxTJBsa7mYZzS1XzVwSMdhrGhsFIbkJ/bp9vNb3IyL4qsODBKWv
a0KtwEKzKZ5uh++d0gHoA0Pgi1iwaMwaVUFY4XHLKotUycBRS8o2PSqLAgMBAAGj
UDBOMB0GA1UdDgQWBBRG9Pn1E6t32xaeqZDgXpFxvhQzJTAfBgNVHSMEGDAWgBRG
9Pn1E6t32xaeqZDgXpFxvhQzJTAMBgNVHRMEBTADAQH/MA0GCSqGSIb3DQEBCwUA
A4IBAQBHIrzZ0H0kGBftyONpiyAg+lTkspqQWbisCtXbuJA1lujxSrmNFZk/T0GV
wJ/RkpL7yXEhPrpWysZrAJFbSkoxhNM5weqtQX4uqI1mibXiiZE45//EL5CPROUG
7rNgGLQnNahUgK32E1rdVO5DljnG+gcSx/AKVLExD4IZjMPVy9awaDwTvGFQ7i0t
UdgIgxhudcS4UQUYloF/Yu3C8Wh7CLFZKdnOdQZ5o+YhL3KPrzgq4djf5hAqQI/2
XQRe9KenUX+NEr6LlY2CC3L+Xp921w98y7wzwwyzvcuzzZkUTjKhoWJI5XP9/CnB
S3dmbcD4tRobvFIEtbcrlTpNfmZM
-----END CERTIFICATE-----
