Certificate:
    Data:
        Version: 3 (0x2)
        Serial Number:
            85:45:3e:5b:30:d7:b2:60
    Signature Algorithm: sha256WithRSAEncryption
        Issuer: C=US, ST=California, L=Santa Clara, O=pkg5, CN=ta1/emailAddress=ta1
        Validity
            Not Before: Nov 24 01:22:40 2021 GMT
            Not After : Aug 20 01:22:40 2024 GMT
        Subject: C=US, ST=California, L=Santa Clara, O=pkg5, CN=ta1/emailAddress=ta1
        Subject Public Key Info:
            Public Key Algorithm: rsaEncryption
                Public-Key: (2048 bit)
                Modulus:
                    00:a2:7b:f4:8f:6a:6a:9f:40:7d:c9:b4:b4:4b:53:
                    f4:83:d4:7d:75:65:e8:ec:bb:76:ea:4b:2f:06:fb:
                    88:33:3f:cb:9a:6f:99:2a:6e:6b:6a:e6:c0:f1:22:
                    0d:f0:9f:cf:c8:fb:13:8c:30:34:1f:87:f3:15:dd:
                    0f:14:15:2d:4a:a5:bc:ee:56:de:af:7f:ec:4c:81:
                    3c:72:df:04:98:c3:05:d1:95:c4:f7:16:69:69:98:
                    c4:35:fc:ff:b8:08:99:b9:af:5c:97:eb:18:13:f4:
                    7c:8d:87:d1:30:27:6b:89:cd:0d:7c:6e:29:6e:b3:
                    69:f1:bb:b7:63:21:ac:32:90:c9:94:bc:7a:63:91:
                    39:d8:0b:72:7b:da:70:d6:00:e4:6a:25:e8:66:6c:
                    1b:49:a6:41:ca:ba:7b:74:23:30:28:c3:4d:94:93:
                    b9:3e:80:7f:c1:59:ae:12:41:0f:db:41:75:10:50:
                    a7:3b:58:bb:0d:07:a2:07:35:e7:38:0d:bf:d2:91:
                    3f:f7:c2:ca:c7:f8:ff:fe:4f:3c:4e:3b:4f:be:e8:
                    e3:c0:8e:4a:2c:54:88:d3:05:2a:7b:bf:8f:17:79:
                    61:e6:5c:7b:31:44:ff:65:b5:e7:c0:4a:2a:53:14:
                    9a:9a:50:be:76:7f:9d:b5:fc:62:3a:7c:48:bd:e8:
                    36:cd
                Exponent: 65537 (0x10001)
        X509v3 extensions:
            X509v3 Subject Key Identifier: 
                47:A4:6C:F2:2C:AD:BB:9C:3E:06:0D:E3:FB:83:73:99:CF:45:AE:62
            X509v3 Authority Key Identifier: 
                keyid:47:A4:6C:F2:2C:AD:BB:9C:3E:06:0D:E3:FB:83:73:99:CF:45:AE:62

            X509v3 Basic Constraints: 
                CA:TRUE
    Signature Algorithm: sha256WithRSAEncryption
         35:3b:b8:94:28:e7:cb:f1:a6:62:28:89:70:14:88:ef:c7:cb:
         7f:5f:be:6d:4a:81:5a:8b:60:d7:f1:65:ac:b1:e6:71:72:28:
         13:a5:07:e7:d9:49:fa:a5:f6:77:d1:79:9e:67:f7:30:8c:24:
         b8:0d:7d:d8:83:62:50:16:d5:66:72:6e:0e:d6:07:7d:1a:27:
         bf:8e:2b:0c:f8:33:84:e8:ab:9e:9d:e7:5d:9d:68:61:e3:5f:
         07:f7:69:f7:7b:3b:8e:65:0f:32:49:58:ec:1b:f0:29:ab:96:
         65:be:23:93:18:15:14:d7:c3:a7:24:99:a3:3d:de:00:e4:60:
         f5:87:70:91:c3:a6:3f:d4:bc:cd:fc:4e:1a:7b:18:c6:cf:ec:
         bd:9c:66:83:c8:c6:3f:cb:b2:e3:6e:1d:b5:85:a2:2b:24:2a:
         f3:db:4b:7a:f8:9d:7e:a7:08:1c:f1:2e:52:0a:26:16:71:b6:
         cc:f7:3c:49:88:56:d4:cb:5d:13:c7:bb:50:a4:ac:09:f7:16:
         ba:0a:58:fc:3d:ec:e3:c3:eb:c6:7b:af:29:d4:f8:ad:72:d2:
         ca:2c:7a:9c:ad:c1:fc:5e:40:10:75:9c:f2:20:a8:91:bf:a2:
         b7:a4:16:de:ac:bf:1d:b5:a7:4b:13:b3:c4:a5:3b:25:3c:ca:
         f3:e7:5a:07
-----BEGIN CERTIFICATE-----
MIIDpTCCAo2gAwIBAgIJAIVFPlsw17JgMA0GCSqGSIb3DQEBCwUAMGkxCzAJBgNV
BAYTAlVTMRMwEQYDVQQIDApDYWxpZm9ybmlhMRQwEgYDVQQHDAtTYW50YSBDbGFy
YTENMAsGA1UECgwEcGtnNTEMMAoGA1UEAwwDdGExMRIwEAYJKoZIhvcNAQkBFgN0
YTEwHhcNMjExMTI0MDEyMjQwWhcNMjQwODIwMDEyMjQwWjBpMQswCQYDVQQGEwJV
UzETMBEGA1UECAwKQ2FsaWZvcm5pYTEUMBIGA1UEBwwLU2FudGEgQ2xhcmExDTAL
BgNVBAoMBHBrZzUxDDAKBgNVBAMMA3RhMTESMBAGCSqGSIb3DQEJARYDdGExMIIB
IjANBgkqhkiG9w0BAQEFAAOCAQ8AMIIBCgKCAQEAonv0j2pqn0B9ybS0S1P0g9R9
dWXo7Lt26ksvBvuIMz/Lmm+ZKm5raubA8SIN8J/PyPsTjDA0H4fzFd0PFBUtSqW8
7lber3/sTIE8ct8EmMMF0ZXE9xZpaZjENfz/uAiZua9cl+sYE/R8jYfRMCdric0N
fG4pbrNp8bu3YyGsMpDJlLx6Y5E52Atye9pw1gDkaiXoZmwbSaZByrp7dCMwKMNN
lJO5PoB/wVmuEkEP20F1EFCnO1i7DQeiBzXnOA2/0pE/98LKx/j//k88TjtPvujj
wI5KLFSI0wUqe7+PF3lh5lx7MUT/ZbXnwEoqUxSamlC+dn+dtfxiOnxIveg2zQID
AQABo1AwTjAdBgNVHQ4EFgQUR6Rs8iytu5w+Bg3j+4Nzmc9FrmIwHwYDVR0jBBgw
FoAUR6Rs8iytu5w+Bg3j+4Nzmc9FrmIwDAYDVR0TBAUwAwEB/zANBgkqhkiG9w0B
AQsFAAOCAQEANTu4lCjny/GmYiiJcBSI78fLf1++bUqBWotg1/FlrLHmcXIoE6UH
59lJ+qX2d9F5nmf3MIwkuA192INiUBbVZnJuDtYHfRonv44rDPgzhOirnp3nXZ1o
YeNfB/dp93s7jmUPMklY7BvwKauWZb4jkxgVFNfDpySZoz3eAORg9YdwkcOmP9S8
zfxOGnsYxs/svZxmg8jGP8uy424dtYWiKyQq89tLevidfqcIHPEuUgomFnG2zPc8
SYhW1MtdE8e7UKSsCfcWugpY/D3s48PrxnuvKdT4rXLSyix6nK3B/F5AEHWc8iCo
kb+it6QW3qy/HbWnSxOzxKU7JTzK8+daBw==
-----END CERTIFICATE-----
