Certificate:
    Data:
        Version: 3 (0x2)
        Serial Number:
            85:77:8f:58:f5:0f:c3:94
    Signature Algorithm: sha256WithRSAEncryption
        Issuer: C=US, ST=California, L=Santa Clara, O=pkg5, CN=ta2/emailAddress=ta2
        Validity
            Not Before: Nov 24 01:22:41 2021 GMT
            Not After : Aug 20 01:22:41 2024 GMT
        Subject: C=US, ST=California, L=Santa Clara, O=pkg5, CN=ta2/emailAddress=ta2
        Subject Public Key Info:
            Public Key Algorithm: rsaEncryption
                Public-Key: (2048 bit)
                Modulus:
                    00:b6:c0:61:16:a5:25:76:5d:d2:57:5d:4b:7c:7d:
                    f4:9f:a1:dc:f5:cf:a8:eb:0d:bf:ea:1a:57:f8:d8:
                    0b:01:1b:63:ec:76:bd:4a:0f:2c:c2:6f:13:e5:8c:
                    50:2e:8a:6d:13:92:6e:04:b8:9a:27:f8:30:08:82:
                    77:dc:f9:bd:ea:99:4f:d4:78:ac:ad:5e:31:4b:a9:
                    a7:c7:95:bb:cc:50:68:7f:0c:e1:3c:46:2f:ab:3c:
                    53:5f:f0:59:16:c6:4d:3f:96:f5:c8:ee:a2:4d:b2:
                    e7:10:d1:8e:c1:57:ff:f7:c3:cd:6a:1f:7e:03:48:
                    fb:15:76:48:b1:b9:78:bc:59:43:bf:30:b6:03:a3:
                    a7:c7:4b:13:6f:55:d7:de:8c:7f:f6:60:eb:8b:8a:
                    67:04:e6:d5:32:5d:a6:0f:84:2d:a4:c6:f1:a4:a9:
                    85:fa:97:b3:39:af:72:8e:20:7a:3b:2e:78:1d:58:
                    69:db:8b:a7:77:82:68:cb:78:64:af:4c:cd:3c:78:
                    26:35:ba:9d:6f:1d:2c:87:f5:06:cf:3d:94:fc:50:
                    04:0c:41:d6:49:c0:2b:a2:d4:92:9a:63:cb:9c:87:
                    0c:7c:dc:38:77:5f:e8:98:53:49:78:12:50:fd:28:
                    73:67:94:90:b1:48:62:49:e2:33:97:4e:00:d2:2c:
                    7e:87
                Exponent: 65537 (0x10001)
        X509v3 extensions:
            X509v3 Subject Key Identifier: 
                36:05:26:4E:7A:57:A4:EB:05:AE:78:F9:CB:56:D7:F3:A4:CC:8A:29
            X509v3 Authority Key Identifier: 
                keyid:36:05:26:4E:7A:57:A4:EB:05:AE:78:F9:CB:56:D7:F3:A4:CC:8A:29

            X509v3 Basic Constraints: 
                CA:TRUE
    Signature Algorithm: sha256WithRSAEncryption
         79:5d:5f:93:5d:79:50:93:8f:c7:38:c7:d7:58:b5:75:cc:90:
         06:d6:e6:4f:55:90:22:a1:2a:48:82:da:ed:ca:fd:f7:8b:70:
         40:87:98:24:e5:39:07:01:b4:ed:a1:57:2e:5d:04:61:66:ee:
         0d:bd:4b:d4:e8:e1:26:24:f7:d6:c8:d2:b6:e7:05:21:db:18:
         5c:29:83:bf:32:c5:9a:f6:18:e4:ae:31:f3:f1:4c:d4:74:eb:
         51:f6:1a:7f:0d:15:0e:58:89:7d:27:fc:12:d5:2b:57:86:47:
         09:1f:2b:cd:57:1b:ad:21:98:bd:1c:83:26:18:e5:92:d5:13:
         ae:20:44:c7:c8:80:c6:50:b0:a9:9a:82:4d:2a:8d:f1:c5:a4:
         e2:74:05:66:d5:24:92:31:40:9f:c6:90:64:dd:87:7d:af:2e:
         0f:d9:91:47:61:96:21:45:7e:9c:63:ed:28:e5:8d:47:cb:48:
         d6:c1:af:fc:14:5f:b3:6a:4a:8f:2b:34:6e:82:f0:83:d3:68:
         00:22:ad:12:2a:28:ac:6e:d7:06:fe:72:67:86:22:b2:4e:f3:
         bd:66:79:ce:3a:60:54:be:ea:eb:4d:dc:49:6f:d5:73:2a:48:
         46:d3:da:18:52:7e:1f:a2:ef:7f:44:19:2c:b1:29:20:43:0a:
         5e:f2:1e:c8
-----BEGIN CERTIFICATE-----
MIIDpTCCAo2gAwIBAgIJAIV3j1j1D8OUMA0GCSqGSIb3DQEBCwUAMGkxCzAJBgNV
BAYTAlVTMRMwEQYDVQQIDApDYWxpZm9ybmlhMRQwEgYDVQQHDAtTYW50YSBDbGFy
YTENMAsGA1UECgwEcGtnNTEMMAoGA1UEAwwDdGEyMRIwEAYJKoZIhvcNAQkBFgN0
YTIwHhcNMjExMTI0MDEyMjQxWhcNMjQwODIwMDEyMjQxWjBpMQswCQYDVQQGEwJV
UzETMBEGA1UECAwKQ2FsaWZvcm5pYTEUMBIGA1UEBwwLU2FudGEgQ2xhcmExDTAL
BgNVBAoMBHBrZzUxDDAKBgNVBAMMA3RhMjESMBAGCSqGSIb3DQEJARYDdGEyMIIB
IjANBgkqhkiG9w0BAQEFAAOCAQ8AMIIBCgKCAQEAtsBhFqUldl3SV11LfH30n6Hc
9c+o6w2/6hpX+NgLARtj7Ha9Sg8swm8T5YxQLoptE5JuBLiaJ/gwCIJ33Pm96plP
1HisrV4xS6mnx5W7zFBofwzhPEYvqzxTX/BZFsZNP5b1yO6iTbLnENGOwVf/98PN
ah9+A0j7FXZIsbl4vFlDvzC2A6Onx0sTb1XX3ox/9mDri4pnBObVMl2mD4QtpMbx
pKmF+pezOa9yjiB6Oy54HVhp24und4Joy3hkr0zNPHgmNbqdbx0sh/UGzz2U/FAE
DEHWScArotSSmmPLnIcMfNw4d1/omFNJeBJQ/ShzZ5SQsUhiSeIzl04A0ix+hwID
AQABo1AwTjAdBgNVHQ4EFgQUNgUmTnpXpOsFrnj5y1bX86TMiikwHwYDVR0jBBgw
FoAUNgUmTnpXpOsFrnj5y1bX86TMiikwDAYDVR0TBAUwAwEB/zANBgkqhkiG9w0B
AQsFAAOCAQEAeV1fk115UJOPxzjH11i1dcyQBtbmT1WQIqEqSILa7cr994twQIeY
JOU5BwG07aFXLl0EYWbuDb1L1OjhJiT31sjStucFIdsYXCmDvzLFmvYY5K4x8/FM
1HTrUfYafw0VDliJfSf8EtUrV4ZHCR8rzVcbrSGYvRyDJhjlktUTriBEx8iAxlCw
qZqCTSqN8cWk4nQFZtUkkjFAn8aQZN2Hfa8uD9mRR2GWIUV+nGPtKOWNR8tI1sGv
/BRfs2pKjys0boLwg9NoACKtEioorG7XBv5yZ4Yisk7zvWZ5zjpgVL7q603cSW/V
cypIRtPaGFJ+H6Lvf0QZLLEpIEMKXvIeyA==
-----END CERTIFICATE-----
