Certificate:
    Data:
        Version: 3 (0x2)
        Serial Number:
            e1:43:d2:d2:d3:d6:b7:d6
    Signature Algorithm: sha256WithRSAEncryption
        Issuer: C=US, ST=California, L=Santa Clara, O=pkg5, CN=ta3/emailAddress=ta3
        Validity
            Not Before: Nov 11 12:38:31 2017 GMT
            Not After : Aug  7 12:38:31 2020 GMT
        Subject: C=US, ST=California, L=Santa Clara, O=pkg5, CN=ta3/emailAddress=ta3
        Subject Public Key Info:
            Public Key Algorithm: rsaEncryption
                Public-Key: (2048 bit)
                Modulus:
                    00:a5:ec:70:ff:84:16:48:c2:b7:23:79:1a:88:b5:
                    1f:ab:f7:a0:c9:f3:9b:4b:9e:76:20:e3:58:11:ae:
                    f4:73:51:66:de:12:cb:be:f9:1d:4f:a4:ba:57:f5:
                    04:32:1a:8f:38:2a:cc:59:9d:00:f2:e9:dd:66:b8:
                    51:a1:c2:f3:b3:07:24:91:18:25:a4:c8:ab:81:5b:
                    47:95:c9:f9:05:ab:37:ce:7c:ba:2b:b5:66:56:38:
                    b4:99:ee:ea:8e:87:e5:ca:2c:51:4e:16:34:e9:3e:
                    27:96:d9:6f:c1:c7:eb:b7:d9:d3:7d:52:bc:61:94:
                    ce:da:c1:2c:69:4d:eb:4f:ce:55:7a:be:ab:c9:38:
                    fe:cd:70:51:29:97:2b:fa:e3:d4:7c:46:b2:38:75:
                    dc:7a:63:9d:ac:9f:be:e4:36:e8:4c:bc:02:2f:39:
                    83:86:c7:29:e8:65:f0:8c:e9:f5:cb:e2:f0:f9:b2:
                    33:71:a0:58:bc:bb:f1:48:2b:31:78:62:ca:41:06:
                    a0:5e:32:9a:e4:73:a0:5a:a3:97:51:51:a3:97:ab:
                    88:df:50:90:c1:d2:b0:16:72:74:a2:0f:75:68:ae:
                    03:72:64:c7:a5:d8:6b:1e:59:9f:6c:20:3d:c2:c0:
                    e5:30:b5:56:52:df:95:6a:36:5a:95:d0:f8:e7:a3:
                    89:6b
                Exponent: 65537 (0x10001)
        X509v3 extensions:
            X509v3 Subject Key Identifier: 
                57:CF:1E:CF:91:35:77:E9:FA:49:76:FD:9C:6C:D9:E5:DF:4C:B3:4E
            X509v3 Authority Key Identifier: 
                keyid:57:CF:1E:CF:91:35:77:E9:FA:49:76:FD:9C:6C:D9:E5:DF:4C:B3:4E

            X509v3 Basic Constraints: 
                CA:TRUE
    Signature Algorithm: sha256WithRSAEncryption
         28:c4:28:f7:1c:f3:84:66:90:c6:45:40:5b:3c:6d:57:fa:97:
         1d:db:d2:78:e3:2f:2e:87:6c:31:3c:55:7a:b2:2c:4a:8e:66:
         2f:0b:6a:c1:f0:6e:50:12:51:be:82:63:95:33:fd:68:ee:b9:
         77:b7:10:0a:a0:21:b1:41:01:f0:59:9a:de:e7:08:0e:a1:d0:
         6f:47:1c:a2:45:5e:35:01:69:71:02:f7:83:ec:0e:fd:f0:14:
         27:94:6f:0a:69:8a:39:20:14:5e:f4:25:fd:9c:cf:e4:c2:fe:
         23:36:45:56:db:7e:bf:93:02:f4:46:e9:2a:9d:63:36:7c:36:
         51:0a:81:6d:e1:19:f4:8c:39:2d:09:62:6d:6d:09:6b:a9:9c:
         5d:f5:9c:e9:27:bb:23:fc:b4:de:6a:8c:f9:3c:bc:64:63:53:
         6b:70:33:96:22:b6:0b:ac:e8:87:f3:bc:c9:71:b1:ad:a6:25:
         c3:4b:08:0b:00:22:12:48:9c:aa:52:77:cd:a0:fd:0b:85:24:
         83:7a:cc:b0:7a:c5:24:f6:0b:3f:6c:3e:1d:79:06:3f:ca:44:
         fe:7f:6a:45:4e:d6:db:70:ec:4e:c9:82:57:c0:e5:ee:84:d2:
         31:e5:ea:6d:a5:66:18:85:44:2e:21:ac:7a:09:ed:cd:5b:4f:
         4f:fd:b8:dc
-----BEGIN CERTIFICATE-----
MIIDpTCCAo2gAwIBAgIJAOFD0tLT1rfWMA0GCSqGSIb3DQEBCwUAMGkxCzAJBgNV
BAYTAlVTMRMwEQYDVQQIDApDYWxpZm9ybmlhMRQwEgYDVQQHDAtTYW50YSBDbGFy
YTENMAsGA1UECgwEcGtnNTEMMAoGA1UEAwwDdGEzMRIwEAYJKoZIhvcNAQkBFgN0
YTMwHhcNMTcxMTExMTIzODMxWhcNMjAwODA3MTIzODMxWjBpMQswCQYDVQQGEwJV
UzETMBEGA1UECAwKQ2FsaWZvcm5pYTEUMBIGA1UEBwwLU2FudGEgQ2xhcmExDTAL
BgNVBAoMBHBrZzUxDDAKBgNVBAMMA3RhMzESMBAGCSqGSIb3DQEJARYDdGEzMIIB
IjANBgkqhkiG9w0BAQEFAAOCAQ8AMIIBCgKCAQEApexw/4QWSMK3I3kaiLUfq/eg
yfObS552IONYEa70c1Fm3hLLvvkdT6S6V/UEMhqPOCrMWZ0A8undZrhRocLzswck
kRglpMirgVtHlcn5Bas3zny6K7VmVji0me7qjoflyixRThY06T4nltlvwcfrt9nT
fVK8YZTO2sEsaU3rT85Ver6ryTj+zXBRKZcr+uPUfEayOHXcemOdrJ++5DboTLwC
LzmDhscp6GXwjOn1y+Lw+bIzcaBYvLvxSCsxeGLKQQagXjKa5HOgWqOXUVGjl6uI
31CQwdKwFnJ0og91aK4DcmTHpdhrHlmfbCA9wsDlMLVWUt+VajZaldD456OJawID
AQABo1AwTjAdBgNVHQ4EFgQUV88ez5E1d+n6SXb9nGzZ5d9Ms04wHwYDVR0jBBgw
FoAUV88ez5E1d+n6SXb9nGzZ5d9Ms04wDAYDVR0TBAUwAwEB/zANBgkqhkiG9w0B
AQsFAAOCAQEAKMQo9xzzhGaQxkVAWzxtV/qXHdvSeOMvLodsMTxVerIsSo5mLwtq
wfBuUBJRvoJjlTP9aO65d7cQCqAhsUEB8Fma3ucIDqHQb0ccokVeNQFpcQL3g+wO
/fAUJ5RvCmmKOSAUXvQl/ZzP5ML+IzZFVtt+v5MC9EbpKp1jNnw2UQqBbeEZ9Iw5
LQlibW0Ja6mcXfWc6Se7I/y03mqM+Ty8ZGNTa3AzliK2C6zoh/O8yXGxraYlw0sI
CwAiEkicqlJ3zaD9C4Ukg3rMsHrFJPYLP2w+HXkGP8pE/n9qRU7W23DsTsmCV8Dl
7oTSMeXqbaVmGIVELiGsegntzVtPT/243A==
-----END CERTIFICATE-----
