Certificate:
    Data:
        Version: 3 (0x2)
        Serial Number:
            b6:8c:60:a6:70:e5:3d:44
    Signature Algorithm: sha256WithRSAEncryption
        Issuer: C=US, ST=California, L=Santa Clara, O=pkg5, CN=ta3/emailAddress=ta3
        Validity
            Not Before: Jul  3 14:14:00 2018 GMT
            Not After : Mar 29 14:14:00 2021 GMT
        Subject: C=US, ST=California, L=Santa Clara, O=pkg5, CN=ta3/emailAddress=ta3
        Subject Public Key Info:
            Public Key Algorithm: rsaEncryption
                Public-Key: (2048 bit)
                Modulus:
                    00:bf:00:63:de:6c:30:a2:65:18:4d:f0:72:50:9f:
                    fe:ea:b9:2d:7f:ed:f8:72:4c:fd:73:38:18:1f:76:
                    94:51:2a:93:ac:36:c4:fd:8c:3b:31:ec:24:35:cb:
                    ec:b8:65:a8:ec:c2:e5:b2:57:80:61:3d:30:4d:0e:
                    56:36:fa:ac:6c:95:26:36:c2:c5:c8:5e:09:e5:a6:
                    dc:05:c7:8c:42:38:20:25:50:7e:a8:f7:22:bc:ee:
                    fe:17:77:6b:6a:8f:a6:eb:5d:fc:38:bb:55:a9:d1:
                    20:f5:45:fb:f7:71:c3:9b:4b:2d:f1:98:ae:e6:7b:
                    37:f5:02:6d:e7:dd:ff:fd:15:a3:40:dd:77:71:c1:
                    cc:98:3f:d4:d1:83:c7:6e:70:25:1d:b8:9b:2b:ae:
                    71:04:40:52:d0:62:b2:23:74:da:5a:83:19:54:35:
                    13:d5:14:d0:7c:96:8f:a8:30:ab:ea:fc:80:86:45:
                    76:0b:69:c5:f1:e6:f9:27:cc:b3:43:ae:32:d4:18:
                    38:e5:86:d9:83:5d:12:39:e0:40:3e:2e:20:6e:12:
                    e3:5a:b6:02:06:6b:52:e9:1d:c0:64:f9:a1:2d:fc:
                    2e:53:cd:8b:28:58:04:86:a6:25:37:2c:3a:ed:e2:
                    15:d5:00:f3:26:5c:75:ab:50:4f:57:b3:ec:74:d6:
                    5c:5d
                Exponent: 65537 (0x10001)
        X509v3 extensions:
            X509v3 Subject Key Identifier: 
                37:1D:9A:B3:38:2B:C2:B3:A4:55:A9:A3:82:6E:C1:93:53:B0:08:E4
            X509v3 Authority Key Identifier: 
                keyid:37:1D:9A:B3:38:2B:C2:B3:A4:55:A9:A3:82:6E:C1:93:53:B0:08:E4

            X509v3 Basic Constraints: 
                CA:TRUE
    Signature Algorithm: sha256WithRSAEncryption
         4a:94:98:55:8d:bc:96:50:2a:84:c3:d7:da:f7:ac:54:f3:f3:
         b6:a1:1b:94:65:d0:e4:dc:d4:4d:ba:b3:60:4a:ef:df:8f:22:
         8d:9a:d4:59:be:5d:f9:01:6c:f7:15:75:a6:c8:5d:33:52:c2:
         f6:58:13:bc:85:b5:dc:3d:90:43:a0:86:4d:90:da:5a:47:17:
         75:15:b1:7e:c5:e0:00:3f:3a:47:b6:04:da:72:9a:ae:f0:8e:
         3d:8b:bf:fd:eb:88:72:5a:e2:5b:24:cf:61:53:9b:6a:c6:71:
         2d:a4:d6:14:89:21:b9:5d:85:be:e5:73:c5:6a:10:55:84:0b:
         78:43:ff:44:a7:03:3a:5a:c3:be:53:37:34:be:4a:3b:40:34:
         b0:85:e6:38:82:1b:77:41:01:d8:57:61:ce:ba:e3:32:26:e1:
         f9:dd:ba:53:eb:17:2c:7c:3c:8b:f2:b5:19:5b:30:5e:e3:69:
         58:cd:86:27:e3:ff:b4:97:4f:d5:70:85:9c:11:56:7f:c6:e7:
         70:1a:fe:79:30:75:57:2f:d5:0c:7f:3b:93:be:33:53:75:1a:
         85:d8:55:a7:4f:d0:f1:57:e6:88:8e:04:0a:55:b5:c8:d1:27:
         ad:11:d8:f4:0c:5c:f9:6c:16:ee:55:80:97:48:83:e6:a0:45:
         b8:cc:78:88
-----BEGIN CERTIFICATE-----
MIIDpTCCAo2gAwIBAgIJALaMYKZw5T1EMA0GCSqGSIb3DQEBCwUAMGkxCzAJBgNV
BAYTAlVTMRMwEQYDVQQIDApDYWxpZm9ybmlhMRQwEgYDVQQHDAtTYW50YSBDbGFy
YTENMAsGA1UECgwEcGtnNTEMMAoGA1UEAwwDdGEzMRIwEAYJKoZIhvcNAQkBFgN0
YTMwHhcNMTgwNzAzMTQxNDAwWhcNMjEwMzI5MTQxNDAwWjBpMQswCQYDVQQGEwJV
UzETMBEGA1UECAwKQ2FsaWZvcm5pYTEUMBIGA1UEBwwLU2FudGEgQ2xhcmExDTAL
BgNVBAoMBHBrZzUxDDAKBgNVBAMMA3RhMzESMBAGCSqGSIb3DQEJARYDdGEzMIIB
IjANBgkqhkiG9w0BAQEFAAOCAQ8AMIIBCgKCAQEAvwBj3mwwomUYTfByUJ/+6rkt
f+34ckz9czgYH3aUUSqTrDbE/Yw7MewkNcvsuGWo7MLlsleAYT0wTQ5WNvqsbJUm
NsLFyF4J5abcBceMQjggJVB+qPcivO7+F3drao+m6138OLtVqdEg9UX793HDm0st
8Ziu5ns39QJt593//RWjQN13ccHMmD/U0YPHbnAlHbibK65xBEBS0GKyI3TaWoMZ
VDUT1RTQfJaPqDCr6vyAhkV2C2nF8eb5J8yzQ64y1Bg45YbZg10SOeBAPi4gbhLj
WrYCBmtS6R3AZPmhLfwuU82LKFgEhqYlNyw67eIV1QDzJlx1q1BPV7PsdNZcXQID
AQABo1AwTjAdBgNVHQ4EFgQUNx2aszgrwrOkVamjgm7Bk1OwCOQwHwYDVR0jBBgw
FoAUNx2aszgrwrOkVamjgm7Bk1OwCOQwDAYDVR0TBAUwAwEB/zANBgkqhkiG9w0B
AQsFAAOCAQEASpSYVY28llAqhMPX2vesVPPztqEblGXQ5NzUTbqzYErv348ijZrU
Wb5d+QFs9xV1pshdM1LC9lgTvIW13D2QQ6CGTZDaWkcXdRWxfsXgAD86R7YE2nKa
rvCOPYu//euIclriWyTPYVObasZxLaTWFIkhuV2FvuVzxWoQVYQLeEP/RKcDOlrD
vlM3NL5KO0A0sIXmOIIbd0EB2FdhzrrjMibh+d26U+sXLHw8i/K1GVswXuNpWM2G
J+P/tJdP1XCFnBFWf8bncBr+eTB1Vy/VDH87k74zU3UahdhVp0/Q8VfmiI4EClW1
yNEnrRHY9Axc+WwW7lWAl0iD5qBFuMx4iA==
-----END CERTIFICATE-----
