Certificate:
    Data:
        Version: 3 (0x2)
        Serial Number:
            a8:47:de:86:a2:39:3f:56
    Signature Algorithm: sha256WithRSAEncryption
        Issuer: C=US, ST=California, L=Santa Clara, O=pkg5, CN=ta3/emailAddress=ta3
        Validity
            Not Before: Nov 24 01:22:42 2021 GMT
            Not After : Aug 20 01:22:42 2024 GMT
        Subject: C=US, ST=California, L=Santa Clara, O=pkg5, CN=ta3/emailAddress=ta3
        Subject Public Key Info:
            Public Key Algorithm: rsaEncryption
                Public-Key: (2048 bit)
                Modulus:
                    00:b3:29:61:ae:91:90:44:ff:79:8e:ab:49:d0:5e:
                    40:21:25:51:32:82:f4:45:4d:b7:e2:1e:69:1e:7f:
                    fe:a5:34:fa:3c:83:c6:9b:f2:b9:f3:0b:71:1e:a7:
                    70:af:8b:b6:b0:d2:51:c4:46:e3:a4:f3:26:46:a9:
                    6a:9d:95:51:9d:2e:7f:80:6e:18:3c:f1:56:26:3c:
                    79:b9:fe:8a:05:fe:64:0f:88:7b:df:db:03:77:e1:
                    10:68:dd:a1:e1:f3:6d:42:82:a1:f7:77:3a:25:18:
                    98:f7:82:79:58:66:2b:31:9b:ca:a9:61:ee:29:b8:
                    82:e2:44:cc:37:c4:a0:4c:e4:ec:8e:a9:91:22:81:
                    65:d1:1c:e3:fc:2b:83:40:63:0d:52:94:3a:90:2b:
                    ae:75:44:f9:7c:0d:72:25:0a:80:39:ea:41:c3:ff:
                    79:d1:2e:d1:89:77:fa:d2:bd:b1:62:ea:ec:6b:a2:
                    dd:ec:48:85:5a:66:1d:d8:e5:dc:5e:d8:78:ff:e4:
                    60:2d:25:2b:43:95:bb:9d:21:b7:f0:6c:2f:6c:d6:
                    49:6e:9c:65:d4:10:5b:c3:a0:0a:40:ae:23:2b:5a:
                    75:c7:c4:f1:07:94:1a:77:67:df:22:d2:29:28:51:
                    38:e8:f6:21:c1:a4:db:e3:51:74:29:9c:62:eb:69:
                    33:d3
                Exponent: 65537 (0x10001)
        X509v3 extensions:
            X509v3 Subject Key Identifier: 
                4C:EE:7A:92:F7:45:DA:A1:2E:59:D7:E3:23:97:1A:D5:42:CD:2D:5D
            X509v3 Authority Key Identifier: 
                keyid:4C:EE:7A:92:F7:45:DA:A1:2E:59:D7:E3:23:97:1A:D5:42:CD:2D:5D

            X509v3 Basic Constraints: 
                CA:TRUE
    Signature Algorithm: sha256WithRSAEncryption
         37:72:ba:37:36:8f:12:05:b0:62:cd:1c:2d:14:99:d7:ce:2d:
         6f:36:7b:c0:9c:c0:22:0b:aa:de:1e:18:28:62:f4:9d:d4:b7:
         f4:ab:8e:58:e3:a7:3c:c6:07:36:74:87:d8:f8:7a:f2:a0:c0:
         af:3f:07:23:3c:f0:12:10:aa:e5:ea:85:78:0e:f3:25:e9:5e:
         0f:61:6b:bd:ff:d0:dd:61:7b:c0:88:88:b8:07:c6:cf:6b:46:
         39:80:91:31:e1:86:78:d6:dc:9a:42:ce:af:00:90:8c:b1:8c:
         33:b3:d6:e3:6b:52:45:13:46:7f:bb:4f:46:17:ca:9a:d4:c2:
         30:7b:bc:1c:11:2f:0a:13:e4:47:e9:55:d0:58:fe:47:2e:6a:
         09:6e:7f:a3:66:3a:ca:05:be:1a:50:ea:af:0f:17:99:c7:9a:
         d1:40:27:b3:ce:11:44:14:c7:52:b2:39:08:98:32:0c:55:d9:
         47:a3:5d:cd:90:22:86:c4:f8:b3:82:3e:20:bb:83:b0:ef:b7:
         cb:8b:f4:d5:76:10:1c:b1:25:a9:e5:44:5a:4d:ad:b1:95:74:
         7d:ea:46:59:1f:b3:86:91:ce:de:59:0d:0a:03:5f:e8:27:44:
         31:c8:e2:98:b8:11:ed:ad:2c:3f:70:4f:2d:01:f1:59:7a:3e:
         c0:ab:41:21
-----BEGIN CERTIFICATE-----
MIIDpTCCAo2gAwIBAgIJAKhH3oaiOT9WMA0GCSqGSIb3DQEBCwUAMGkxCzAJBgNV
BAYTAlVTMRMwEQYDVQQIDApDYWxpZm9ybmlhMRQwEgYDVQQHDAtTYW50YSBDbGFy
YTENMAsGA1UECgwEcGtnNTEMMAoGA1UEAwwDdGEzMRIwEAYJKoZIhvcNAQkBFgN0
YTMwHhcNMjExMTI0MDEyMjQyWhcNMjQwODIwMDEyMjQyWjBpMQswCQYDVQQGEwJV
UzETMBEGA1UECAwKQ2FsaWZvcm5pYTEUMBIGA1UEBwwLU2FudGEgQ2xhcmExDTAL
BgNVBAoMBHBrZzUxDDAKBgNVBAMMA3RhMzESMBAGCSqGSIb3DQEJARYDdGEzMIIB
IjANBgkqhkiG9w0BAQEFAAOCAQ8AMIIBCgKCAQEAsylhrpGQRP95jqtJ0F5AISVR
MoL0RU234h5pHn/+pTT6PIPGm/K58wtxHqdwr4u2sNJRxEbjpPMmRqlqnZVRnS5/
gG4YPPFWJjx5uf6KBf5kD4h739sDd+EQaN2h4fNtQoKh93c6JRiY94J5WGYrMZvK
qWHuKbiC4kTMN8SgTOTsjqmRIoFl0Rzj/CuDQGMNUpQ6kCuudUT5fA1yJQqAOepB
w/950S7RiXf60r2xYursa6Ld7EiFWmYd2OXcXth4/+RgLSUrQ5W7nSG38GwvbNZJ
bpxl1BBbw6AKQK4jK1p1x8TxB5Qad2ffItIpKFE46PYhwaTb41F0KZxi62kz0wID
AQABo1AwTjAdBgNVHQ4EFgQUTO56kvdF2qEuWdfjI5ca1ULNLV0wHwYDVR0jBBgw
FoAUTO56kvdF2qEuWdfjI5ca1ULNLV0wDAYDVR0TBAUwAwEB/zANBgkqhkiG9w0B
AQsFAAOCAQEAN3K6NzaPEgWwYs0cLRSZ184tbzZ7wJzAIguq3h4YKGL0ndS39KuO
WOOnPMYHNnSH2Ph68qDArz8HIzzwEhCq5eqFeA7zJeleD2Frvf/Q3WF7wIiIuAfG
z2tGOYCRMeGGeNbcmkLOrwCQjLGMM7PW42tSRRNGf7tPRhfKmtTCMHu8HBEvChPk
R+lV0Fj+Ry5qCW5/o2Y6ygW+GlDqrw8Xmcea0UAns84RRBTHUrI5CJgyDFXZR6Nd
zZAihsT4s4I+ILuDsO+3y4v01XYQHLElqeVEWk2tsZV0fepGWR+zhpHO3lkNCgNf
6CdEMcjimLgR7a0sP3BPLQHxWXo+wKtBIQ==
-----END CERTIFICATE-----
