Certificate:
    Data:
        Version: 3 (0x2)
        Serial Number:
            be:58:81:8c:d4:c3:cd:40
    Signature Algorithm: sha256WithRSAEncryption
        Issuer: C=US, ST=California, L=Santa Clara, O=pkg5, CN=ta4/emailAddress=ta4
        Validity
            Not Before: Nov 24 01:22:43 2021 GMT
            Not After : Aug 20 01:22:43 2024 GMT
        Subject: C=US, ST=California, L=Santa Clara, O=pkg5, CN=ta4/emailAddress=ta4
        Subject Public Key Info:
            Public Key Algorithm: rsaEncryption
                Public-Key: (2048 bit)
                Modulus:
                    00:cb:de:3f:1b:76:2f:e0:ed:40:24:04:92:7f:88:
                    8c:56:2b:77:46:2d:87:ed:5a:8e:24:54:6c:3f:57:
                    3c:fd:e7:3b:28:6d:fd:51:4a:15:1b:ce:bd:8e:b5:
                    a6:2e:06:70:3d:86:90:a3:88:1d:59:3f:56:96:31:
                    56:f1:f6:1f:98:d2:b3:a7:c7:07:99:39:ef:64:5c:
                    d3:4c:40:ff:eb:18:8b:4e:c6:e6:aa:ec:03:43:e8:
                    2e:da:40:a7:cf:6b:bd:50:18:51:54:60:2e:ea:0b:
                    1e:ab:cb:4e:2f:c3:dd:bc:a3:bf:a9:c9:da:29:7a:
                    95:a0:24:d5:e9:cd:09:6d:e7:d1:09:83:bf:a4:75:
                    89:fd:98:93:f1:4e:0c:00:55:b3:13:dc:ca:94:1d:
                    af:9a:c3:aa:a5:52:05:7f:8c:79:00:5c:c4:86:d5:
                    bb:ea:2c:55:ce:e3:6d:f9:b1:58:77:bb:11:7d:10:
                    14:08:af:da:e7:9f:33:22:b6:53:8e:67:64:54:08:
                    1f:93:98:a3:85:21:8f:33:70:c4:47:ef:e4:12:3f:
                    d8:37:23:50:04:fd:6b:9c:b9:06:d1:df:d4:90:06:
                    71:f7:1d:24:c8:74:a3:d4:a4:f1:8a:18:7c:dd:d5:
                    ef:44:01:77:ec:c8:27:50:fd:b9:50:79:8e:7d:ae:
                    a5:47
                Exponent: 65537 (0x10001)
        X509v3 extensions:
            X509v3 Subject Key Identifier: 
                55:7A:9D:41:52:38:8C:2D:17:A2:CA:1F:4D:1E:89:FD:55:FB:97:49
            X509v3 Authority Key Identifier: 
                keyid:55:7A:9D:41:52:38:8C:2D:17:A2:CA:1F:4D:1E:89:FD:55:FB:97:49

            X509v3 Basic Constraints: 
                CA:TRUE
    Signature Algorithm: sha256WithRSAEncryption
         a9:31:b0:ba:c3:a6:9e:fc:c4:83:e6:ae:e2:c6:c6:0a:51:d9:
         a1:7e:31:26:87:dd:05:19:4d:b2:98:63:7f:7f:53:dd:cb:e8:
         6a:49:d9:bb:2e:dd:ab:ae:29:93:52:ce:83:29:48:63:14:93:
         08:3e:33:bf:f0:9a:5c:59:0a:76:19:5e:2a:19:9a:eb:0b:db:
         0d:1d:62:82:c5:d2:23:95:e0:db:6f:db:fa:6c:bd:eb:df:87:
         af:7b:8b:75:eb:5e:4f:1a:9c:1e:bd:ec:f0:93:6a:2b:9f:cc:
         97:98:39:5f:94:2e:8b:27:b1:7c:31:39:77:3c:54:84:81:61:
         58:d1:0e:28:30:80:f7:32:36:06:66:8d:3a:ca:90:e5:76:f6:
         67:57:db:a2:fa:8f:ab:99:f1:bd:48:fa:04:e4:e9:cd:f4:8d:
         c7:2d:9f:8b:2f:f3:cf:b2:7d:eb:c9:8e:7c:3b:b1:e1:09:1f:
         76:fc:86:5b:f9:38:b4:a4:96:9f:d6:7a:fb:f8:39:a2:67:92:
         aa:04:13:35:8c:3d:ac:fc:da:35:ab:84:fe:16:59:fd:14:97:
         09:e4:64:79:c0:18:be:87:98:0c:ed:64:e5:2b:65:75:e1:ea:
         af:34:69:46:f8:6f:f8:6b:39:c6:73:99:31:3c:8c:b5:b3:61:
         e6:48:2e:ed
-----BEGIN CERTIFICATE-----
MIIDpTCCAo2gAwIBAgIJAL5YgYzUw81AMA0GCSqGSIb3DQEBCwUAMGkxCzAJBgNV
BAYTAlVTMRMwEQYDVQQIDApDYWxpZm9ybmlhMRQwEgYDVQQHDAtTYW50YSBDbGFy
YTENMAsGA1UECgwEcGtnNTEMMAoGA1UEAwwDdGE0MRIwEAYJKoZIhvcNAQkBFgN0
YTQwHhcNMjExMTI0MDEyMjQzWhcNMjQwODIwMDEyMjQzWjBpMQswCQYDVQQGEwJV
UzETMBEGA1UECAwKQ2FsaWZvcm5pYTEUMBIGA1UEBwwLU2FudGEgQ2xhcmExDTAL
BgNVBAoMBHBrZzUxDDAKBgNVBAMMA3RhNDESMBAGCSqGSIb3DQEJARYDdGE0MIIB
IjANBgkqhkiG9w0BAQEFAAOCAQ8AMIIBCgKCAQEAy94/G3Yv4O1AJASSf4iMVit3
Ri2H7VqOJFRsP1c8/ec7KG39UUoVG869jrWmLgZwPYaQo4gdWT9WljFW8fYfmNKz
p8cHmTnvZFzTTED/6xiLTsbmquwDQ+gu2kCnz2u9UBhRVGAu6gseq8tOL8PdvKO/
qcnaKXqVoCTV6c0JbefRCYO/pHWJ/ZiT8U4MAFWzE9zKlB2vmsOqpVIFf4x5AFzE
htW76ixVzuNt+bFYd7sRfRAUCK/a558zIrZTjmdkVAgfk5ijhSGPM3DER+/kEj/Y
NyNQBP1rnLkG0d/UkAZx9x0kyHSj1KTxihh83dXvRAF37MgnUP25UHmOfa6lRwID
AQABo1AwTjAdBgNVHQ4EFgQUVXqdQVI4jC0XosofTR6J/VX7l0kwHwYDVR0jBBgw
FoAUVXqdQVI4jC0XosofTR6J/VX7l0kwDAYDVR0TBAUwAwEB/zANBgkqhkiG9w0B
AQsFAAOCAQEAqTGwusOmnvzEg+au4sbGClHZoX4xJofdBRlNsphjf39T3cvoaknZ
uy7dq64pk1LOgylIYxSTCD4zv/CaXFkKdhleKhma6wvbDR1igsXSI5Xg22/b+my9
69+Hr3uLdeteTxqcHr3s8JNqK5/Ml5g5X5QuiyexfDE5dzxUhIFhWNEOKDCA9zI2
BmaNOsqQ5Xb2Z1fbovqPq5nxvUj6BOTpzfSNxy2fiy/zz7J968mOfDux4QkfdvyG
W/k4tKSWn9Z6+/g5omeSqgQTNYw9rPzaNauE/hZZ/RSXCeRkecAYvoeYDO1k5Stl
deHqrzRpRvhv+Gs5xnOZMTyMtbNh5kgu7Q==
-----END CERTIFICATE-----
