Certificate:
    Data:
        Version: 3 (0x2)
        Serial Number:
            fb:35:3e:25:6b:bc:07:65
    Signature Algorithm: sha256WithRSAEncryption
        Issuer: C=US, ST=California, L=Santa Clara, O=pkg5, CN=ta4/emailAddress=ta4
        Validity
            Not Before: Jul  3 14:14:02 2018 GMT
            Not After : Mar 29 14:14:02 2021 GMT
        Subject: C=US, ST=California, L=Santa Clara, O=pkg5, CN=ta4/emailAddress=ta4
        Subject Public Key Info:
            Public Key Algorithm: rsaEncryption
                Public-Key: (2048 bit)
                Modulus:
                    00:c0:01:89:79:b6:21:e8:2e:e2:77:b7:ab:ee:fe:
                    b7:76:03:d6:43:04:c8:a5:e5:6d:50:cd:4e:4e:5c:
                    2a:20:9c:8f:43:e2:12:c6:85:e9:b9:da:2b:22:eb:
                    58:5f:ba:3d:23:0f:d8:fc:29:23:bb:c9:71:21:d3:
                    e9:7e:4a:c1:e8:d9:10:b5:0d:9c:9f:72:44:ba:7a:
                    f4:9a:3f:92:08:3a:1a:4f:01:d6:c4:7a:88:2a:a9:
                    f9:f4:5c:53:20:4a:08:5d:0e:e0:2d:61:fe:09:8d:
                    7b:c0:a1:1c:5f:7e:ed:ca:36:dc:30:89:29:fe:3f:
                    82:ed:2b:e0:26:f3:fd:45:d3:35:d8:73:a9:bc:ea:
                    e1:e2:9d:57:9d:19:75:0f:6a:24:d0:e7:7f:a3:be:
                    25:b6:4c:3d:3a:1d:4e:6f:4e:3b:92:af:22:46:5b:
                    26:1d:58:6b:4b:f8:12:31:dc:56:44:55:cd:fb:ca:
                    f1:4f:ed:5a:a2:98:da:2e:29:fd:9a:a8:7c:5a:fb:
                    71:be:ec:f6:e0:32:ed:3d:2d:d8:ce:a9:63:95:95:
                    34:0e:2b:c4:ac:6b:d7:54:2d:e8:d0:ed:b2:30:7d:
                    23:50:43:f7:00:ea:bd:b3:fc:a4:c2:46:20:4f:d8:
                    b0:12:04:4e:d6:ef:9d:23:fb:c0:59:19:34:f7:12:
                    14:13
                Exponent: 65537 (0x10001)
        X509v3 extensions:
            X509v3 Subject Key Identifier: 
                74:4E:D1:2B:75:46:D3:51:EA:C5:FF:DB:07:3A:0A:33:F3:EF:57:22
            X509v3 Authority Key Identifier: 
                keyid:74:4E:D1:2B:75:46:D3:51:EA:C5:FF:DB:07:3A:0A:33:F3:EF:57:22

            X509v3 Basic Constraints: 
                CA:TRUE
    Signature Algorithm: sha256WithRSAEncryption
         97:4e:61:c9:45:b7:c2:24:31:4e:dc:3f:4b:0c:61:7f:ee:fe:
         68:0b:2d:82:d9:2f:08:09:81:48:fc:ec:7a:47:ca:9c:4d:05:
         e1:7d:20:f8:1b:02:af:12:1b:3f:9d:e1:e1:2c:15:cd:ff:32:
         a8:5b:53:b0:ec:70:79:88:55:9f:69:ea:d4:40:f9:03:0b:f6:
         f3:37:3c:8c:21:ea:6b:90:32:4e:01:c7:41:81:96:a6:07:14:
         6c:64:e2:76:4b:c4:fe:64:e3:5c:ac:f7:f0:70:e3:5c:47:95:
         4d:64:44:df:40:c7:5b:42:b9:97:a3:c6:43:ff:a9:a6:7a:c9:
         13:7a:52:cc:c6:a5:34:d1:ed:48:38:ff:96:dd:5f:90:ba:db:
         e8:f1:30:8e:d8:cf:59:df:cf:f2:ff:b3:01:11:cc:1e:52:cf:
         ac:31:b5:d9:03:fd:34:a6:14:c4:9f:fa:d5:d1:1e:ae:4e:41:
         1e:55:20:fa:de:3f:fc:a6:b3:e2:ac:ad:8b:f2:9f:08:6d:31:
         a9:6b:be:3a:ca:44:ca:4e:69:90:4e:85:f6:03:83:bd:c4:f5:
         ea:8e:76:db:b1:72:21:53:ea:f3:a8:b2:83:ad:63:c3:e7:c2:
         59:53:86:91:60:12:81:92:bd:99:ef:f0:a8:25:6a:d3:dd:c8:
         10:37:aa:a7
-----BEGIN CERTIFICATE-----
MIIDpTCCAo2gAwIBAgIJAPs1PiVrvAdlMA0GCSqGSIb3DQEBCwUAMGkxCzAJBgNV
BAYTAlVTMRMwEQYDVQQIDApDYWxpZm9ybmlhMRQwEgYDVQQHDAtTYW50YSBDbGFy
YTENMAsGA1UECgwEcGtnNTEMMAoGA1UEAwwDdGE0MRIwEAYJKoZIhvcNAQkBFgN0
YTQwHhcNMTgwNzAzMTQxNDAyWhcNMjEwMzI5MTQxNDAyWjBpMQswCQYDVQQGEwJV
UzETMBEGA1UECAwKQ2FsaWZvcm5pYTEUMBIGA1UEBwwLU2FudGEgQ2xhcmExDTAL
BgNVBAoMBHBrZzUxDDAKBgNVBAMMA3RhNDESMBAGCSqGSIb3DQEJARYDdGE0MIIB
IjANBgkqhkiG9w0BAQEFAAOCAQ8AMIIBCgKCAQEAwAGJebYh6C7id7er7v63dgPW
QwTIpeVtUM1OTlwqIJyPQ+ISxoXpudorIutYX7o9Iw/Y/Ckju8lxIdPpfkrB6NkQ
tQ2cn3JEunr0mj+SCDoaTwHWxHqIKqn59FxTIEoIXQ7gLWH+CY17wKEcX37tyjbc
MIkp/j+C7SvgJvP9RdM12HOpvOrh4p1XnRl1D2ok0Od/o74ltkw9Oh1Ob047kq8i
RlsmHVhrS/gSMdxWRFXN+8rxT+1aopjaLin9mqh8Wvtxvuz24DLtPS3YzqljlZU0
DivErGvXVC3o0O2yMH0jUEP3AOq9s/ykwkYgT9iwEgRO1u+dI/vAWRk09xIUEwID
AQABo1AwTjAdBgNVHQ4EFgQUdE7RK3VG01Hqxf/bBzoKM/PvVyIwHwYDVR0jBBgw
FoAUdE7RK3VG01Hqxf/bBzoKM/PvVyIwDAYDVR0TBAUwAwEB/zANBgkqhkiG9w0B
AQsFAAOCAQEAl05hyUW3wiQxTtw/Swxhf+7+aAstgtkvCAmBSPzsekfKnE0F4X0g
+BsCrxIbP53h4SwVzf8yqFtTsOxweYhVn2nq1ED5Awv28zc8jCHqa5AyTgHHQYGW
pgcUbGTidkvE/mTjXKz38HDjXEeVTWRE30DHW0K5l6PGQ/+ppnrJE3pSzMalNNHt
SDj/lt1fkLrb6PEwjtjPWd/P8v+zARHMHlLPrDG12QP9NKYUxJ/61dEerk5BHlUg
+t4//Kaz4qyti/KfCG0xqWu+OspEyk5pkE6F9gODvcT16o5227FyIVPq86iyg61j
w+fCWVOGkWASgZK9me/wqCVq093IEDeqpw==
-----END CERTIFICATE-----
