Certificate:
    Data:
        Version: 3 (0x2)
        Serial Number:
            91:09:eb:0b:56:9b:01:c0
    Signature Algorithm: sha256WithRSAEncryption
        Issuer: C=US, ST=California, L=Santa Clara, O=pkg5, CN=ta5/emailAddress=ta5
        Validity
            Not Before: Nov 11 12:38:33 2017 GMT
            Not After : Aug  7 12:38:33 2020 GMT
        Subject: C=US, ST=California, L=Santa Clara, O=pkg5, CN=ta5/emailAddress=ta5
        Subject Public Key Info:
            Public Key Algorithm: rsaEncryption
                Public-Key: (2048 bit)
                Modulus:
                    00:d3:99:11:c8:54:78:df:34:ac:15:7d:95:5f:91:
                    1a:04:9f:c2:bc:54:1b:e4:0f:32:eb:a9:b0:69:19:
                    e9:81:51:0f:08:3a:29:60:4a:de:50:7d:9d:d5:68:
                    6e:44:ea:8b:72:5f:6b:86:22:74:5d:a4:4c:12:05:
                    fd:4b:00:bf:b3:88:3c:5e:44:af:f0:15:b8:d3:84:
                    a5:e2:49:e0:82:43:f2:ed:17:e5:01:63:db:72:7e:
                    a9:2a:ec:ad:88:8c:e2:44:14:0c:b5:f6:c2:49:ae:
                    25:7b:ac:45:ec:15:9e:8b:46:8f:a6:45:d5:1a:75:
                    9b:22:ee:d8:ad:16:f7:7b:fc:ea:b9:e2:69:2d:a1:
                    58:30:42:af:95:54:90:61:d4:78:67:dc:ea:cd:a4:
                    3e:4f:52:d9:1d:37:31:26:1e:ef:43:4a:c8:64:90:
                    35:81:43:b9:53:4c:02:a8:25:b0:26:f8:a0:93:77:
                    18:37:ac:fb:68:47:3f:a5:d5:98:b1:02:c3:7b:39:
                    ab:1b:14:4b:06:52:dc:ca:10:6d:a7:9e:0f:e4:f5:
                    a9:ce:9e:54:58:42:12:8c:f1:0e:b5:35:85:86:2e:
                    95:d9:f9:c5:d5:64:b0:01:3c:d0:a4:81:1e:96:8b:
                    b1:e3:f6:50:90:e2:76:9e:32:73:c3:d0:54:4e:b5:
                    a7:0f
                Exponent: 65537 (0x10001)
        X509v3 extensions:
            X509v3 Subject Key Identifier: 
                07:99:6C:ED:CE:9F:E0:A8:EF:D2:D1:94:94:9E:C2:38:C9:3A:34:03
            X509v3 Authority Key Identifier: 
                keyid:07:99:6C:ED:CE:9F:E0:A8:EF:D2:D1:94:94:9E:C2:38:C9:3A:34:03

            X509v3 Basic Constraints: 
                CA:TRUE
    Signature Algorithm: sha256WithRSAEncryption
         cc:b4:62:5a:24:b5:c3:56:6a:5b:6c:c8:67:12:77:ca:e2:69:
         31:84:64:1f:3f:2c:1e:ca:60:14:30:46:47:da:5b:78:11:05:
         0e:e2:80:1c:f9:6c:0a:08:c1:1a:1f:68:f2:86:74:b4:54:70:
         ce:53:b6:95:24:24:c5:a4:0e:ff:27:18:cd:f3:49:3d:4a:19:
         14:de:56:5c:b9:4f:b1:f5:a8:7f:3b:2d:d1:73:00:bc:ab:c2:
         f5:0e:ba:c3:ab:e1:a4:7b:25:9e:34:44:a5:70:06:3e:a7:93:
         53:d4:e0:b3:3d:a8:1a:64:be:48:95:63:70:22:5b:4a:84:f9:
         5d:ea:9b:86:c7:45:d2:6f:74:d0:c5:df:da:e7:e7:be:b7:56:
         fb:2c:f8:de:8e:1f:d4:e8:3b:07:00:9e:c9:d3:3f:4f:4e:b6:
         8c:f6:f5:a5:5c:28:a9:4f:49:33:85:08:3f:7a:00:79:6e:e4:
         f9:29:8d:e2:69:d5:80:37:15:e2:0b:fa:a3:51:ff:f3:d6:df:
         93:56:f2:f6:f3:5a:45:86:63:ff:3c:ad:91:2d:f1:cc:1e:c6:
         4f:91:29:45:68:97:7f:06:08:75:9d:f4:49:12:4f:2a:9e:d5:
         8c:2e:59:40:72:93:39:6d:89:7c:6a:53:bf:75:57:71:60:7b:
         bb:4e:a8:10
-----BEGIN CERTIFICATE-----
MIIDpTCCAo2gAwIBAgIJAJEJ6wtWmwHAMA0GCSqGSIb3DQEBCwUAMGkxCzAJBgNV
BAYTAlVTMRMwEQYDVQQIDApDYWxpZm9ybmlhMRQwEgYDVQQHDAtTYW50YSBDbGFy
YTENMAsGA1UECgwEcGtnNTEMMAoGA1UEAwwDdGE1MRIwEAYJKoZIhvcNAQkBFgN0
YTUwHhcNMTcxMTExMTIzODMzWhcNMjAwODA3MTIzODMzWjBpMQswCQYDVQQGEwJV
UzETMBEGA1UECAwKQ2FsaWZvcm5pYTEUMBIGA1UEBwwLU2FudGEgQ2xhcmExDTAL
BgNVBAoMBHBrZzUxDDAKBgNVBAMMA3RhNTESMBAGCSqGSIb3DQEJARYDdGE1MIIB
IjANBgkqhkiG9w0BAQEFAAOCAQ8AMIIBCgKCAQEA05kRyFR43zSsFX2VX5EaBJ/C
vFQb5A8y66mwaRnpgVEPCDopYEreUH2d1WhuROqLcl9rhiJ0XaRMEgX9SwC/s4g8
XkSv8BW404Sl4knggkPy7RflAWPbcn6pKuytiIziRBQMtfbCSa4le6xF7BWei0aP
pkXVGnWbIu7YrRb3e/zqueJpLaFYMEKvlVSQYdR4Z9zqzaQ+T1LZHTcxJh7vQ0rI
ZJA1gUO5U0wCqCWwJvigk3cYN6z7aEc/pdWYsQLDezmrGxRLBlLcyhBtp54P5PWp
zp5UWEISjPEOtTWFhi6V2fnF1WSwATzQpIEeloux4/ZQkOJ2njJzw9BUTrWnDwID
AQABo1AwTjAdBgNVHQ4EFgQUB5ls7c6f4Kjv0tGUlJ7COMk6NAMwHwYDVR0jBBgw
FoAUB5ls7c6f4Kjv0tGUlJ7COMk6NAMwDAYDVR0TBAUwAwEB/zANBgkqhkiG9w0B
AQsFAAOCAQEAzLRiWiS1w1ZqW2zIZxJ3yuJpMYRkHz8sHspgFDBGR9pbeBEFDuKA
HPlsCgjBGh9o8oZ0tFRwzlO2lSQkxaQO/ycYzfNJPUoZFN5WXLlPsfWofzst0XMA
vKvC9Q66w6vhpHslnjREpXAGPqeTU9Tgsz2oGmS+SJVjcCJbSoT5XeqbhsdF0m90
0MXf2ufnvrdW+yz43o4f1Og7BwCeydM/T062jPb1pVwoqU9JM4UIP3oAeW7k+SmN
4mnVgDcV4gv6o1H/89bfk1by9vNaRYZj/zytkS3xzB7GT5EpRWiXfwYIdZ30SRJP
Kp7VjC5ZQHKTOW2JfGpTv3VXcWB7u06oEA==
-----END CERTIFICATE-----
