Certificate:
    Data:
        Version: 3 (0x2)
        Serial Number:
            9e:52:ee:b4:c9:a2:54:47
    Signature Algorithm: sha256WithRSAEncryption
        Issuer: C=US, ST=California, L=Santa Clara, O=pkg5, CN=ta5/emailAddress=ta5
        Validity
            Not Before: Jul  3 14:14:03 2018 GMT
            Not After : Mar 29 14:14:03 2021 GMT
        Subject: C=US, ST=California, L=Santa Clara, O=pkg5, CN=ta5/emailAddress=ta5
        Subject Public Key Info:
            Public Key Algorithm: rsaEncryption
                Public-Key: (2048 bit)
                Modulus:
                    00:98:67:37:07:2c:8b:7a:8f:6a:d6:44:73:30:9c:
                    86:eb:72:4d:54:f8:17:17:7c:94:8a:80:04:3f:a7:
                    65:e6:14:f1:65:c7:e7:40:b1:27:e0:a4:ee:9d:8d:
                    79:82:a3:24:02:74:59:13:d5:ce:58:be:52:d1:19:
                    e2:cc:3b:a0:46:53:98:3e:18:b8:a1:b5:4f:2e:2d:
                    a9:45:fc:d1:4b:fe:f1:d4:0c:ed:73:c8:05:1c:d9:
                    28:71:ae:8d:5d:e5:c3:c1:8c:0e:4e:a7:79:32:7c:
                    c9:92:a1:ce:b3:b8:3b:39:39:ad:31:5f:d2:7a:bb:
                    d1:00:62:3d:e5:84:1c:88:8e:6f:03:e2:7c:c3:a1:
                    80:25:ff:dc:f2:83:87:aa:90:f7:a3:a9:4a:3f:17:
                    33:34:e2:00:b9:39:d5:c2:75:3a:4e:74:79:5d:37:
                    98:a3:a5:b1:d9:45:f2:11:44:7f:9c:b8:a9:18:cb:
                    ad:6d:3e:d0:36:b6:8c:82:8f:64:8b:e2:63:96:f7:
                    e0:d7:9e:b8:90:f3:61:c4:ee:fa:9c:99:2d:91:21:
                    12:4f:31:10:0a:99:f6:48:f4:a7:96:dc:b2:cb:44:
                    9c:96:75:5e:1e:a3:00:68:48:63:38:d9:c6:09:36:
                    8d:bb:74:3a:a0:11:18:b9:a6:67:1e:ab:90:c7:e3:
                    57:7f
                Exponent: 65537 (0x10001)
        X509v3 extensions:
            X509v3 Subject Key Identifier: 
                A7:C0:0C:B2:CB:95:1D:84:CB:23:56:48:41:48:10:5A:5F:E8:70:4C
            X509v3 Authority Key Identifier: 
                keyid:A7:C0:0C:B2:CB:95:1D:84:CB:23:56:48:41:48:10:5A:5F:E8:70:4C

            X509v3 Basic Constraints: 
                CA:TRUE
    Signature Algorithm: sha256WithRSAEncryption
         8a:4b:71:35:bd:23:3e:e5:57:31:81:78:ae:35:57:dd:65:f5:
         4a:d8:5e:67:51:14:78:eb:28:bd:90:9c:64:96:f0:d4:dd:f1:
         a4:b0:64:57:1e:c4:95:80:77:28:78:77:64:3e:d9:46:4d:dc:
         0e:4f:5e:e7:c2:24:cf:61:cf:14:23:40:fa:a9:2b:69:25:c9:
         11:5a:b9:b1:62:69:12:5a:d2:ad:07:84:06:de:7a:59:93:6d:
         03:a6:4b:a4:33:be:72:51:1b:5c:96:ad:6c:fe:48:3c:28:0d:
         de:ea:26:7a:63:46:73:12:12:d0:88:07:67:8f:f4:e6:f8:86:
         63:40:3f:70:ba:08:3b:16:35:c8:b5:8d:66:0c:32:a0:6a:42:
         c4:3f:22:95:c5:e0:53:3e:c2:c4:fc:ad:04:64:7b:6b:06:a9:
         67:87:68:a4:7b:bd:89:53:d0:85:fb:e5:47:a4:d3:94:26:d4:
         97:c5:20:f3:75:5b:31:ac:e8:89:5d:3d:b3:48:cb:38:b5:4a:
         ea:4a:bd:11:a6:7e:ff:f2:cb:0a:93:2e:f1:39:ed:9e:e7:c3:
         2b:8f:10:13:8f:b5:05:43:36:a9:29:81:a9:79:5f:04:b1:c8:
         83:24:3d:18:8c:0b:65:4e:55:7c:18:76:23:2e:5d:d4:30:03:
         f0:99:16:cb
-----BEGIN CERTIFICATE-----
MIIDpTCCAo2gAwIBAgIJAJ5S7rTJolRHMA0GCSqGSIb3DQEBCwUAMGkxCzAJBgNV
BAYTAlVTMRMwEQYDVQQIDApDYWxpZm9ybmlhMRQwEgYDVQQHDAtTYW50YSBDbGFy
YTENMAsGA1UECgwEcGtnNTEMMAoGA1UEAwwDdGE1MRIwEAYJKoZIhvcNAQkBFgN0
YTUwHhcNMTgwNzAzMTQxNDAzWhcNMjEwMzI5MTQxNDAzWjBpMQswCQYDVQQGEwJV
UzETMBEGA1UECAwKQ2FsaWZvcm5pYTEUMBIGA1UEBwwLU2FudGEgQ2xhcmExDTAL
BgNVBAoMBHBrZzUxDDAKBgNVBAMMA3RhNTESMBAGCSqGSIb3DQEJARYDdGE1MIIB
IjANBgkqhkiG9w0BAQEFAAOCAQ8AMIIBCgKCAQEAmGc3ByyLeo9q1kRzMJyG63JN
VPgXF3yUioAEP6dl5hTxZcfnQLEn4KTunY15gqMkAnRZE9XOWL5S0RnizDugRlOY
Phi4obVPLi2pRfzRS/7x1Aztc8gFHNkoca6NXeXDwYwOTqd5MnzJkqHOs7g7OTmt
MV/ServRAGI95YQciI5vA+J8w6GAJf/c8oOHqpD3o6lKPxczNOIAuTnVwnU6TnR5
XTeYo6Wx2UXyEUR/nLipGMutbT7QNraMgo9ki+Jjlvfg1564kPNhxO76nJktkSES
TzEQCpn2SPSnltyyy0SclnVeHqMAaEhjONnGCTaNu3Q6oBEYuaZnHquQx+NXfwID
AQABo1AwTjAdBgNVHQ4EFgQUp8AMssuVHYTLI1ZIQUgQWl/ocEwwHwYDVR0jBBgw
FoAUp8AMssuVHYTLI1ZIQUgQWl/ocEwwDAYDVR0TBAUwAwEB/zANBgkqhkiG9w0B
AQsFAAOCAQEAiktxNb0jPuVXMYF4rjVX3WX1StheZ1EUeOsovZCcZJbw1N3xpLBk
Vx7ElYB3KHh3ZD7ZRk3cDk9e58Ikz2HPFCNA+qkraSXJEVq5sWJpElrSrQeEBt56
WZNtA6ZLpDO+clEbXJatbP5IPCgN3uomemNGcxIS0IgHZ4/05viGY0A/cLoIOxY1
yLWNZgwyoGpCxD8ilcXgUz7CxPytBGR7awapZ4dopHu9iVPQhfvlR6TTlCbUl8Ug
83VbMazoiV09s0jLOLVK6kq9EaZ+//LLCpMu8TntnufDK48QE4+1BUM2qSmBqXlf
BLHIgyQ9GIwLZU5VfBh2Iy5d1DAD8JkWyw==
-----END CERTIFICATE-----
