Certificate:
    Data:
        Version: 3 (0x2)
        Serial Number:
            ef:5d:87:4d:88:be:cd:fe
    Signature Algorithm: sha256WithRSAEncryption
        Issuer: C=US, ST=California, L=Santa Clara, O=pkg5, OU=ta6, CN=localhost/emailAddress=ta6
        Validity
            Not Before: Nov 11 12:38:34 2017 GMT
            Not After : Aug  7 12:38:34 2020 GMT
        Subject: C=US, ST=California, L=Santa Clara, O=pkg5, OU=ta6, CN=localhost/emailAddress=ta6
        Subject Public Key Info:
            Public Key Algorithm: rsaEncryption
                Public-Key: (2048 bit)
                Modulus:
                    00:b6:2b:65:25:5d:cd:1e:04:cf:04:62:40:8e:f9:
                    cd:33:75:26:91:17:e6:62:6d:a2:93:95:31:ae:6b:
                    af:99:d3:45:3a:be:52:fb:48:50:82:e8:28:02:dc:
                    d2:c2:94:0c:f5:7d:60:d4:ab:2a:ed:e9:28:35:84:
                    de:e9:af:4c:9a:c9:65:09:ef:5f:de:15:a1:d6:9b:
                    d3:eb:87:d4:6e:e2:56:2e:ad:84:67:b5:2b:b4:62:
                    66:70:79:7e:64:f0:17:50:51:48:98:9f:8b:ff:43:
                    d4:4b:d2:f8:8f:2c:6b:57:17:48:e7:db:11:f5:0f:
                    ac:9a:33:f9:71:fa:fc:80:86:c5:cd:74:52:7d:2f:
                    a2:e8:3b:59:64:19:97:6c:e6:e2:31:00:b8:a2:72:
                    8f:c1:76:d2:bc:93:f9:d8:d1:d3:bc:87:f3:62:9c:
                    c4:b9:92:12:f5:60:37:74:b8:90:87:a2:af:4f:e4:
                    66:ef:29:4f:f1:a5:cb:19:7a:74:2e:91:a6:2c:59:
                    a5:e9:93:37:b2:6b:e0:03:2d:45:2e:60:06:6b:99:
                    66:e3:79:d3:50:8b:3a:2c:aa:1d:ba:8e:04:f9:92:
                    7a:e8:e1:98:c5:11:b8:a2:f4:7e:8e:98:a6:8a:b4:
                    e6:54:3a:1c:0a:74:b2:8b:e7:b5:26:a6:1d:56:b0:
                    ae:0f
                Exponent: 65537 (0x10001)
        X509v3 extensions:
            X509v3 Subject Key Identifier: 
                D1:87:1D:B2:30:1A:E7:E4:E3:7C:FE:79:5A:82:D7:EA:CF:C9:58:C9
            X509v3 Authority Key Identifier: 
                keyid:D1:87:1D:B2:30:1A:E7:E4:E3:7C:FE:79:5A:82:D7:EA:CF:C9:58:C9

            X509v3 Basic Constraints: 
                CA:TRUE
    Signature Algorithm: sha256WithRSAEncryption
         29:b3:49:c2:2d:02:ac:d1:cd:23:5f:23:f0:f3:9d:4a:0b:a1:
         81:39:f8:96:96:17:c1:e2:3f:46:b8:44:df:3e:08:68:a1:66:
         2e:ff:56:b1:a3:df:cf:0f:84:35:5c:53:3f:2d:b2:f7:92:71:
         b7:a8:b8:08:38:86:53:c2:ae:2a:dd:8b:ed:28:ee:0b:e8:4c:
         00:15:cb:82:d7:75:b5:b6:17:68:c6:88:f7:33:2b:ed:58:b3:
         56:20:a6:9c:af:c0:14:a6:6e:79:7f:db:d8:da:55:52:47:7d:
         21:8e:c8:6e:27:1c:71:06:c5:64:65:9a:1b:ea:91:4f:b1:fd:
         ba:11:91:d9:ee:75:36:de:82:ee:15:18:05:7d:41:28:d8:65:
         3c:91:76:01:b0:53:ba:55:85:f7:f6:d0:8f:39:db:a6:66:84:
         b1:3a:65:20:b4:96:81:a3:06:ae:36:21:84:05:57:d1:a1:6b:
         b0:8a:9c:51:22:47:0f:2f:cb:9c:3e:b5:65:ca:72:5b:56:69:
         bf:30:95:f1:18:9e:b0:6d:48:8d:3f:5d:08:7b:2f:28:30:f5:
         d6:32:4d:0d:b8:5c:56:c3:06:08:50:08:b3:48:3c:60:c5:db:
         ac:7c:01:9a:84:7b:5e:ae:41:06:51:72:a2:eb:12:38:90:cb:
         42:a1:91:65
-----BEGIN CERTIFICATE-----
MIIDzTCCArWgAwIBAgIJAO9dh02Ivs3+MA0GCSqGSIb3DQEBCwUAMH0xCzAJBgNV
BAYTAlVTMRMwEQYDVQQIDApDYWxpZm9ybmlhMRQwEgYDVQQHDAtTYW50YSBDbGFy
YTENMAsGA1UECgwEcGtnNTEMMAoGA1UECwwDdGE2MRIwEAYDVQQDDAlsb2NhbGhv
c3QxEjAQBgkqhkiG9w0BCQEWA3RhNjAeFw0xNzExMTExMjM4MzRaFw0yMDA4MDcx
MjM4MzRaMH0xCzAJBgNVBAYTAlVTMRMwEQYDVQQIDApDYWxpZm9ybmlhMRQwEgYD
VQQHDAtTYW50YSBDbGFyYTENMAsGA1UECgwEcGtnNTEMMAoGA1UECwwDdGE2MRIw
EAYDVQQDDAlsb2NhbGhvc3QxEjAQBgkqhkiG9w0BCQEWA3RhNjCCASIwDQYJKoZI
hvcNAQEBBQADggEPADCCAQoCggEBALYrZSVdzR4EzwRiQI75zTN1JpEX5mJtopOV
Ma5rr5nTRTq+UvtIUILoKALc0sKUDPV9YNSrKu3pKDWE3umvTJrJZQnvX94Vodab
0+uH1G7iVi6thGe1K7RiZnB5fmTwF1BRSJifi/9D1EvS+I8sa1cXSOfbEfUPrJoz
+XH6/ICGxc10Un0voug7WWQZl2zm4jEAuKJyj8F20ryT+djR07yH82KcxLmSEvVg
N3S4kIeir0/kZu8pT/Glyxl6dC6RpixZpemTN7Jr4AMtRS5gBmuZZuN501CLOiyq
HbqOBPmSeujhmMURuKL0fo6Ypoq05lQ6HAp0sovntSamHVawrg8CAwEAAaNQME4w
HQYDVR0OBBYEFNGHHbIwGufk43z+eVqC1+rPyVjJMB8GA1UdIwQYMBaAFNGHHbIw
Gufk43z+eVqC1+rPyVjJMAwGA1UdEwQFMAMBAf8wDQYJKoZIhvcNAQELBQADggEB
ACmzScItAqzRzSNfI/DznUoLoYE5+JaWF8HiP0a4RN8+CGihZi7/VrGj388PhDVc
Uz8tsveScbeouAg4hlPCrirdi+0o7gvoTAAVy4LXdbW2F2jGiPczK+1Ys1Ygppyv
wBSmbnl/29jaVVJHfSGOyG4nHHEGxWRlmhvqkU+x/boRkdnudTbegu4VGAV9QSjY
ZTyRdgGwU7pVhff20I8526ZmhLE6ZSC0loGjBq42IYQFV9Gha7CKnFEiRw8vy5w+
tWXKcltWab8wlfEYnrBtSI0/XQh7Lygw9dYyTQ24XFbDBghQCLNIPGDF26x8AZqE
e16uQQZRcqLrEjiQy0KhkWU=
-----END CERTIFICATE-----
