Certificate:
    Data:
        Version: 3 (0x2)
        Serial Number:
            82:4f:e0:b1:bd:7f:a3:14
    Signature Algorithm: sha256WithRSAEncryption
        Issuer: C=US, ST=California, L=Santa Clara, O=pkg5, OU=ta7, CN=localhost/emailAddress=ta7
        Validity
            Not Before: Nov 24 01:22:44 2021 GMT
            Not After : Aug 20 01:22:44 2024 GMT
        Subject: C=US, ST=California, L=Santa Clara, O=pkg5, OU=ta7, CN=localhost/emailAddress=ta7
        Subject Public Key Info:
            Public Key Algorithm: rsaEncryption
                Public-Key: (2048 bit)
                Modulus:
                    00:cd:27:0c:27:a9:19:0c:be:8c:cd:8e:96:63:ce:
                    28:a4:19:1e:4d:69:67:9b:6c:1c:c0:4a:a1:b8:cb:
                    76:c5:55:06:51:48:32:d3:22:f5:47:b9:a1:a5:40:
                    33:c6:ab:a5:45:1e:e6:4e:33:03:94:0f:d7:96:fb:
                    78:33:9e:ed:f8:ea:b7:b2:3e:58:92:1b:7d:85:4a:
                    8e:35:9e:52:9e:63:a9:9c:4a:9a:45:f6:14:92:aa:
                    8d:5a:93:36:67:ac:16:c0:3c:d3:d7:42:03:d4:67:
                    01:b3:8c:34:8d:36:e3:c6:eb:93:bd:15:9b:86:10:
                    bf:95:ad:48:c3:d3:22:4f:b0:6c:d3:f2:c6:88:54:
                    d2:e0:ab:ed:3c:44:5c:17:5d:1b:55:9d:f9:45:48:
                    10:d9:76:c8:39:ec:4d:2f:54:0c:39:08:25:4e:08:
                    90:d2:a7:90:4d:32:6a:90:54:a6:08:7e:43:b6:51:
                    46:b3:ff:da:37:15:44:3f:ad:55:67:3f:14:72:55:
                    67:a6:90:af:2e:a7:f1:50:95:a0:32:76:7e:ad:17:
                    dc:04:bb:a8:ef:f3:cb:77:0c:37:cf:b6:7a:5d:8b:
                    dc:e9:73:82:67:92:7d:e7:1a:db:57:de:2a:33:60:
                    02:98:0a:63:8f:d5:7d:d0:29:4e:84:88:5d:6b:d0:
                    63:3f
                Exponent: 65537 (0x10001)
        X509v3 extensions:
            X509v3 Subject Key Identifier: 
                AD:43:93:9E:4D:3E:3B:84:82:69:53:82:D3:1E:4D:F7:D5:D6:10:0E
            X509v3 Authority Key Identifier: 
                keyid:AD:43:93:9E:4D:3E:3B:84:82:69:53:82:D3:1E:4D:F7:D5:D6:10:0E

            X509v3 Basic Constraints: 
                CA:TRUE
    Signature Algorithm: sha256WithRSAEncryption
         c1:ba:48:d8:24:bd:00:04:d8:b7:eb:41:12:42:35:a4:0c:99:
         7b:db:69:a1:46:0d:4d:4f:24:f9:f7:78:cc:d9:4a:a7:5d:be:
         b1:1f:dc:12:c7:9c:73:e4:f6:3d:05:99:7e:48:be:f9:36:20:
         79:a0:09:de:28:0b:aa:5d:79:8e:27:4f:22:a3:1e:83:f4:27:
         a4:54:70:48:77:a4:0a:85:44:fd:78:7a:52:02:27:6e:77:99:
         ea:5c:59:f5:47:8f:ff:ff:07:b0:5a:dd:ec:e9:6d:dd:c7:d8:
         2e:0d:db:cc:b9:7b:82:bf:6e:10:7e:96:fb:bc:1f:71:6e:96:
         0d:e7:d8:cc:c0:20:c7:32:b9:7b:1d:7f:ed:e4:ba:a4:c4:ba:
         c2:e4:12:0c:3f:f4:24:60:b6:91:71:36:98:67:e5:83:bf:81:
         80:54:6c:75:ca:f4:5d:f2:6d:fe:e5:85:f4:bf:b6:bd:17:75:
         fe:35:fe:c0:d1:d2:50:d9:78:bd:f2:08:85:b2:87:07:3f:01:
         a6:13:31:1e:9e:a8:1a:76:27:3d:1d:08:c1:ec:8c:e9:62:cb:
         f5:68:18:9e:38:e6:90:fe:c0:44:ce:9d:3a:b3:d7:8f:e0:4f:
         a6:86:07:91:de:83:7b:eb:07:f4:47:b7:db:2e:cf:1c:64:91:
         57:d5:83:f9
-----BEGIN CERTIFICATE-----
MIIDzTCCArWgAwIBAgIJAIJP4LG9f6MUMA0GCSqGSIb3DQEBCwUAMH0xCzAJBgNV
BAYTAlVTMRMwEQYDVQQIDApDYWxpZm9ybmlhMRQwEgYDVQQHDAtTYW50YSBDbGFy
YTENMAsGA1UECgwEcGtnNTEMMAoGA1UECwwDdGE3MRIwEAYDVQQDDAlsb2NhbGhv
c3QxEjAQBgkqhkiG9w0BCQEWA3RhNzAeFw0yMTExMjQwMTIyNDRaFw0yNDA4MjAw
MTIyNDRaMH0xCzAJBgNVBAYTAlVTMRMwEQYDVQQIDApDYWxpZm9ybmlhMRQwEgYD
VQQHDAtTYW50YSBDbGFyYTENMAsGA1UECgwEcGtnNTEMMAoGA1UECwwDdGE3MRIw
EAYDVQQDDAlsb2NhbGhvc3QxEjAQBgkqhkiG9w0BCQEWA3RhNzCCASIwDQYJKoZI
hvcNAQEBBQADggEPADCCAQoCggEBAM0nDCepGQy+jM2OlmPOKKQZHk1pZ5tsHMBK
objLdsVVBlFIMtMi9Ue5oaVAM8arpUUe5k4zA5QP15b7eDOe7fjqt7I+WJIbfYVK
jjWeUp5jqZxKmkX2FJKqjVqTNmesFsA809dCA9RnAbOMNI0248brk70Vm4YQv5Wt
SMPTIk+wbNPyxohU0uCr7TxEXBddG1Wd+UVIENl2yDnsTS9UDDkIJU4IkNKnkE0y
apBUpgh+Q7ZRRrP/2jcVRD+tVWc/FHJVZ6aQry6n8VCVoDJ2fq0X3AS7qO/zy3cM
N8+2el2L3OlzgmeSfeca21feKjNgApgKY4/VfdApToSIXWvQYz8CAwEAAaNQME4w
HQYDVR0OBBYEFK1Dk55NPjuEgmlTgtMeTffV1hAOMB8GA1UdIwQYMBaAFK1Dk55N
PjuEgmlTgtMeTffV1hAOMAwGA1UdEwQFMAMBAf8wDQYJKoZIhvcNAQELBQADggEB
AMG6SNgkvQAE2LfrQRJCNaQMmXvbaaFGDU1PJPn3eMzZSqddvrEf3BLHnHPk9j0F
mX5Ivvk2IHmgCd4oC6pdeY4nTyKjHoP0J6RUcEh3pAqFRP14elICJ253mepcWfVH
j///B7Ba3ezpbd3H2C4N28y5e4K/bhB+lvu8H3Fulg3n2MzAIMcyuXsdf+3kuqTE
usLkEgw/9CRgtpFxNphn5YO/gYBUbHXK9F3ybf7lhfS/tr0Xdf41/sDR0lDZeL3y
CIWyhwc/AaYTMR6eqBp2Jz0dCMHsjOliy/VoGJ445pD+wETOnTqz14/gT6aGB5He
g3vrB/RHt9suzxxkkVfVg/k=
-----END CERTIFICATE-----
