Certificate:
    Data:
        Version: 3 (0x2)
        Serial Number:
            c7:87:3f:1d:e8:c6:b2:23
    Signature Algorithm: sha256WithRSAEncryption
        Issuer: C=US, ST=California, L=Santa Clara, O=pkg5, OU=ta8, CN=localhost/emailAddress=ta8
        Validity
            Not Before: Nov 24 01:22:44 2021 GMT
            Not After : Aug 20 01:22:44 2024 GMT
        Subject: C=US, ST=California, L=Santa Clara, O=pkg5, OU=ta8, CN=localhost/emailAddress=ta8
        Subject Public Key Info:
            Public Key Algorithm: rsaEncryption
                Public-Key: (2048 bit)
                Modulus:
                    00:9f:c1:c1:2e:a9:a5:1c:3d:36:be:64:82:9a:1a:
                    42:2b:5c:7f:47:d6:61:ff:64:ee:93:f2:2f:df:87:
                    3f:d8:94:3d:1e:7e:ce:ff:ab:89:f4:76:9c:da:31:
                    cc:e3:2b:5e:d2:45:ba:b1:0c:55:6f:82:5b:e0:92:
                    4f:5e:ab:87:35:fb:b3:7e:5c:f1:5e:83:87:26:e7:
                    eb:36:84:9e:fe:fb:e8:ae:44:47:26:c0:eb:5f:15:
                    71:de:17:ab:1b:16:c5:17:c8:0a:e8:d8:30:a3:c5:
                    a4:33:a3:45:0e:39:00:10:04:3e:02:8e:1b:11:d8:
                    bd:af:7b:fc:6f:3a:ba:0a:3f:5a:a0:9e:26:59:96:
                    51:b9:5f:f2:02:1c:92:ff:c7:81:1c:b0:18:58:91:
                    cf:a7:d6:45:85:ba:ae:c3:7f:c7:b7:6a:78:e4:f9:
                    37:c0:a1:e8:41:ce:c3:92:39:21:1b:ed:30:9d:aa:
                    66:65:a9:a0:be:88:3f:d0:47:da:f7:b0:37:8a:63:
                    f6:de:03:ea:62:3e:72:32:95:d0:34:51:a3:98:51:
                    0f:d4:87:5e:f7:ce:0a:2a:d0:6e:7b:82:13:16:06:
                    4a:97:09:89:47:24:55:58:ac:dc:14:26:bd:6b:21:
                    61:d9:7d:78:61:83:cb:e9:69:63:d6:00:cc:b9:e0:
                    62:09
                Exponent: 65537 (0x10001)
        X509v3 extensions:
            X509v3 Subject Key Identifier: 
                CE:6D:34:84:E3:1A:22:90:83:7A:0F:FB:20:67:A3:AC:07:21:B1:9D
            X509v3 Authority Key Identifier: 
                keyid:CE:6D:34:84:E3:1A:22:90:83:7A:0F:FB:20:67:A3:AC:07:21:B1:9D

            X509v3 Basic Constraints: 
                CA:TRUE
    Signature Algorithm: sha256WithRSAEncryption
         5d:5d:9d:e3:a5:c3:49:0a:95:94:86:60:f3:d2:61:ef:ee:20:
         4e:6a:db:55:a0:c9:10:b2:0a:c0:d9:3b:7b:c8:1c:57:d1:d2:
         86:46:06:72:da:5f:d2:2b:7d:03:17:48:fe:99:03:ff:a6:57:
         5f:52:ff:84:a4:da:39:f6:5e:b8:6a:4b:5c:f1:ac:38:7c:0e:
         4b:2e:4d:70:62:13:d8:cc:cc:6b:bc:19:9e:23:6b:89:0a:03:
         a1:e4:5e:f6:9c:38:3c:af:41:ee:fe:ee:97:ec:ac:42:92:97:
         28:e0:b4:27:3e:af:d0:53:de:5d:0d:7b:d5:a9:bb:36:fb:40:
         d3:7f:c6:c5:0a:5c:6a:21:60:54:9a:fa:a8:1c:ad:1d:52:3c:
         e1:dc:0c:3e:4b:3a:69:49:ad:ed:db:07:07:e5:b9:f5:dd:0c:
         72:8a:9b:1b:61:99:93:93:93:16:5b:bf:63:b6:43:16:47:b3:
         26:77:83:3c:3a:eb:f6:70:dd:f4:45:bf:a9:77:a5:95:be:e9:
         f0:52:ac:61:2b:4c:a4:cd:d7:d2:63:87:14:27:a0:fb:4c:06:
         57:ca:5a:4e:d1:51:cb:be:fe:71:f5:b7:5b:64:16:23:00:f4:
         4e:92:96:ec:66:71:75:28:09:ac:26:50:94:74:3e:d2:40:74:
         e5:61:b4:71
-----BEGIN CERTIFICATE-----
MIIDzTCCArWgAwIBAgIJAMeHPx3oxrIjMA0GCSqGSIb3DQEBCwUAMH0xCzAJBgNV
BAYTAlVTMRMwEQYDVQQIDApDYWxpZm9ybmlhMRQwEgYDVQQHDAtTYW50YSBDbGFy
YTENMAsGA1UECgwEcGtnNTEMMAoGA1UECwwDdGE4MRIwEAYDVQQDDAlsb2NhbGhv
c3QxEjAQBgkqhkiG9w0BCQEWA3RhODAeFw0yMTExMjQwMTIyNDRaFw0yNDA4MjAw
MTIyNDRaMH0xCzAJBgNVBAYTAlVTMRMwEQYDVQQIDApDYWxpZm9ybmlhMRQwEgYD
VQQHDAtTYW50YSBDbGFyYTENMAsGA1UECgwEcGtnNTEMMAoGA1UECwwDdGE4MRIw
EAYDVQQDDAlsb2NhbGhvc3QxEjAQBgkqhkiG9w0BCQEWA3RhODCCASIwDQYJKoZI
hvcNAQEBBQADggEPADCCAQoCggEBAJ/BwS6ppRw9Nr5kgpoaQitcf0fWYf9k7pPy
L9+HP9iUPR5+zv+rifR2nNoxzOMrXtJFurEMVW+CW+CST16rhzX7s35c8V6Dhybn
6zaEnv776K5ERybA618Vcd4XqxsWxRfICujYMKPFpDOjRQ45ABAEPgKOGxHYva97
/G86ugo/WqCeJlmWUblf8gIckv/HgRywGFiRz6fWRYW6rsN/x7dqeOT5N8Ch6EHO
w5I5IRvtMJ2qZmWpoL6IP9BH2vewN4pj9t4D6mI+cjKV0DRRo5hRD9SHXvfOCirQ
bnuCExYGSpcJiUckVVis3BQmvWshYdl9eGGDy+lpY9YAzLngYgkCAwEAAaNQME4w
HQYDVR0OBBYEFM5tNITjGiKQg3oP+yBno6wHIbGdMB8GA1UdIwQYMBaAFM5tNITj
GiKQg3oP+yBno6wHIbGdMAwGA1UdEwQFMAMBAf8wDQYJKoZIhvcNAQELBQADggEB
AF1dneOlw0kKlZSGYPPSYe/uIE5q21WgyRCyCsDZO3vIHFfR0oZGBnLaX9IrfQMX
SP6ZA/+mV19S/4Sk2jn2XrhqS1zxrDh8DksuTXBiE9jMzGu8GZ4ja4kKA6HkXvac
ODyvQe7+7pfsrEKSlyjgtCc+r9BT3l0Ne9Wpuzb7QNN/xsUKXGohYFSa+qgcrR1S
POHcDD5LOmlJre3bBwflufXdDHKKmxthmZOTkxZbv2O2QxZHsyZ3gzw66/Zw3fRF
v6l3pZW+6fBSrGErTKTN19JjhxQnoPtMBlfKWk7RUcu+/nH1t1tkFiMA9E6Sluxm
cXUoCawmUJR0PtJAdOVhtHE=
-----END CERTIFICATE-----
