Certificate:
    Data:
        Version: 3 (0x2)
        Serial Number:
            a7:b5:2f:13:ae:57:92:9c
    Signature Algorithm: sha256WithRSAEncryption
        Issuer: C=US, ST=California, L=Santa Clara, O=pkg5, OU=ta8, CN=localhost/emailAddress=ta8
        Validity
            Not Before: Nov 11 12:38:34 2017 GMT
            Not After : Aug  7 12:38:34 2020 GMT
        Subject: C=US, ST=California, L=Santa Clara, O=pkg5, OU=ta8, CN=localhost/emailAddress=ta8
        Subject Public Key Info:
            Public Key Algorithm: rsaEncryption
                Public-Key: (2048 bit)
                Modulus:
                    00:d1:02:2e:3a:04:bc:92:fa:fe:1e:81:5d:36:a4:
                    ca:7b:37:ab:f0:80:7f:60:4e:a6:f6:45:00:3f:1e:
                    57:da:4b:bc:9c:65:92:86:f5:71:18:ee:66:8f:a0:
                    95:29:45:01:ed:dc:6b:51:1e:a7:82:69:4b:0b:63:
                    1f:76:f6:cd:6e:d8:e8:46:74:4f:89:d5:57:29:f2:
                    f8:c3:9e:11:32:66:83:ef:e7:91:15:ac:27:79:09:
                    75:f9:16:8b:77:0b:46:c5:de:c6:7e:77:cc:9b:86:
                    57:72:17:dc:53:9a:d9:18:e3:c8:cd:d9:b1:b7:4e:
                    9a:b6:fe:e7:93:76:26:04:45:1d:9b:3b:35:f5:3f:
                    c6:f5:2b:4e:0e:5b:68:79:5c:00:1c:85:1f:3d:b0:
                    93:fb:a9:03:c2:7e:3b:a7:75:42:72:35:a6:0f:de:
                    ce:6d:db:11:25:7f:b0:8f:68:76:31:41:cc:dc:93:
                    62:dc:1c:80:67:f6:1d:6e:d5:44:7b:f8:cb:e8:cd:
                    52:27:08:8d:96:8b:8a:32:14:91:cc:a4:b9:35:5c:
                    9a:e6:cc:95:bf:e3:b1:b0:b8:11:4a:57:0f:88:42:
                    5a:bc:d9:2b:66:9a:a4:73:26:41:b1:c3:20:52:42:
                    e0:8d:ea:ed:b5:d5:42:71:10:bb:f7:9c:06:4e:72:
                    c5:e7
                Exponent: 65537 (0x10001)
        X509v3 extensions:
            X509v3 Subject Key Identifier: 
                EB:D1:06:90:D7:1D:02:60:D2:BD:C1:1E:18:27:51:A5:81:A1:41:D0
            X509v3 Authority Key Identifier: 
                keyid:EB:D1:06:90:D7:1D:02:60:D2:BD:C1:1E:18:27:51:A5:81:A1:41:D0

            X509v3 Basic Constraints: 
                CA:TRUE
    Signature Algorithm: sha256WithRSAEncryption
         69:55:be:59:f8:70:11:ae:e1:18:03:4a:7f:e3:55:d5:80:da:
         2f:9f:94:98:7e:80:11:d0:ad:b3:4f:34:0e:17:11:30:a6:af:
         09:4d:b0:85:3b:13:8c:50:dd:a3:aa:3d:93:7c:b0:f3:21:54:
         a8:46:b9:f9:74:86:97:74:4c:60:22:4c:eb:b6:43:ad:c9:a0:
         61:0e:df:14:7a:36:b2:4c:aa:b8:71:84:fa:0e:0a:61:dd:31:
         d3:88:7a:d8:cb:53:c3:5b:c7:f7:cb:c2:cc:96:bb:ca:e4:9c:
         c1:7a:45:08:0a:d4:bc:7c:3a:d4:45:21:18:93:46:f7:0a:84:
         2b:4e:a8:a7:74:34:0e:25:e2:1b:e7:15:a3:f4:e6:4d:35:86:
         84:8c:8b:c8:4c:09:d9:b8:82:b3:0d:3e:20:30:0f:0a:e8:74:
         75:1b:0f:10:d1:fc:bf:13:fb:9a:4f:36:cf:ba:9e:9c:a9:04:
         b7:bc:dd:82:bc:e6:28:42:99:7a:ec:62:1a:f0:0a:9d:02:09:
         85:c4:cc:7a:c8:2c:95:a8:0a:64:e3:28:77:6e:c6:04:4c:6a:
         0e:f4:64:ca:1c:bd:a2:1d:21:93:e9:63:6d:02:dc:4d:a8:dd:
         c8:36:18:9c:62:21:2a:0b:32:c3:2f:f1:29:c4:1d:5f:57:7e:
         65:c0:92:2e
-----BEGIN CERTIFICATE-----
MIIDzTCCArWgAwIBAgIJAKe1LxOuV5KcMA0GCSqGSIb3DQEBCwUAMH0xCzAJBgNV
BAYTAlVTMRMwEQYDVQQIDApDYWxpZm9ybmlhMRQwEgYDVQQHDAtTYW50YSBDbGFy
YTENMAsGA1UECgwEcGtnNTEMMAoGA1UECwwDdGE4MRIwEAYDVQQDDAlsb2NhbGhv
c3QxEjAQBgkqhkiG9w0BCQEWA3RhODAeFw0xNzExMTExMjM4MzRaFw0yMDA4MDcx
MjM4MzRaMH0xCzAJBgNVBAYTAlVTMRMwEQYDVQQIDApDYWxpZm9ybmlhMRQwEgYD
VQQHDAtTYW50YSBDbGFyYTENMAsGA1UECgwEcGtnNTEMMAoGA1UECwwDdGE4MRIw
EAYDVQQDDAlsb2NhbGhvc3QxEjAQBgkqhkiG9w0BCQEWA3RhODCCASIwDQYJKoZI
hvcNAQEBBQADggEPADCCAQoCggEBANECLjoEvJL6/h6BXTakyns3q/CAf2BOpvZF
AD8eV9pLvJxlkob1cRjuZo+glSlFAe3ca1Eep4JpSwtjH3b2zW7Y6EZ0T4nVVyny
+MOeETJmg+/nkRWsJ3kJdfkWi3cLRsXexn53zJuGV3IX3FOa2RjjyM3ZsbdOmrb+
55N2JgRFHZs7NfU/xvUrTg5baHlcAByFHz2wk/upA8J+O6d1QnI1pg/ezm3bESV/
sI9odjFBzNyTYtwcgGf2HW7VRHv4y+jNUicIjZaLijIUkcykuTVcmubMlb/jsbC4
EUpXD4hCWrzZK2aapHMmQbHDIFJC4I3q7bXVQnEQu/ecBk5yxecCAwEAAaNQME4w
HQYDVR0OBBYEFOvRBpDXHQJg0r3BHhgnUaWBoUHQMB8GA1UdIwQYMBaAFOvRBpDX
HQJg0r3BHhgnUaWBoUHQMAwGA1UdEwQFMAMBAf8wDQYJKoZIhvcNAQELBQADggEB
AGlVvln4cBGu4RgDSn/jVdWA2i+flJh+gBHQrbNPNA4XETCmrwlNsIU7E4xQ3aOq
PZN8sPMhVKhGufl0hpd0TGAiTOu2Q63JoGEO3xR6NrJMqrhxhPoOCmHdMdOIetjL
U8Nbx/fLwsyWu8rknMF6RQgK1Lx8OtRFIRiTRvcKhCtOqKd0NA4l4hvnFaP05k01
hoSMi8hMCdm4grMNPiAwDwrodHUbDxDR/L8T+5pPNs+6npypBLe83YK85ihCmXrs
YhrwCp0CCYXEzHrILJWoCmTjKHduxgRMag70ZMocvaIdIZPpY20C3E2o3cg2GJxi
ISoLMsMv8SnEHV9XfmXAki4=
-----END CERTIFICATE-----
