Certificate:
    Data:
        Version: 3 (0x2)
        Serial Number:
            e0:6e:91:f1:55:ad:38:22
    Signature Algorithm: sha256WithRSAEncryption
        Issuer: C=US, ST=California, L=Santa Clara, O=pkg5, OU=ta8, CN=localhost/emailAddress=ta8
        Validity
            Not Before: Jul  3 14:14:05 2018 GMT
            Not After : Mar 29 14:14:05 2021 GMT
        Subject: C=US, ST=California, L=Santa Clara, O=pkg5, OU=ta8, CN=localhost/emailAddress=ta8
        Subject Public Key Info:
            Public Key Algorithm: rsaEncryption
                Public-Key: (2048 bit)
                Modulus:
                    00:cc:31:60:8d:d7:b1:f3:7a:6e:a5:77:43:8e:0e:
                    7e:40:68:e6:8f:9a:a9:8c:e5:af:94:fb:62:e8:f6:
                    01:cf:12:56:61:e3:f9:2c:b6:8f:be:f7:8d:51:be:
                    ab:ee:09:06:b7:1b:38:4e:c0:cd:b7:6f:7a:b9:3b:
                    03:4f:12:85:86:63:30:38:7e:63:0b:66:05:2b:6e:
                    26:e7:fb:60:4f:d4:35:41:9d:3c:5a:d6:cf:4d:5c:
                    26:83:2c:83:f1:ca:5b:ed:6c:90:e8:5d:17:7b:7d:
                    71:e4:ee:5d:ef:a4:74:36:54:20:87:6b:23:60:05:
                    4d:0a:67:e8:dc:a6:81:d6:91:6f:b6:0f:9f:38:67:
                    47:29:80:4a:ad:34:27:3d:15:50:98:74:7c:04:37:
                    1d:4b:d3:2e:63:26:83:7f:9d:ef:94:a8:64:47:ca:
                    42:36:8b:17:3b:02:1f:77:cd:fd:cf:74:c6:97:d5:
                    c6:d5:ec:ad:4c:bb:c9:f8:0d:60:f3:b2:49:46:0a:
                    fa:31:3c:f9:c4:3e:64:9a:fa:2e:a9:b0:1f:21:a0:
                    b4:aa:23:aa:72:7b:fe:6b:6f:10:2b:1b:9b:dc:50:
                    a7:bb:f5:14:6d:e9:17:30:15:d8:be:47:e4:42:db:
                    73:2f:21:e0:f3:ab:e5:e0:59:78:84:b3:c3:5c:cc:
                    00:e9
                Exponent: 65537 (0x10001)
        X509v3 extensions:
            X509v3 Subject Key Identifier: 
                B8:45:E0:CA:69:98:7E:52:1C:EF:DC:7E:2E:A0:29:96:AF:65:83:4A
            X509v3 Authority Key Identifier: 
                keyid:B8:45:E0:CA:69:98:7E:52:1C:EF:DC:7E:2E:A0:29:96:AF:65:83:4A

            X509v3 Basic Constraints: 
                CA:TRUE
    Signature Algorithm: sha256WithRSAEncryption
         88:82:0b:64:22:83:49:3c:9e:f0:e5:10:59:47:1d:16:4a:87:
         9e:bb:50:a0:05:af:6a:ad:47:72:d7:63:aa:59:46:26:a8:48:
         fd:7a:b0:76:ba:9a:71:13:c1:e5:87:9b:61:b3:5e:e6:56:7a:
         1f:93:a4:44:e0:ca:e9:87:88:74:3d:bd:71:6d:02:72:a9:76:
         11:07:df:ac:51:60:7f:ab:fa:5c:ea:e0:2c:3c:ae:d8:a9:93:
         2e:e8:5e:e7:c8:00:0b:a4:b7:da:83:bd:b9:46:58:f3:7b:6f:
         60:a2:65:c4:d5:68:b8:1d:c2:fe:47:3d:8d:8c:2a:7b:af:81:
         aa:27:f4:33:d9:be:50:2f:30:29:74:71:0c:f1:7f:7a:a7:1e:
         61:6a:8a:27:88:65:1e:36:4a:9f:59:33:97:f9:ef:b9:96:6e:
         01:d0:8f:56:db:df:bc:c7:96:f8:d7:42:f5:4f:1f:ca:01:83:
         13:ac:b6:f5:c8:10:2c:8f:8d:81:27:f3:b3:ba:10:62:ec:21:
         49:97:11:5e:ca:c9:a0:f8:c2:1f:d8:6a:c1:e4:80:9c:29:75:
         10:37:47:e6:09:a9:e7:98:7e:43:61:91:c6:58:14:97:db:73:
         c5:9d:fc:66:74:0b:59:ac:c0:3f:11:fc:f1:74:c8:ac:a7:93:
         78:0e:20:32
-----BEGIN CERTIFICATE-----
MIIDzTCCArWgAwIBAgIJAOBukfFVrTgiMA0GCSqGSIb3DQEBCwUAMH0xCzAJBgNV
BAYTAlVTMRMwEQYDVQQIDApDYWxpZm9ybmlhMRQwEgYDVQQHDAtTYW50YSBDbGFy
YTENMAsGA1UECgwEcGtnNTEMMAoGA1UECwwDdGE4MRIwEAYDVQQDDAlsb2NhbGhv
c3QxEjAQBgkqhkiG9w0BCQEWA3RhODAeFw0xODA3MDMxNDE0MDVaFw0yMTAzMjkx
NDE0MDVaMH0xCzAJBgNVBAYTAlVTMRMwEQYDVQQIDApDYWxpZm9ybmlhMRQwEgYD
VQQHDAtTYW50YSBDbGFyYTENMAsGA1UECgwEcGtnNTEMMAoGA1UECwwDdGE4MRIw
EAYDVQQDDAlsb2NhbGhvc3QxEjAQBgkqhkiG9w0BCQEWA3RhODCCASIwDQYJKoZI
hvcNAQEBBQADggEPADCCAQoCggEBAMwxYI3XsfN6bqV3Q44OfkBo5o+aqYzlr5T7
Yuj2Ac8SVmHj+Sy2j773jVG+q+4JBrcbOE7Azbdverk7A08ShYZjMDh+YwtmBStu
Juf7YE/UNUGdPFrWz01cJoMsg/HKW+1skOhdF3t9ceTuXe+kdDZUIIdrI2AFTQpn
6NymgdaRb7YPnzhnRymASq00Jz0VUJh0fAQ3HUvTLmMmg3+d75SoZEfKQjaLFzsC
H3fN/c90xpfVxtXsrUy7yfgNYPOySUYK+jE8+cQ+ZJr6LqmwHyGgtKojqnJ7/mtv
ECsbm9xQp7v1FG3pFzAV2L5H5ELbcy8h4POr5eBZeISzw1zMAOkCAwEAAaNQME4w
HQYDVR0OBBYEFLhF4MppmH5SHO/cfi6gKZavZYNKMB8GA1UdIwQYMBaAFLhF4Mpp
mH5SHO/cfi6gKZavZYNKMAwGA1UdEwQFMAMBAf8wDQYJKoZIhvcNAQELBQADggEB
AIiCC2Qig0k8nvDlEFlHHRZKh567UKAFr2qtR3LXY6pZRiaoSP16sHa6mnETweWH
m2GzXuZWeh+TpETgyumHiHQ9vXFtAnKpdhEH36xRYH+r+lzq4Cw8rtipky7oXufI
AAukt9qDvblGWPN7b2CiZcTVaLgdwv5HPY2MKnuvgaon9DPZvlAvMCl0cQzxf3qn
HmFqiieIZR42Sp9ZM5f577mWbgHQj1bb37zHlvjXQvVPH8oBgxOstvXIECyPjYEn
87O6EGLsIUmXEV7KyaD4wh/YasHkgJwpdRA3R+YJqeeYfkNhkcZYFJfbc8Wd/GZ0
C1mswD8R/PF0yKynk3gOIDI=
-----END CERTIFICATE-----
