Certificate:
    Data:
        Version: 3 (0x2)
        Serial Number:
            84:99:14:2e:b9:6f:9d:02
    Signature Algorithm: sha256WithRSAEncryption
        Issuer: C=US, ST=California, L=Santa Clara, O=pkg5, OU=ta9, CN=localhost/emailAddress=ta9
        Validity
            Not Before: Nov 24 01:22:44 2021 GMT
            Not After : Aug 20 01:22:44 2024 GMT
        Subject: C=US, ST=California, L=Santa Clara, O=pkg5, OU=ta9, CN=localhost/emailAddress=ta9
        Subject Public Key Info:
            Public Key Algorithm: rsaEncryption
                Public-Key: (2048 bit)
                Modulus:
                    00:b5:33:24:3b:09:6a:7e:ed:34:c7:1a:d7:aa:60:
                    1a:a2:80:93:da:95:16:33:9e:e2:86:4b:85:e3:69:
                    c5:d8:16:7a:de:55:32:dc:bc:89:83:5d:06:a9:8c:
                    a1:9b:84:d0:b4:89:8b:05:90:0f:79:2c:81:5c:d0:
                    b0:0c:b6:ec:73:dc:20:f7:58:03:98:fe:06:e4:55:
                    63:2f:56:9f:ac:96:55:1e:bb:a2:70:b1:d5:fd:e6:
                    57:a0:7f:2b:82:ec:23:5c:c1:d4:cb:26:8f:b4:ec:
                    79:30:00:cb:3f:13:3e:70:66:00:e7:62:1e:ad:f4:
                    71:d8:92:7a:87:33:32:28:1b:24:e0:bb:e4:8b:69:
                    cb:4f:ae:2d:d4:3c:f2:03:00:b3:8c:ef:73:6e:ad:
                    70:96:80:9a:f3:49:b0:67:4a:76:65:57:e7:60:d9:
                    27:0a:a7:35:ce:a9:f3:53:37:a7:7d:2a:71:33:b7:
                    fc:fb:98:15:9a:e2:66:2b:31:7f:87:a4:95:26:2b:
                    20:3e:3a:14:ba:a8:4c:23:e4:02:72:fa:f6:9e:0c:
                    13:ac:bf:f0:79:1e:59:e4:86:56:d1:d6:2a:b6:9a:
                    ac:58:2b:4c:e0:a8:86:36:59:92:78:c4:f6:86:93:
                    46:f3:31:12:47:21:9b:67:d1:0e:3b:72:c9:0b:d5:
                    d4:35
                Exponent: 65537 (0x10001)
        X509v3 extensions:
            X509v3 Subject Key Identifier: 
                68:27:91:FF:39:15:1A:85:9F:70:63:E9:40:8B:E7:5B:58:D0:16:BC
            X509v3 Authority Key Identifier: 
                keyid:68:27:91:FF:39:15:1A:85:9F:70:63:E9:40:8B:E7:5B:58:D0:16:BC

            X509v3 Basic Constraints: 
                CA:TRUE
    Signature Algorithm: sha256WithRSAEncryption
         42:89:84:3d:63:1b:91:a2:73:92:e8:33:0b:e6:7c:75:95:35:
         a5:ec:90:c8:de:ff:63:7a:42:9a:93:30:2d:cc:97:6b:fe:53:
         d3:bf:8e:99:44:ad:2e:f0:42:d1:89:85:52:1d:f5:d9:af:b1:
         16:83:0d:bd:c4:a2:69:d3:c7:0c:4c:6d:21:12:ae:4f:50:21:
         82:01:23:d0:03:e9:fc:f2:76:30:6c:7a:33:86:ca:a2:3d:3d:
         e4:a8:37:db:1a:1d:a5:9c:38:aa:7b:19:f6:7b:e1:60:3d:9e:
         cf:b2:e2:a1:c5:9d:a3:07:6a:75:fb:bd:82:ce:3c:03:8e:04:
         32:fa:41:4a:21:59:84:9f:f3:ba:ff:e8:9d:13:9f:50:27:6b:
         ea:d3:35:40:82:d8:64:c5:e9:e9:e2:d2:2e:02:93:ff:26:1f:
         b7:ce:b5:13:85:8d:5b:80:ab:9a:74:51:9a:19:e3:d7:ba:35:
         84:09:8e:1d:3d:0b:69:52:1c:a6:a3:03:2a:cd:3b:71:1e:ce:
         da:c7:fc:db:98:66:d9:d5:4c:e6:f9:8e:e4:3d:cc:03:2a:ed:
         8d:44:35:75:92:2a:f7:e7:0b:ef:4b:0a:db:18:57:c5:98:11:
         53:18:45:9e:64:28:1e:cc:4f:d5:9f:6d:d6:22:d7:ad:c9:dd:
         e8:8c:05:b8
-----BEGIN CERTIFICATE-----
MIIDzTCCArWgAwIBAgIJAISZFC65b50CMA0GCSqGSIb3DQEBCwUAMH0xCzAJBgNV
BAYTAlVTMRMwEQYDVQQIDApDYWxpZm9ybmlhMRQwEgYDVQQHDAtTYW50YSBDbGFy
YTENMAsGA1UECgwEcGtnNTEMMAoGA1UECwwDdGE5MRIwEAYDVQQDDAlsb2NhbGhv
c3QxEjAQBgkqhkiG9w0BCQEWA3RhOTAeFw0yMTExMjQwMTIyNDRaFw0yNDA4MjAw
MTIyNDRaMH0xCzAJBgNVBAYTAlVTMRMwEQYDVQQIDApDYWxpZm9ybmlhMRQwEgYD
VQQHDAtTYW50YSBDbGFyYTENMAsGA1UECgwEcGtnNTEMMAoGA1UECwwDdGE5MRIw
EAYDVQQDDAlsb2NhbGhvc3QxEjAQBgkqhkiG9w0BCQEWA3RhOTCCASIwDQYJKoZI
hvcNAQEBBQADggEPADCCAQoCggEBALUzJDsJan7tNMca16pgGqKAk9qVFjOe4oZL
heNpxdgWet5VMty8iYNdBqmMoZuE0LSJiwWQD3ksgVzQsAy27HPcIPdYA5j+BuRV
Yy9Wn6yWVR67onCx1f3mV6B/K4LsI1zB1Msmj7TseTAAyz8TPnBmAOdiHq30cdiS
eoczMigbJOC75Itpy0+uLdQ88gMAs4zvc26tcJaAmvNJsGdKdmVX52DZJwqnNc6p
81M3p30qcTO3/PuYFZriZisxf4eklSYrID46FLqoTCPkAnL69p4ME6y/8HkeWeSG
VtHWKraarFgrTOCohjZZknjE9oaTRvMxEkchm2fRDjtyyQvV1DUCAwEAAaNQME4w
HQYDVR0OBBYEFGgnkf85FRqFn3Bj6UCL51tY0Ba8MB8GA1UdIwQYMBaAFGgnkf85
FRqFn3Bj6UCL51tY0Ba8MAwGA1UdEwQFMAMBAf8wDQYJKoZIhvcNAQELBQADggEB
AEKJhD1jG5Gic5LoMwvmfHWVNaXskMje/2N6QpqTMC3Ml2v+U9O/jplErS7wQtGJ
hVId9dmvsRaDDb3EomnTxwxMbSESrk9QIYIBI9AD6fzydjBsejOGyqI9PeSoN9sa
HaWcOKp7GfZ74WA9ns+y4qHFnaMHanX7vYLOPAOOBDL6QUohWYSf87r/6J0Tn1An
a+rTNUCC2GTF6eni0i4Ck/8mH7fOtROFjVuAq5p0UZoZ49e6NYQJjh09C2lSHKaj
AyrNO3EeztrH/NuYZtnVTOb5juQ9zAMq7Y1ENXWSKvfnC+9LCtsYV8WYEVMYRZ5k
KB7MT9WfbdYi163J3eiMBbg=
-----END CERTIFICATE-----
