Certificate:
    Data:
        Version: 3 (0x2)
        Serial Number:
            ad:70:79:75:a6:e6:a1:cb
    Signature Algorithm: sha256WithRSAEncryption
        Issuer: C=US, ST=California, L=Santa Clara, O=pkg5, OU=ta9, CN=localhost/emailAddress=ta9
        Validity
            Not Before: Nov 11 12:38:34 2017 GMT
            Not After : Aug  7 12:38:34 2020 GMT
        Subject: C=US, ST=California, L=Santa Clara, O=pkg5, OU=ta9, CN=localhost/emailAddress=ta9
        Subject Public Key Info:
            Public Key Algorithm: rsaEncryption
                Public-Key: (2048 bit)
                Modulus:
                    00:be:b7:47:8a:5a:25:3f:b9:05:b6:e3:35:a5:0a:
                    50:1f:af:8b:66:f2:e2:64:78:db:54:23:ca:9a:73:
                    3c:e4:cf:95:f8:da:36:46:39:80:fa:a4:7b:5e:13:
                    56:ac:77:99:67:40:a4:b9:75:18:5f:d0:ab:a8:f8:
                    b9:e8:01:38:4d:9a:22:a0:ee:a8:2f:59:a2:2c:7f:
                    54:96:c7:10:ec:ac:36:4d:5e:fa:7d:9c:49:4f:48:
                    b8:4f:29:9d:b4:45:6b:48:82:50:e6:9e:a2:eb:b6:
                    cd:9f:33:23:19:e1:10:d9:63:8c:71:4c:2f:a1:5c:
                    3f:6e:5f:b7:f1:67:14:df:ac:fd:86:f7:bc:23:6d:
                    01:cf:80:e4:a5:71:52:01:3f:c4:31:52:c8:67:ef:
                    92:e9:cd:77:9e:17:14:49:df:8a:9c:79:43:a7:67:
                    af:4b:df:92:80:a9:74:4c:44:0a:11:67:d7:a9:67:
                    27:a9:bc:2f:e6:dc:c3:cb:c3:21:ee:c4:bc:3a:ed:
                    2a:7b:bf:c9:6d:df:cc:37:15:67:ca:3e:13:1f:23:
                    2e:d8:b2:22:a5:d2:a0:a0:51:67:b4:e5:36:2e:58:
                    1b:9b:48:bd:c7:14:63:db:60:1d:c4:e5:76:3e:16:
                    c3:b2:a4:f7:51:79:53:cb:88:b3:4a:0b:90:a8:3b:
                    79:4b
                Exponent: 65537 (0x10001)
        X509v3 extensions:
            X509v3 Subject Key Identifier: 
                38:61:AC:5D:CB:94:34:F6:53:27:76:A4:F4:5D:EA:A2:DF:A8:72:5A
            X509v3 Authority Key Identifier: 
                keyid:38:61:AC:5D:CB:94:34:F6:53:27:76:A4:F4:5D:EA:A2:DF:A8:72:5A

            X509v3 Basic Constraints: 
                CA:TRUE
    Signature Algorithm: sha256WithRSAEncryption
         69:ec:0b:1f:00:69:db:15:41:5d:a6:57:a9:8f:31:52:69:0a:
         86:cc:f1:98:75:78:67:5e:87:b3:f2:bd:a6:12:76:ec:b7:32:
         cd:82:9b:22:4e:11:c2:7f:cd:4d:01:31:9b:79:ed:e7:e7:4b:
         88:49:8b:5b:a3:af:7b:f2:3d:33:75:4b:5f:40:6d:ee:4f:79:
         76:20:49:71:3d:c8:38:7f:11:18:4f:d3:a1:70:cd:2e:14:bb:
         98:88:c4:92:21:11:b0:fb:9f:26:25:11:91:63:de:7e:87:13:
         a5:d6:4f:38:80:52:61:d8:d1:49:fc:ac:22:b6:ea:65:98:97:
         d1:87:d9:02:43:8c:3c:f2:48:9b:d6:39:18:59:3d:5c:1a:17:
         02:54:e2:14:7d:07:48:4b:5c:72:16:bf:e5:c2:7b:60:3e:a2:
         e2:d3:b3:c4:b2:57:2a:a5:6f:f3:a7:9d:9f:62:cd:ad:e7:10:
         75:ce:df:e8:d0:84:85:d9:6c:79:fc:4a:ad:38:93:8b:b3:45:
         0d:9d:38:24:cd:c5:1f:5f:51:d0:47:ca:33:ff:c3:48:e9:aa:
         4c:0c:cd:ab:5c:fb:86:2b:de:82:1b:3f:38:27:70:4c:c5:a4:
         20:0e:ff:1a:e6:b1:e0:4d:72:20:01:44:6d:37:82:c4:42:57:
         33:a9:38:11
-----BEGIN CERTIFICATE-----
MIIDzTCCArWgAwIBAgIJAK1weXWm5qHLMA0GCSqGSIb3DQEBCwUAMH0xCzAJBgNV
BAYTAlVTMRMwEQYDVQQIDApDYWxpZm9ybmlhMRQwEgYDVQQHDAtTYW50YSBDbGFy
YTENMAsGA1UECgwEcGtnNTEMMAoGA1UECwwDdGE5MRIwEAYDVQQDDAlsb2NhbGhv
c3QxEjAQBgkqhkiG9w0BCQEWA3RhOTAeFw0xNzExMTExMjM4MzRaFw0yMDA4MDcx
MjM4MzRaMH0xCzAJBgNVBAYTAlVTMRMwEQYDVQQIDApDYWxpZm9ybmlhMRQwEgYD
VQQHDAtTYW50YSBDbGFyYTENMAsGA1UECgwEcGtnNTEMMAoGA1UECwwDdGE5MRIw
EAYDVQQDDAlsb2NhbGhvc3QxEjAQBgkqhkiG9w0BCQEWA3RhOTCCASIwDQYJKoZI
hvcNAQEBBQADggEPADCCAQoCggEBAL63R4paJT+5BbbjNaUKUB+vi2by4mR421Qj
yppzPOTPlfjaNkY5gPqke14TVqx3mWdApLl1GF/Qq6j4uegBOE2aIqDuqC9Zoix/
VJbHEOysNk1e+n2cSU9IuE8pnbRFa0iCUOaeouu2zZ8zIxnhENljjHFML6FcP25f
t/FnFN+s/Yb3vCNtAc+A5KVxUgE/xDFSyGfvkunNd54XFEnfipx5Q6dnr0vfkoCp
dExEChFn16lnJ6m8L+bcw8vDIe7EvDrtKnu/yW3fzDcVZ8o+Ex8jLtiyIqXSoKBR
Z7TlNi5YG5tIvccUY9tgHcTldj4Ww7Kk91F5U8uIs0oLkKg7eUsCAwEAAaNQME4w
HQYDVR0OBBYEFDhhrF3LlDT2Uyd2pPRd6qLfqHJaMB8GA1UdIwQYMBaAFDhhrF3L
lDT2Uyd2pPRd6qLfqHJaMAwGA1UdEwQFMAMBAf8wDQYJKoZIhvcNAQELBQADggEB
AGnsCx8AadsVQV2mV6mPMVJpCobM8Zh1eGdeh7PyvaYSduy3Ms2CmyJOEcJ/zU0B
MZt57efnS4hJi1ujr3vyPTN1S19Abe5PeXYgSXE9yDh/ERhP06FwzS4Uu5iIxJIh
EbD7nyYlEZFj3n6HE6XWTziAUmHY0Un8rCK26mWYl9GH2QJDjDzySJvWORhZPVwa
FwJU4hR9B0hLXHIWv+XCe2A+ouLTs8SyVyqlb/OnnZ9iza3nEHXO3+jQhIXZbHn8
Sq04k4uzRQ2dOCTNxR9fUdBHyjP/w0jpqkwMzatc+4Yr3oIbPzgncEzFpCAO/xrm
seBNciABRG03gsRCVzOpOBE=
-----END CERTIFICATE-----
