Certificate:
    Data:
        Version: 3 (0x2)
        Serial Number:
            ab:5e:23:64:b4:63:19:86
    Signature Algorithm: sha256WithRSAEncryption
        Issuer: C=US, ST=California, L=Santa Clara, O=pkg5, OU=ta9, CN=localhost/emailAddress=ta9
        Validity
            Not Before: Jul  3 14:14:05 2018 GMT
            Not After : Mar 29 14:14:05 2021 GMT
        Subject: C=US, ST=California, L=Santa Clara, O=pkg5, OU=ta9, CN=localhost/emailAddress=ta9
        Subject Public Key Info:
            Public Key Algorithm: rsaEncryption
                Public-Key: (2048 bit)
                Modulus:
                    00:b5:98:82:a2:83:5c:b2:cf:ec:34:a4:5d:bf:69:
                    11:f0:fc:a8:82:82:44:f9:7b:14:af:d9:77:f9:24:
                    2a:c1:2e:56:3f:b0:9a:5e:1f:6b:31:64:ee:5e:2f:
                    16:89:ef:84:46:b8:71:f5:34:ce:50:2a:59:b8:c0:
                    53:b8:f1:11:a6:4e:17:f8:8f:cb:9e:aa:32:d7:c3:
                    0a:d4:37:a5:6b:71:f4:35:ff:8c:fb:76:13:2b:84:
                    ac:57:93:87:27:14:ec:c7:48:17:80:c1:61:4e:8e:
                    41:a1:59:71:4c:48:20:30:a6:9f:b0:4f:49:e8:c5:
                    74:1e:23:82:64:b8:80:87:df:d5:d2:e2:ee:78:09:
                    d9:93:de:78:e7:03:cc:09:d6:01:9a:d1:4e:78:ef:
                    8c:d2:a2:ac:3e:61:94:34:3b:ae:2c:d2:19:90:26:
                    3e:b9:3c:a4:89:15:c5:c1:dc:29:75:0b:8f:c3:60:
                    eb:e7:8a:6e:af:7e:b7:3d:d5:6d:fd:f1:ca:ce:17:
                    25:6e:99:71:a2:ab:b6:71:95:2d:3e:ee:b5:2f:67:
                    7d:05:e5:b5:99:8d:37:7e:cf:45:32:91:d6:64:2b:
                    5c:93:f5:8c:2e:a0:c7:dd:20:8f:69:1e:5c:8b:97:
                    5b:9a:a0:9d:66:48:69:3d:a0:ea:83:07:5b:d1:18:
                    d8:93
                Exponent: 65537 (0x10001)
        X509v3 extensions:
            X509v3 Subject Key Identifier: 
                CE:7F:CF:8A:99:4C:F1:A7:40:E6:4D:05:20:B1:DC:80:06:C3:AE:F7
            X509v3 Authority Key Identifier: 
                keyid:CE:7F:CF:8A:99:4C:F1:A7:40:E6:4D:05:20:B1:DC:80:06:C3:AE:F7

            X509v3 Basic Constraints: 
                CA:TRUE
    Signature Algorithm: sha256WithRSAEncryption
         56:18:59:81:d3:6f:0a:4d:22:39:61:17:7d:34:6d:db:e3:fe:
         1f:89:a2:23:72:25:ee:ac:80:33:97:68:c8:12:af:dc:ce:a4:
         ed:8b:c5:49:11:2e:6a:12:e4:82:eb:51:07:20:a4:5d:ed:17:
         fc:ee:48:9f:5e:e1:de:29:37:60:71:51:98:a7:04:2f:23:2a:
         d2:fe:14:f1:80:14:4e:d0:5c:f5:08:e5:6d:d3:4e:bb:26:5d:
         2a:80:af:c4:af:dd:44:1d:5a:ed:d4:dd:7e:6a:38:72:45:bf:
         d7:f2:b6:7d:5c:e0:b6:ce:4b:a7:e8:8e:3c:18:45:2d:8a:e6:
         e4:f0:bc:70:88:fc:96:49:62:19:b5:7c:dd:6f:a3:91:b7:e3:
         85:c5:f9:d5:51:c2:cb:c4:2c:13:2b:3d:75:ad:4a:8f:5c:75:
         fb:04:d0:c8:2d:b2:a1:83:ec:82:76:f8:eb:b0:cd:11:72:54:
         d7:6c:38:f6:9f:48:1a:a6:19:9e:fc:82:32:71:1a:74:da:f9:
         e7:cd:a0:f1:f0:05:17:e1:bd:8e:7b:4c:59:29:7c:0d:ce:66:
         62:73:98:0e:ff:e2:51:91:1c:f6:9f:a3:5d:6e:33:ec:39:31:
         0d:13:66:8d:98:db:09:88:fa:a6:fa:d7:64:7d:15:dd:2b:fb:
         35:85:9b:9a
-----BEGIN CERTIFICATE-----
MIIDzTCCArWgAwIBAgIJAKteI2S0YxmGMA0GCSqGSIb3DQEBCwUAMH0xCzAJBgNV
BAYTAlVTMRMwEQYDVQQIDApDYWxpZm9ybmlhMRQwEgYDVQQHDAtTYW50YSBDbGFy
YTENMAsGA1UECgwEcGtnNTEMMAoGA1UECwwDdGE5MRIwEAYDVQQDDAlsb2NhbGhv
c3QxEjAQBgkqhkiG9w0BCQEWA3RhOTAeFw0xODA3MDMxNDE0MDVaFw0yMTAzMjkx
NDE0MDVaMH0xCzAJBgNVBAYTAlVTMRMwEQYDVQQIDApDYWxpZm9ybmlhMRQwEgYD
VQQHDAtTYW50YSBDbGFyYTENMAsGA1UECgwEcGtnNTEMMAoGA1UECwwDdGE5MRIw
EAYDVQQDDAlsb2NhbGhvc3QxEjAQBgkqhkiG9w0BCQEWA3RhOTCCASIwDQYJKoZI
hvcNAQEBBQADggEPADCCAQoCggEBALWYgqKDXLLP7DSkXb9pEfD8qIKCRPl7FK/Z
d/kkKsEuVj+wml4fazFk7l4vFonvhEa4cfU0zlAqWbjAU7jxEaZOF/iPy56qMtfD
CtQ3pWtx9DX/jPt2EyuErFeThycU7MdIF4DBYU6OQaFZcUxIIDCmn7BPSejFdB4j
gmS4gIff1dLi7ngJ2ZPeeOcDzAnWAZrRTnjvjNKirD5hlDQ7rizSGZAmPrk8pIkV
xcHcKXULj8Ng6+eKbq9+tz3Vbf3xys4XJW6ZcaKrtnGVLT7utS9nfQXltZmNN37P
RTKR1mQrXJP1jC6gx90gj2keXIuXW5qgnWZIaT2g6oMHW9EY2JMCAwEAAaNQME4w
HQYDVR0OBBYEFM5/z4qZTPGnQOZNBSCx3IAGw673MB8GA1UdIwQYMBaAFM5/z4qZ
TPGnQOZNBSCx3IAGw673MAwGA1UdEwQFMAMBAf8wDQYJKoZIhvcNAQELBQADggEB
AFYYWYHTbwpNIjlhF300bdvj/h+JoiNyJe6sgDOXaMgSr9zOpO2LxUkRLmoS5ILr
UQcgpF3tF/zuSJ9e4d4pN2BxUZinBC8jKtL+FPGAFE7QXPUI5W3TTrsmXSqAr8Sv
3UQdWu3U3X5qOHJFv9fytn1c4LbOS6fojjwYRS2K5uTwvHCI/JZJYhm1fN1vo5G3
44XF+dVRwsvELBMrPXWtSo9cdfsE0MgtsqGD7IJ2+OuwzRFyVNdsOPafSBqmGZ78
gjJxGnTa+efNoPHwBRfhvY57TFkpfA3OZmJzmA7/4lGRHPafo11uM+w5MQ0TZo2Y
2wmI+qb612R9Fd0r+zWFm5o=
-----END CERTIFICATE-----
