Certificate:
    Data:
        Version: 3 (0x2)
        Serial Number:
            a7:6e:fa:d0:87:25:33:bf
    Signature Algorithm: sha256WithRSAEncryption
        Issuer: C=US, ST=California, L=Santa Clara, O=pkg5, OU=ta6, CN=localhost/emailAddress=ta6
        Validity
            Not Before: Jul  3 14:14:04 2018 GMT
            Not After : Mar 29 14:14:04 2021 GMT
        Subject: C=US, ST=California, L=Santa Clara, O=pkg5, OU=ta6, CN=localhost/emailAddress=ta6
        Subject Public Key Info:
            Public Key Algorithm: rsaEncryption
                Public-Key: (2048 bit)
                Modulus:
                    00:c4:ba:93:b5:f1:d5:c5:15:7b:ff:7a:4b:3e:cf:
                    94:8b:df:88:b3:ea:f5:0c:b1:fe:27:9f:9f:1d:82:
                    a7:8b:3f:7a:c3:a2:be:86:28:f4:73:1e:07:c8:72:
                    59:66:6a:64:73:4a:0b:43:b6:40:78:c7:bd:4b:58:
                    69:8a:4f:14:06:10:15:2e:ed:f6:79:fe:0e:a9:68:
                    36:2c:93:07:53:e6:31:97:9d:c0:00:e0:e6:80:8f:
                    f8:78:d1:a2:36:a3:b1:38:63:10:fc:24:0f:32:cc:
                    68:e0:bf:ea:b1:12:bc:a0:47:c6:e2:5b:f1:87:03:
                    f6:54:2a:f9:8b:29:8b:9d:83:da:2c:83:99:42:8a:
                    c5:08:d9:e1:08:c7:e0:32:49:56:9b:c0:b9:4b:f1:
                    0c:e4:da:4a:2d:44:ac:44:04:38:0c:eb:8f:36:90:
                    69:82:68:05:58:fb:43:98:2e:33:2f:14:92:e5:0c:
                    d8:e9:39:ca:5c:97:d7:36:ed:42:7d:e9:b5:83:d0:
                    cc:f9:19:be:a6:83:d2:85:c5:a7:39:35:ee:d1:cd:
                    82:5a:78:2b:b7:05:fe:48:df:7a:ff:58:52:74:8e:
                    ed:32:bb:21:bd:50:7f:6c:44:4e:ec:10:aa:fa:88:
                    96:1b:cc:8e:18:d5:52:f6:64:dd:e0:94:3d:43:97:
                    75:b3
                Exponent: 65537 (0x10001)
        X509v3 extensions:
            X509v3 Subject Key Identifier: 
                EF:EA:DD:5B:CC:F8:7E:D0:F6:34:5D:0F:DC:23:59:76:15:B1:FF:F3
            X509v3 Authority Key Identifier: 
                keyid:EF:EA:DD:5B:CC:F8:7E:D0:F6:34:5D:0F:DC:23:59:76:15:B1:FF:F3

            X509v3 Basic Constraints: 
                CA:TRUE
    Signature Algorithm: sha256WithRSAEncryption
         11:05:11:f1:a3:57:6d:77:19:f0:ff:9c:16:c1:bb:e4:63:98:
         1d:ae:6a:63:9b:31:09:17:07:37:e1:ec:2c:38:67:40:f8:b1:
         16:47:cb:aa:35:8e:68:72:f5:16:a5:29:e2:3d:9d:f0:f4:cc:
         ef:73:3e:fd:6e:48:fa:d3:0e:d6:e2:66:1f:78:17:71:44:e8:
         ae:2d:4f:50:04:17:ac:0f:60:58:ab:13:80:dc:eb:f5:a7:1c:
         68:54:9f:39:9f:2d:37:b7:75:81:0e:5f:ac:0f:24:96:68:2f:
         70:ba:75:ca:ec:0f:8a:a6:8f:f8:76:ab:3c:03:43:45:52:9e:
         db:13:7a:01:a2:b7:1b:8f:6c:ac:98:da:fc:6a:c7:65:a4:49:
         65:24:42:72:a8:32:c7:5e:e5:70:fe:ce:cf:df:95:27:7c:67:
         b7:f0:8f:39:86:80:47:66:2d:a8:7a:eb:ad:c2:5e:68:d7:82:
         df:69:05:9a:27:9a:09:3f:1b:6e:cd:54:f2:b8:25:3b:ba:ea:
         5c:76:41:74:2d:5f:2e:f4:83:49:02:5e:24:92:77:c9:ab:1b:
         95:f6:d3:31:76:70:ce:a3:ac:df:db:77:af:97:79:32:9f:ed:
         28:94:f1:a1:e5:56:89:91:ac:28:df:25:07:d4:01:31:7e:42:
         13:4f:a8:76
-----BEGIN CERTIFICATE-----
MIIDzTCCArWgAwIBAgIJAKdu+tCHJTO/MA0GCSqGSIb3DQEBCwUAMH0xCzAJBgNV
BAYTAlVTMRMwEQYDVQQIDApDYWxpZm9ybmlhMRQwEgYDVQQHDAtTYW50YSBDbGFy
YTENMAsGA1UECgwEcGtnNTEMMAoGA1UECwwDdGE2MRIwEAYDVQQDDAlsb2NhbGhv
c3QxEjAQBgkqhkiG9w0BCQEWA3RhNjAeFw0xODA3MDMxNDE0MDRaFw0yMTAzMjkx
NDE0MDRaMH0xCzAJBgNVBAYTAlVTMRMwEQYDVQQIDApDYWxpZm9ybmlhMRQwEgYD
VQQHDAtTYW50YSBDbGFyYTENMAsGA1UECgwEcGtnNTEMMAoGA1UECwwDdGE2MRIw
EAYDVQQDDAlsb2NhbGhvc3QxEjAQBgkqhkiG9w0BCQEWA3RhNjCCASIwDQYJKoZI
hvcNAQEBBQADggEPADCCAQoCggEBAMS6k7Xx1cUVe/96Sz7PlIvfiLPq9Qyx/ief
nx2Cp4s/esOivoYo9HMeB8hyWWZqZHNKC0O2QHjHvUtYaYpPFAYQFS7t9nn+Dqlo
NiyTB1PmMZedwADg5oCP+HjRojajsThjEPwkDzLMaOC/6rESvKBHxuJb8YcD9lQq
+Yspi52D2iyDmUKKxQjZ4QjH4DJJVpvAuUvxDOTaSi1ErEQEOAzrjzaQaYJoBVj7
Q5guMy8UkuUM2Ok5ylyX1zbtQn3ptYPQzPkZvqaD0oXFpzk17tHNglp4K7cF/kjf
ev9YUnSO7TK7Ib1Qf2xETuwQqvqIlhvMjhjVUvZk3eCUPUOXdbMCAwEAAaNQME4w
HQYDVR0OBBYEFO/q3VvM+H7Q9jRdD9wjWXYVsf/zMB8GA1UdIwQYMBaAFO/q3VvM
+H7Q9jRdD9wjWXYVsf/zMAwGA1UdEwQFMAMBAf8wDQYJKoZIhvcNAQELBQADggEB
ABEFEfGjV213GfD/nBbBu+RjmB2uamObMQkXBzfh7Cw4Z0D4sRZHy6o1jmhy9Ral
KeI9nfD0zO9zPv1uSPrTDtbiZh94F3FE6K4tT1AEF6wPYFirE4Dc6/WnHGhUnzmf
LTe3dYEOX6wPJJZoL3C6dcrsD4qmj/h2qzwDQ0VSntsTegGitxuPbKyY2vxqx2Wk
SWUkQnKoMsde5XD+zs/flSd8Z7fwjzmGgEdmLah6663CXmjXgt9pBZonmgk/G27N
VPK4JTu66lx2QXQtXy70g0kCXiSSd8mrG5X20zF2cM6jrN/bd6+XeTKf7SiU8aHl
VomRrCjfJQfUATF+QhNPqHY=
-----END CERTIFICATE-----
Certificate:
    Data:
        Version: 3 (0x2)
        Serial Number:
            e0:6e:91:f1:55:ad:38:22
    Signature Algorithm: sha256WithRSAEncryption
        Issuer: C=US, ST=California, L=Santa Clara, O=pkg5, OU=ta8, CN=localhost/emailAddress=ta8
        Validity
            Not Before: Jul  3 14:14:05 2018 GMT
            Not After : Mar 29 14:14:05 2021 GMT
        Subject: C=US, ST=California, L=Santa Clara, O=pkg5, OU=ta8, CN=localhost/emailAddress=ta8
        Subject Public Key Info:
            Public Key Algorithm: rsaEncryption
                Public-Key: (2048 bit)
                Modulus:
                    00:cc:31:60:8d:d7:b1:f3:7a:6e:a5:77:43:8e:0e:
                    7e:40:68:e6:8f:9a:a9:8c:e5:af:94:fb:62:e8:f6:
                    01:cf:12:56:61:e3:f9:2c:b6:8f:be:f7:8d:51:be:
                    ab:ee:09:06:b7:1b:38:4e:c0:cd:b7:6f:7a:b9:3b:
                    03:4f:12:85:86:63:30:38:7e:63:0b:66:05:2b:6e:
                    26:e7:fb:60:4f:d4:35:41:9d:3c:5a:d6:cf:4d:5c:
                    26:83:2c:83:f1:ca:5b:ed:6c:90:e8:5d:17:7b:7d:
                    71:e4:ee:5d:ef:a4:74:36:54:20:87:6b:23:60:05:
                    4d:0a:67:e8:dc:a6:81:d6:91:6f:b6:0f:9f:38:67:
                    47:29:80:4a:ad:34:27:3d:15:50:98:74:7c:04:37:
                    1d:4b:d3:2e:63:26:83:7f:9d:ef:94:a8:64:47:ca:
                    42:36:8b:17:3b:02:1f:77:cd:fd:cf:74:c6:97:d5:
                    c6:d5:ec:ad:4c:bb:c9:f8:0d:60:f3:b2:49:46:0a:
                    fa:31:3c:f9:c4:3e:64:9a:fa:2e:a9:b0:1f:21:a0:
                    b4:aa:23:aa:72:7b:fe:6b:6f:10:2b:1b:9b:dc:50:
                    a7:bb:f5:14:6d:e9:17:30:15:d8:be:47:e4:42:db:
                    73:2f:21:e0:f3:ab:e5:e0:59:78:84:b3:c3:5c:cc:
                    00:e9
                Exponent: 65537 (0x10001)
        X509v3 extensions:
            X509v3 Subject Key Identifier: 
                B8:45:E0:CA:69:98:7E:52:1C:EF:DC:7E:2E:A0:29:96:AF:65:83:4A
            X509v3 Authority Key Identifier: 
                keyid:B8:45:E0:CA:69:98:7E:52:1C:EF:DC:7E:2E:A0:29:96:AF:65:83:4A

            X509v3 Basic Constraints: 
                CA:TRUE
    Signature Algorithm: sha256WithRSAEncryption
         88:82:0b:64:22:83:49:3c:9e:f0:e5:10:59:47:1d:16:4a:87:
         9e:bb:50:a0:05:af:6a:ad:47:72:d7:63:aa:59:46:26:a8:48:
         fd:7a:b0:76:ba:9a:71:13:c1:e5:87:9b:61:b3:5e:e6:56:7a:
         1f:93:a4:44:e0:ca:e9:87:88:74:3d:bd:71:6d:02:72:a9:76:
         11:07:df:ac:51:60:7f:ab:fa:5c:ea:e0:2c:3c:ae:d8:a9:93:
         2e:e8:5e:e7:c8:00:0b:a4:b7:da:83:bd:b9:46:58:f3:7b:6f:
         60:a2:65:c4:d5:68:b8:1d:c2:fe:47:3d:8d:8c:2a:7b:af:81:
         aa:27:f4:33:d9:be:50:2f:30:29:74:71:0c:f1:7f:7a:a7:1e:
         61:6a:8a:27:88:65:1e:36:4a:9f:59:33:97:f9:ef:b9:96:6e:
         01:d0:8f:56:db:df:bc:c7:96:f8:d7:42:f5:4f:1f:ca:01:83:
         13:ac:b6:f5:c8:10:2c:8f:8d:81:27:f3:b3:ba:10:62:ec:21:
         49:97:11:5e:ca:c9:a0:f8:c2:1f:d8:6a:c1:e4:80:9c:29:75:
         10:37:47:e6:09:a9:e7:98:7e:43:61:91:c6:58:14:97:db:73:
         c5:9d:fc:66:74:0b:59:ac:c0:3f:11:fc:f1:74:c8:ac:a7:93:
         78:0e:20:32
-----BEGIN CERTIFICATE-----
MIIDzTCCArWgAwIBAgIJAOBukfFVrTgiMA0GCSqGSIb3DQEBCwUAMH0xCzAJBgNV
BAYTAlVTMRMwEQYDVQQIDApDYWxpZm9ybmlhMRQwEgYDVQQHDAtTYW50YSBDbGFy
YTENMAsGA1UECgwEcGtnNTEMMAoGA1UECwwDdGE4MRIwEAYDVQQDDAlsb2NhbGhv
c3QxEjAQBgkqhkiG9w0BCQEWA3RhODAeFw0xODA3MDMxNDE0MDVaFw0yMTAzMjkx
NDE0MDVaMH0xCzAJBgNVBAYTAlVTMRMwEQYDVQQIDApDYWxpZm9ybmlhMRQwEgYD
VQQHDAtTYW50YSBDbGFyYTENMAsGA1UECgwEcGtnNTEMMAoGA1UECwwDdGE4MRIw
EAYDVQQDDAlsb2NhbGhvc3QxEjAQBgkqhkiG9w0BCQEWA3RhODCCASIwDQYJKoZI
hvcNAQEBBQADggEPADCCAQoCggEBAMwxYI3XsfN6bqV3Q44OfkBo5o+aqYzlr5T7
Yuj2Ac8SVmHj+Sy2j773jVG+q+4JBrcbOE7Azbdverk7A08ShYZjMDh+YwtmBStu
Juf7YE/UNUGdPFrWz01cJoMsg/HKW+1skOhdF3t9ceTuXe+kdDZUIIdrI2AFTQpn
6NymgdaRb7YPnzhnRymASq00Jz0VUJh0fAQ3HUvTLmMmg3+d75SoZEfKQjaLFzsC
H3fN/c90xpfVxtXsrUy7yfgNYPOySUYK+jE8+cQ+ZJr6LqmwHyGgtKojqnJ7/mtv
ECsbm9xQp7v1FG3pFzAV2L5H5ELbcy8h4POr5eBZeISzw1zMAOkCAwEAAaNQME4w
HQYDVR0OBBYEFLhF4MppmH5SHO/cfi6gKZavZYNKMB8GA1UdIwQYMBaAFLhF4Mpp
mH5SHO/cfi6gKZavZYNKMAwGA1UdEwQFMAMBAf8wDQYJKoZIhvcNAQELBQADggEB
AIiCC2Qig0k8nvDlEFlHHRZKh567UKAFr2qtR3LXY6pZRiaoSP16sHa6mnETweWH
m2GzXuZWeh+TpETgyumHiHQ9vXFtAnKpdhEH36xRYH+r+lzq4Cw8rtipky7oXufI
AAukt9qDvblGWPN7b2CiZcTVaLgdwv5HPY2MKnuvgaon9DPZvlAvMCl0cQzxf3qn
HmFqiieIZR42Sp9ZM5f577mWbgHQj1bb37zHlvjXQvVPH8oBgxOstvXIECyPjYEn
87O6EGLsIUmXEV7KyaD4wh/YasHkgJwpdRA3R+YJqeeYfkNhkcZYFJfbc8Wd/GZ0
C1mswD8R/PF0yKynk3gOIDI=
-----END CERTIFICATE-----
Certificate:
    Data:
        Version: 3 (0x2)
        Serial Number:
            ab:5e:23:64:b4:63:19:86
    Signature Algorithm: sha256WithRSAEncryption
        Issuer: C=US, ST=California, L=Santa Clara, O=pkg5, OU=ta9, CN=localhost/emailAddress=ta9
        Validity
            Not Before: Jul  3 14:14:05 2018 GMT
            Not After : Mar 29 14:14:05 2021 GMT
        Subject: C=US, ST=California, L=Santa Clara, O=pkg5, OU=ta9, CN=localhost/emailAddress=ta9
        Subject Public Key Info:
            Public Key Algorithm: rsaEncryption
                Public-Key: (2048 bit)
                Modulus:
                    00:b5:98:82:a2:83:5c:b2:cf:ec:34:a4:5d:bf:69:
                    11:f0:fc:a8:82:82:44:f9:7b:14:af:d9:77:f9:24:
                    2a:c1:2e:56:3f:b0:9a:5e:1f:6b:31:64:ee:5e:2f:
                    16:89:ef:84:46:b8:71:f5:34:ce:50:2a:59:b8:c0:
                    53:b8:f1:11:a6:4e:17:f8:8f:cb:9e:aa:32:d7:c3:
                    0a:d4:37:a5:6b:71:f4:35:ff:8c:fb:76:13:2b:84:
                    ac:57:93:87:27:14:ec:c7:48:17:80:c1:61:4e:8e:
                    41:a1:59:71:4c:48:20:30:a6:9f:b0:4f:49:e8:c5:
                    74:1e:23:82:64:b8:80:87:df:d5:d2:e2:ee:78:09:
                    d9:93:de:78:e7:03:cc:09:d6:01:9a:d1:4e:78:ef:
                    8c:d2:a2:ac:3e:61:94:34:3b:ae:2c:d2:19:90:26:
                    3e:b9:3c:a4:89:15:c5:c1:dc:29:75:0b:8f:c3:60:
                    eb:e7:8a:6e:af:7e:b7:3d:d5:6d:fd:f1:ca:ce:17:
                    25:6e:99:71:a2:ab:b6:71:95:2d:3e:ee:b5:2f:67:
                    7d:05:e5:b5:99:8d:37:7e:cf:45:32:91:d6:64:2b:
                    5c:93:f5:8c:2e:a0:c7:dd:20:8f:69:1e:5c:8b:97:
                    5b:9a:a0:9d:66:48:69:3d:a0:ea:83:07:5b:d1:18:
                    d8:93
                Exponent: 65537 (0x10001)
        X509v3 extensions:
            X509v3 Subject Key Identifier: 
                CE:7F:CF:8A:99:4C:F1:A7:40:E6:4D:05:20:B1:DC:80:06:C3:AE:F7
            X509v3 Authority Key Identifier: 
                keyid:CE:7F:CF:8A:99:4C:F1:A7:40:E6:4D:05:20:B1:DC:80:06:C3:AE:F7

            X509v3 Basic Constraints: 
                CA:TRUE
    Signature Algorithm: sha256WithRSAEncryption
         56:18:59:81:d3:6f:0a:4d:22:39:61:17:7d:34:6d:db:e3:fe:
         1f:89:a2:23:72:25:ee:ac:80:33:97:68:c8:12:af:dc:ce:a4:
         ed:8b:c5:49:11:2e:6a:12:e4:82:eb:51:07:20:a4:5d:ed:17:
         fc:ee:48:9f:5e:e1:de:29:37:60:71:51:98:a7:04:2f:23:2a:
         d2:fe:14:f1:80:14:4e:d0:5c:f5:08:e5:6d:d3:4e:bb:26:5d:
         2a:80:af:c4:af:dd:44:1d:5a:ed:d4:dd:7e:6a:38:72:45:bf:
         d7:f2:b6:7d:5c:e0:b6:ce:4b:a7:e8:8e:3c:18:45:2d:8a:e6:
         e4:f0:bc:70:88:fc:96:49:62:19:b5:7c:dd:6f:a3:91:b7:e3:
         85:c5:f9:d5:51:c2:cb:c4:2c:13:2b:3d:75:ad:4a:8f:5c:75:
         fb:04:d0:c8:2d:b2:a1:83:ec:82:76:f8:eb:b0:cd:11:72:54:
         d7:6c:38:f6:9f:48:1a:a6:19:9e:fc:82:32:71:1a:74:da:f9:
         e7:cd:a0:f1:f0:05:17:e1:bd:8e:7b:4c:59:29:7c:0d:ce:66:
         62:73:98:0e:ff:e2:51:91:1c:f6:9f:a3:5d:6e:33:ec:39:31:
         0d:13:66:8d:98:db:09:88:fa:a6:fa:d7:64:7d:15:dd:2b:fb:
         35:85:9b:9a
-----BEGIN CERTIFICATE-----
MIIDzTCCArWgAwIBAgIJAKteI2S0YxmGMA0GCSqGSIb3DQEBCwUAMH0xCzAJBgNV
BAYTAlVTMRMwEQYDVQQIDApDYWxpZm9ybmlhMRQwEgYDVQQHDAtTYW50YSBDbGFy
YTENMAsGA1UECgwEcGtnNTEMMAoGA1UECwwDdGE5MRIwEAYDVQQDDAlsb2NhbGhv
c3QxEjAQBgkqhkiG9w0BCQEWA3RhOTAeFw0xODA3MDMxNDE0MDVaFw0yMTAzMjkx
NDE0MDVaMH0xCzAJBgNVBAYTAlVTMRMwEQYDVQQIDApDYWxpZm9ybmlhMRQwEgYD
VQQHDAtTYW50YSBDbGFyYTENMAsGA1UECgwEcGtnNTEMMAoGA1UECwwDdGE5MRIw
EAYDVQQDDAlsb2NhbGhvc3QxEjAQBgkqhkiG9w0BCQEWA3RhOTCCASIwDQYJKoZI
hvcNAQEBBQADggEPADCCAQoCggEBALWYgqKDXLLP7DSkXb9pEfD8qIKCRPl7FK/Z
d/kkKsEuVj+wml4fazFk7l4vFonvhEa4cfU0zlAqWbjAU7jxEaZOF/iPy56qMtfD
CtQ3pWtx9DX/jPt2EyuErFeThycU7MdIF4DBYU6OQaFZcUxIIDCmn7BPSejFdB4j
gmS4gIff1dLi7ngJ2ZPeeOcDzAnWAZrRTnjvjNKirD5hlDQ7rizSGZAmPrk8pIkV
xcHcKXULj8Ng6+eKbq9+tz3Vbf3xys4XJW6ZcaKrtnGVLT7utS9nfQXltZmNN37P
RTKR1mQrXJP1jC6gx90gj2keXIuXW5qgnWZIaT2g6oMHW9EY2JMCAwEAAaNQME4w
HQYDVR0OBBYEFM5/z4qZTPGnQOZNBSCx3IAGw673MB8GA1UdIwQYMBaAFM5/z4qZ
TPGnQOZNBSCx3IAGw673MAwGA1UdEwQFMAMBAf8wDQYJKoZIhvcNAQELBQADggEB
AFYYWYHTbwpNIjlhF300bdvj/h+JoiNyJe6sgDOXaMgSr9zOpO2LxUkRLmoS5ILr
UQcgpF3tF/zuSJ9e4d4pN2BxUZinBC8jKtL+FPGAFE7QXPUI5W3TTrsmXSqAr8Sv
3UQdWu3U3X5qOHJFv9fytn1c4LbOS6fojjwYRS2K5uTwvHCI/JZJYhm1fN1vo5G3
44XF+dVRwsvELBMrPXWtSo9cdfsE0MgtsqGD7IJ2+OuwzRFyVNdsOPafSBqmGZ78
gjJxGnTa+efNoPHwBRfhvY57TFkpfA3OZmJzmA7/4lGRHPafo11uM+w5MQ0TZo2Y
2wmI+qb612R9Fd0r+zWFm5o=
-----END CERTIFICATE-----
Certificate:
    Data:
        Version: 3 (0x2)
        Serial Number:
            e1:6e:90:90:6c:17:8c:84
    Signature Algorithm: sha256WithRSAEncryption
        Issuer: C=US, ST=California, L=Santa Clara, O=pkg5, OU=ta10, CN=localhost/emailAddress=ta10
        Validity
            Not Before: Jul  3 14:14:06 2018 GMT
            Not After : Mar 29 14:14:06 2021 GMT
        Subject: C=US, ST=California, L=Santa Clara, O=pkg5, OU=ta10, CN=localhost/emailAddress=ta10
        Subject Public Key Info:
            Public Key Algorithm: rsaEncryption
                Public-Key: (2048 bit)
                Modulus:
                    00:c7:6f:3e:97:f5:55:cd:3e:9e:3e:b0:ab:a4:2c:
                    c0:ea:d9:e6:c7:03:a4:1c:e7:aa:84:00:3e:61:7c:
                    29:66:bf:02:7d:19:7b:e8:83:59:e5:d8:2e:d5:63:
                    7a:44:96:a9:8b:70:55:03:1a:15:b5:1b:dd:8d:b7:
                    72:45:52:07:18:51:70:60:66:77:27:a8:0c:db:5a:
                    3d:d0:d1:c0:09:39:c9:98:33:cf:96:ee:75:1c:93:
                    2e:ea:38:cf:f9:a6:4e:41:a6:be:62:ef:f3:6f:64:
                    cc:65:88:a1:00:60:e6:94:3c:1a:c9:68:bc:45:5d:
                    3f:53:fc:7b:33:ac:34:e5:7a:95:2e:6b:df:1c:42:
                    1b:7b:c1:06:b1:17:08:8a:a7:ec:69:d0:7c:a2:be:
                    be:67:dc:05:1b:76:81:86:e6:71:51:67:e6:80:e1:
                    8a:cb:b7:35:2a:89:2f:65:e8:31:5f:58:03:5e:68:
                    7f:8f:20:da:94:ab:60:95:9c:d0:07:c4:f9:15:73:
                    ea:34:48:0f:28:22:04:d8:af:50:6a:53:32:1a:c1:
                    67:ed:ad:6d:fc:02:71:26:65:5d:e6:b7:75:5a:20:
                    23:c5:79:63:dc:eb:79:3c:25:5e:cf:f1:a1:3c:26:
                    ba:83:3c:80:68:ed:94:1c:29:31:fc:f7:a8:8c:07:
                    83:43
                Exponent: 65537 (0x10001)
        X509v3 extensions:
            X509v3 Subject Key Identifier: 
                E1:C9:A5:8B:0D:F2:8A:E6:1C:FC:5E:A6:FB:F8:B4:9B:D0:A4:52:07
            X509v3 Authority Key Identifier: 
                keyid:E1:C9:A5:8B:0D:F2:8A:E6:1C:FC:5E:A6:FB:F8:B4:9B:D0:A4:52:07

            X509v3 Basic Constraints: 
                CA:TRUE
    Signature Algorithm: sha256WithRSAEncryption
         7e:38:63:ee:2c:c3:f9:fa:93:a1:01:9c:58:21:8d:5f:9b:8f:
         56:bd:af:67:39:ce:fc:c5:d6:36:a0:d5:cd:92:98:95:9f:a5:
         9d:ac:a0:73:9e:de:7f:9f:b1:cb:3b:1f:36:e4:df:c0:ca:40:
         65:c8:c1:27:31:56:a1:d4:57:80:f4:cd:75:5d:dd:08:59:10:
         f1:c3:9f:0e:80:92:58:52:87:d5:ba:e1:f7:d0:2e:bd:72:ac:
         a1:4f:35:39:02:e6:c8:c7:05:cc:e9:f5:63:06:0d:76:b9:77:
         41:09:68:16:90:b4:4c:c1:6a:aa:f9:42:01:6c:6c:3d:94:26:
         d8:f1:f2:e8:72:f7:b0:b6:d4:ca:99:45:24:52:45:84:35:83:
         1f:85:40:3b:0d:9a:cc:3b:91:b7:75:c8:0b:6f:dd:d0:81:7b:
         85:21:72:53:8b:69:32:05:dd:0c:d8:49:ed:b6:c2:56:d1:67:
         8d:10:40:dd:13:dd:8c:77:8d:a7:6f:fc:6e:93:c3:d8:e4:7e:
         ff:f8:ad:83:12:ba:6f:2b:b0:98:a5:37:95:e5:9e:c3:18:52:
         78:51:af:4e:86:9c:a3:5e:fb:7b:e8:84:17:60:d5:21:16:08:
         ac:3b:58:68:bb:a3:48:ee:35:e5:00:a2:86:02:27:c4:57:8d:
         a2:87:a1:df
-----BEGIN CERTIFICATE-----
MIID0TCCArmgAwIBAgIJAOFukJBsF4yEMA0GCSqGSIb3DQEBCwUAMH8xCzAJBgNV
BAYTAlVTMRMwEQYDVQQIDApDYWxpZm9ybmlhMRQwEgYDVQQHDAtTYW50YSBDbGFy
YTENMAsGA1UECgwEcGtnNTENMAsGA1UECwwEdGExMDESMBAGA1UEAwwJbG9jYWxo
b3N0MRMwEQYJKoZIhvcNAQkBFgR0YTEwMB4XDTE4MDcwMzE0MTQwNloXDTIxMDMy
OTE0MTQwNlowfzELMAkGA1UEBhMCVVMxEzARBgNVBAgMCkNhbGlmb3JuaWExFDAS
BgNVBAcMC1NhbnRhIENsYXJhMQ0wCwYDVQQKDARwa2c1MQ0wCwYDVQQLDAR0YTEw
MRIwEAYDVQQDDAlsb2NhbGhvc3QxEzARBgkqhkiG9w0BCQEWBHRhMTAwggEiMA0G
CSqGSIb3DQEBAQUAA4IBDwAwggEKAoIBAQDHbz6X9VXNPp4+sKukLMDq2ebHA6Qc
56qEAD5hfClmvwJ9GXvog1nl2C7VY3pElqmLcFUDGhW1G92Nt3JFUgcYUXBgZncn
qAzbWj3Q0cAJOcmYM8+W7nUcky7qOM/5pk5Bpr5i7/NvZMxliKEAYOaUPBrJaLxF
XT9T/HszrDTlepUua98cQht7wQaxFwiKp+xp0Hyivr5n3AUbdoGG5nFRZ+aA4YrL
tzUqiS9l6DFfWANeaH+PINqUq2CVnNAHxPkVc+o0SA8oIgTYr1BqUzIawWftrW38
AnEmZV3mt3VaICPFeWPc63k8JV7P8aE8JrqDPIBo7ZQcKTH896iMB4NDAgMBAAGj
UDBOMB0GA1UdDgQWBBThyaWLDfKK5hz8Xqb7+LSb0KRSBzAfBgNVHSMEGDAWgBTh
yaWLDfKK5hz8Xqb7+LSb0KRSBzAMBgNVHRMEBTADAQH/MA0GCSqGSIb3DQEBCwUA
A4IBAQB+OGPuLMP5+pOhAZxYIY1fm49Wva9nOc78xdY2oNXNkpiVn6WdrKBznt5/
n7HLOx825N/AykBlyMEnMVah1FeA9M11Xd0IWRDxw58OgJJYUofVuuH30C69cqyh
TzU5AubIxwXM6fVjBg12uXdBCWgWkLRMwWqq+UIBbGw9lCbY8fLocvewttTKmUUk
UkWENYMfhUA7DZrMO5G3dcgLb93QgXuFIXJTi2kyBd0M2EnttsJW0WeNEEDdE92M
d42nb/xuk8PY5H7/+K2DErpvK7CYpTeV5Z7DGFJ4Ua9OhpyjXvt76IQXYNUhFgis
O1hou6NI7jXlAKKGAifEV42ih6Hf
-----END CERTIFICATE-----
Certificate:
    Data:
        Version: 3 (0x2)
        Serial Number:
            f3:80:47:a6:2b:c4:49:55
    Signature Algorithm: sha256WithRSAEncryption
        Issuer: C=US, ST=California, L=Santa Clara, O=pkg5, OU=ta11, CN=localhost/emailAddress=ta11
        Validity
            Not Before: Jul  3 14:14:06 2018 GMT
            Not After : Mar 29 14:14:06 2021 GMT
        Subject: C=US, ST=California, L=Santa Clara, O=pkg5, OU=ta11, CN=localhost/emailAddress=ta11
        Subject Public Key Info:
            Public Key Algorithm: rsaEncryption
                Public-Key: (2048 bit)
                Modulus:
                    00:ed:4d:9c:47:9e:0a:46:ce:ea:bc:84:36:8d:e9:
                    c1:b4:7e:56:5b:c9:c0:7a:6f:b4:28:aa:61:b9:09:
                    62:10:f3:97:00:92:80:27:2f:36:81:a8:a9:1a:31:
                    3d:fe:0d:3c:77:a2:9b:3e:d3:f9:f0:2d:47:b4:bf:
                    c2:c6:c9:02:9d:77:f4:5a:4e:ea:43:fc:6e:2b:70:
                    63:a4:23:8f:77:e3:a4:50:97:71:03:a2:90:b2:0b:
                    7f:43:48:d4:b5:04:1e:3e:ba:61:ee:6f:70:3c:a9:
                    21:45:a7:f8:5d:99:fd:8e:39:1c:0a:76:e4:90:68:
                    d1:86:a7:94:7e:80:b5:e5:8d:93:02:91:b1:45:8d:
                    a5:da:b6:ff:cc:97:ec:08:77:9d:c1:c2:f8:06:eb:
                    26:0b:73:2c:61:c2:41:fe:c7:2c:12:4a:91:6c:53:
                    90:46:f0:09:17:eb:7a:74:00:cb:b3:1c:1d:26:e5:
                    db:6d:5d:8f:35:87:49:07:e9:58:40:7b:1e:f1:dc:
                    9c:b6:0e:b3:46:26:92:74:51:fb:79:94:e9:9f:b1:
                    dc:71:d7:e2:fe:86:9b:c9:e2:ed:62:d1:41:fa:14:
                    e0:7b:62:b2:01:fc:ea:94:cd:f2:37:e8:62:18:af:
                    9c:c2:a6:6e:45:80:0a:04:9f:d5:f9:69:23:98:0d:
                    95:75
                Exponent: 65537 (0x10001)
        X509v3 extensions:
            X509v3 Subject Key Identifier: 
                BE:ED:A5:9F:1C:4A:54:25:88:33:E1:00:1C:35:2C:BE:34:15:F2:F4
            X509v3 Authority Key Identifier: 
                keyid:BE:ED:A5:9F:1C:4A:54:25:88:33:E1:00:1C:35:2C:BE:34:15:F2:F4

            X509v3 Basic Constraints: 
                CA:TRUE
    Signature Algorithm: sha256WithRSAEncryption
         24:4d:fe:1e:82:c4:3a:e8:3f:c0:39:57:41:1b:b9:81:9f:29:
         9a:56:78:2b:4f:65:dc:ac:99:0c:4a:c5:c8:6d:e5:5c:f8:f2:
         70:39:c7:af:3c:61:c2:c3:0f:9c:ab:af:a4:ab:e2:a8:cb:e4:
         37:5d:3e:e4:11:c9:dd:f9:fb:9f:63:aa:30:43:9b:28:25:08:
         e6:c9:99:1c:df:e8:59:c4:95:f9:27:b0:3b:f8:1f:8f:16:ee:
         13:4f:fa:8e:b1:18:3f:fc:1f:ef:51:66:d2:27:5e:bb:bd:3f:
         7f:17:94:f0:04:71:1c:2f:74:69:e4:72:73:51:e8:5d:c7:5d:
         a4:90:81:6b:ea:85:6e:e0:fb:35:47:5a:ee:e7:e0:6f:21:05:
         1b:33:b4:73:7b:05:ec:ad:1e:a6:94:6c:50:a1:d7:1d:04:cb:
         65:6e:52:5a:92:1b:15:18:60:26:89:43:52:46:07:e8:da:ad:
         e2:ae:ee:43:4f:56:9b:2c:f4:25:b5:c6:c3:73:2a:ae:9b:15:
         a7:5a:1f:84:45:f9:6b:21:b1:79:c1:b8:89:78:cb:19:1d:32:
         2d:1b:b5:4f:f7:10:65:28:1c:6b:e1:88:8b:e1:1d:85:52:68:
         64:65:ef:e2:7e:d8:90:29:43:32:ce:6d:ea:5a:28:25:50:47:
         f4:c9:12:d1
-----BEGIN CERTIFICATE-----
MIID0TCCArmgAwIBAgIJAPOAR6YrxElVMA0GCSqGSIb3DQEBCwUAMH8xCzAJBgNV
BAYTAlVTMRMwEQYDVQQIDApDYWxpZm9ybmlhMRQwEgYDVQQHDAtTYW50YSBDbGFy
YTENMAsGA1UECgwEcGtnNTENMAsGA1UECwwEdGExMTESMBAGA1UEAwwJbG9jYWxo
b3N0MRMwEQYJKoZIhvcNAQkBFgR0YTExMB4XDTE4MDcwMzE0MTQwNloXDTIxMDMy
OTE0MTQwNlowfzELMAkGA1UEBhMCVVMxEzARBgNVBAgMCkNhbGlmb3JuaWExFDAS
BgNVBAcMC1NhbnRhIENsYXJhMQ0wCwYDVQQKDARwa2c1MQ0wCwYDVQQLDAR0YTEx
MRIwEAYDVQQDDAlsb2NhbGhvc3QxEzARBgkqhkiG9w0BCQEWBHRhMTEwggEiMA0G
CSqGSIb3DQEBAQUAA4IBDwAwggEKAoIBAQDtTZxHngpGzuq8hDaN6cG0flZbycB6
b7QoqmG5CWIQ85cAkoAnLzaBqKkaMT3+DTx3ops+0/nwLUe0v8LGyQKdd/RaTupD
/G4rcGOkI49346RQl3EDopCyC39DSNS1BB4+umHub3A8qSFFp/hdmf2OORwKduSQ
aNGGp5R+gLXljZMCkbFFjaXatv/Ml+wId53BwvgG6yYLcyxhwkH+xywSSpFsU5BG
8AkX63p0AMuzHB0m5dttXY81h0kH6VhAex7x3Jy2DrNGJpJ0Uft5lOmfsdxx1+L+
hpvJ4u1i0UH6FOB7YrIB/OqUzfI36GIYr5zCpm5FgAoEn9X5aSOYDZV1AgMBAAGj
UDBOMB0GA1UdDgQWBBS+7aWfHEpUJYgz4QAcNSy+NBXy9DAfBgNVHSMEGDAWgBS+
7aWfHEpUJYgz4QAcNSy+NBXy9DAMBgNVHRMEBTADAQH/MA0GCSqGSIb3DQEBCwUA
A4IBAQAkTf4egsQ66D/AOVdBG7mBnymaVngrT2XcrJkMSsXIbeVc+PJwOcevPGHC
ww+cq6+kq+Koy+Q3XT7kEcnd+fufY6owQ5soJQjmyZkc3+hZxJX5J7A7+B+PFu4T
T/qOsRg//B/vUWbSJ167vT9/F5TwBHEcL3Rp5HJzUehdx12kkIFr6oVu4Ps1R1ru
5+BvIQUbM7RzewXsrR6mlGxQodcdBMtlblJakhsVGGAmiUNSRgfo2q3iru5DT1ab
LPQltcbDcyqumxWnWh+ERflrIbF5wbiJeMsZHTItG7VP9xBlKBxr4YiL4R2FUmhk
Ze/iftiQKUMyzm3qWiglUEf0yRLR
-----END CERTIFICATE-----
