Certificate:
    Data:
        Version: 3 (0x2)
        Serial Number:
            f8:3a:b7:59:47:03:61:ef
    Signature Algorithm: sha256WithRSAEncryption
        Issuer: C=US, ST=California, L=Santa Clara, O=pkg5, OU=ta6, CN=localhost/emailAddress=ta6
        Validity
            Not Before: Nov 24 01:22:44 2021 GMT
            Not After : Aug 20 01:22:44 2024 GMT
        Subject: C=US, ST=California, L=Santa Clara, O=pkg5, OU=ta6, CN=localhost/emailAddress=ta6
        Subject Public Key Info:
            Public Key Algorithm: rsaEncryption
                Public-Key: (2048 bit)
                Modulus:
                    00:c2:a8:9d:7c:30:61:8d:61:32:e5:c2:1b:50:a4:
                    ff:3b:3a:28:e4:45:9f:6e:e3:ba:6f:00:bc:a7:62:
                    a0:72:96:48:e6:1f:a3:91:2a:da:69:61:ca:a9:07:
                    af:7e:8e:bd:2d:55:c8:d1:10:b8:92:bc:7d:d9:7c:
                    27:88:ca:c9:3a:41:52:d2:d4:01:50:59:ab:fa:4d:
                    d7:97:c4:2a:4e:d3:03:9a:97:95:d0:14:91:4a:a5:
                    30:18:4c:e5:bb:23:9d:2e:bf:d1:6f:1e:74:b4:6d:
                    6c:08:ec:6c:be:1e:50:3a:12:eb:69:e5:b3:d9:29:
                    53:02:0e:79:1f:73:92:09:66:97:30:83:b4:a5:03:
                    f3:11:b2:22:ac:df:90:e5:24:25:f7:b0:c7:cf:93:
                    fe:49:46:21:f9:4f:f9:15:59:7f:3e:62:67:e6:36:
                    18:52:a0:8f:83:b8:dc:e3:99:cc:ae:5b:cf:8e:b3:
                    b6:4c:e0:3d:80:6b:b2:12:3f:5f:ec:0d:1b:66:60:
                    16:fd:6a:fe:15:78:51:4a:a6:49:1b:26:ed:cd:6a:
                    16:08:d8:37:07:90:e2:7b:a0:77:dc:74:bb:a9:9d:
                    e4:b8:75:9a:cf:95:73:36:08:0c:6d:25:6c:28:cf:
                    42:ef:6d:5a:cb:cf:89:1d:7c:0f:65:eb:bf:e9:dd:
                    b9:11
                Exponent: 65537 (0x10001)
        X509v3 extensions:
            X509v3 Subject Key Identifier: 
                87:A0:15:07:76:CB:EE:1E:7D:93:F8:64:A4:95:C7:7E:CB:C6:74:1E
            X509v3 Authority Key Identifier: 
                keyid:87:A0:15:07:76:CB:EE:1E:7D:93:F8:64:A4:95:C7:7E:CB:C6:74:1E

            X509v3 Basic Constraints: 
                CA:TRUE
    Signature Algorithm: sha256WithRSAEncryption
         8d:64:6f:89:1e:22:4c:de:05:f3:d4:6c:6a:3d:1c:8d:8d:53:
         1e:68:c0:7e:61:df:19:4b:58:0a:f8:24:f9:83:ab:1d:b4:01:
         fd:d4:bd:f6:21:5e:e7:b4:89:7a:86:dd:19:a1:51:15:d3:cf:
         49:d7:20:b0:e8:77:84:d6:5e:2b:b2:37:2f:32:0f:1c:fb:a5:
         11:a5:1c:f1:e0:cb:23:d3:e3:f1:40:f3:e6:e3:b0:d8:8d:d7:
         1d:bb:41:60:0f:6a:ed:9f:9a:35:81:17:a4:17:d7:88:12:14:
         d4:eb:0d:61:53:c7:91:38:fb:4a:16:f8:8c:f9:6d:a5:d2:1f:
         92:de:41:5a:0f:58:91:43:8f:df:48:07:7b:d4:4c:c8:4f:b4:
         df:f8:2e:05:d8:bc:85:65:9b:ee:23:32:c1:bc:b9:e3:3e:6c:
         6d:74:14:54:0d:6d:3e:32:4f:c0:35:64:13:a9:8e:cb:be:c5:
         a9:e6:ef:a5:7d:96:77:a3:29:54:94:37:9a:f5:51:df:69:c9:
         79:d8:ba:02:3e:02:1a:80:57:0c:7b:83:5d:65:61:4f:bf:52:
         b1:9b:ad:17:75:76:f5:74:bf:00:ff:ff:fd:a5:5e:d9:8c:10:
         0e:3b:44:b4:65:31:35:f3:d1:84:bd:d8:50:bc:7d:63:05:c7:
         0d:0b:d6:95
-----BEGIN CERTIFICATE-----
MIIDzTCCArWgAwIBAgIJAPg6t1lHA2HvMA0GCSqGSIb3DQEBCwUAMH0xCzAJBgNV
BAYTAlVTMRMwEQYDVQQIDApDYWxpZm9ybmlhMRQwEgYDVQQHDAtTYW50YSBDbGFy
YTENMAsGA1UECgwEcGtnNTEMMAoGA1UECwwDdGE2MRIwEAYDVQQDDAlsb2NhbGhv
c3QxEjAQBgkqhkiG9w0BCQEWA3RhNjAeFw0yMTExMjQwMTIyNDRaFw0yNDA4MjAw
MTIyNDRaMH0xCzAJBgNVBAYTAlVTMRMwEQYDVQQIDApDYWxpZm9ybmlhMRQwEgYD
VQQHDAtTYW50YSBDbGFyYTENMAsGA1UECgwEcGtnNTEMMAoGA1UECwwDdGE2MRIw
EAYDVQQDDAlsb2NhbGhvc3QxEjAQBgkqhkiG9w0BCQEWA3RhNjCCASIwDQYJKoZI
hvcNAQEBBQADggEPADCCAQoCggEBAMKonXwwYY1hMuXCG1Ck/zs6KORFn27jum8A
vKdioHKWSOYfo5Eq2mlhyqkHr36OvS1VyNEQuJK8fdl8J4jKyTpBUtLUAVBZq/pN
15fEKk7TA5qXldAUkUqlMBhM5bsjnS6/0W8edLRtbAjsbL4eUDoS62nls9kpUwIO
eR9zkglmlzCDtKUD8xGyIqzfkOUkJfewx8+T/klGIflP+RVZfz5iZ+Y2GFKgj4O4
3OOZzK5bz46ztkzgPYBrshI/X+wNG2ZgFv1q/hV4UUqmSRsm7c1qFgjYNweQ4nug
d9x0u6md5Lh1ms+VczYIDG0lbCjPQu9tWsvPiR18D2Xrv+nduRECAwEAAaNQME4w
HQYDVR0OBBYEFIegFQd2y+4efZP4ZKSVx37LxnQeMB8GA1UdIwQYMBaAFIegFQd2
y+4efZP4ZKSVx37LxnQeMAwGA1UdEwQFMAMBAf8wDQYJKoZIhvcNAQELBQADggEB
AI1kb4keIkzeBfPUbGo9HI2NUx5owH5h3xlLWAr4JPmDqx20Af3UvfYhXue0iXqG
3RmhURXTz0nXILDod4TWXiuyNy8yDxz7pRGlHPHgyyPT4/FA8+bjsNiN1x27QWAP
au2fmjWBF6QX14gSFNTrDWFTx5E4+0oW+Iz5baXSH5LeQVoPWJFDj99IB3vUTMhP
tN/4LgXYvIVlm+4jMsG8ueM+bG10FFQNbT4yT8A1ZBOpjsu+xanm76V9lnejKVSU
N5r1Ud9pyXnYugI+AhqAVwx7g11lYU+/UrGbrRd1dvV0vwD///2lXtmMEA47RLRl
MTXz0YS92FC8fWMFxw0L1pU=
-----END CERTIFICATE-----
Certificate:
    Data:
        Version: 3 (0x2)
        Serial Number:
            c7:87:3f:1d:e8:c6:b2:23
    Signature Algorithm: sha256WithRSAEncryption
        Issuer: C=US, ST=California, L=Santa Clara, O=pkg5, OU=ta8, CN=localhost/emailAddress=ta8
        Validity
            Not Before: Nov 24 01:22:44 2021 GMT
            Not After : Aug 20 01:22:44 2024 GMT
        Subject: C=US, ST=California, L=Santa Clara, O=pkg5, OU=ta8, CN=localhost/emailAddress=ta8
        Subject Public Key Info:
            Public Key Algorithm: rsaEncryption
                Public-Key: (2048 bit)
                Modulus:
                    00:9f:c1:c1:2e:a9:a5:1c:3d:36:be:64:82:9a:1a:
                    42:2b:5c:7f:47:d6:61:ff:64:ee:93:f2:2f:df:87:
                    3f:d8:94:3d:1e:7e:ce:ff:ab:89:f4:76:9c:da:31:
                    cc:e3:2b:5e:d2:45:ba:b1:0c:55:6f:82:5b:e0:92:
                    4f:5e:ab:87:35:fb:b3:7e:5c:f1:5e:83:87:26:e7:
                    eb:36:84:9e:fe:fb:e8:ae:44:47:26:c0:eb:5f:15:
                    71:de:17:ab:1b:16:c5:17:c8:0a:e8:d8:30:a3:c5:
                    a4:33:a3:45:0e:39:00:10:04:3e:02:8e:1b:11:d8:
                    bd:af:7b:fc:6f:3a:ba:0a:3f:5a:a0:9e:26:59:96:
                    51:b9:5f:f2:02:1c:92:ff:c7:81:1c:b0:18:58:91:
                    cf:a7:d6:45:85:ba:ae:c3:7f:c7:b7:6a:78:e4:f9:
                    37:c0:a1:e8:41:ce:c3:92:39:21:1b:ed:30:9d:aa:
                    66:65:a9:a0:be:88:3f:d0:47:da:f7:b0:37:8a:63:
                    f6:de:03:ea:62:3e:72:32:95:d0:34:51:a3:98:51:
                    0f:d4:87:5e:f7:ce:0a:2a:d0:6e:7b:82:13:16:06:
                    4a:97:09:89:47:24:55:58:ac:dc:14:26:bd:6b:21:
                    61:d9:7d:78:61:83:cb:e9:69:63:d6:00:cc:b9:e0:
                    62:09
                Exponent: 65537 (0x10001)
        X509v3 extensions:
            X509v3 Subject Key Identifier: 
                CE:6D:34:84:E3:1A:22:90:83:7A:0F:FB:20:67:A3:AC:07:21:B1:9D
            X509v3 Authority Key Identifier: 
                keyid:CE:6D:34:84:E3:1A:22:90:83:7A:0F:FB:20:67:A3:AC:07:21:B1:9D

            X509v3 Basic Constraints: 
                CA:TRUE
    Signature Algorithm: sha256WithRSAEncryption
         5d:5d:9d:e3:a5:c3:49:0a:95:94:86:60:f3:d2:61:ef:ee:20:
         4e:6a:db:55:a0:c9:10:b2:0a:c0:d9:3b:7b:c8:1c:57:d1:d2:
         86:46:06:72:da:5f:d2:2b:7d:03:17:48:fe:99:03:ff:a6:57:
         5f:52:ff:84:a4:da:39:f6:5e:b8:6a:4b:5c:f1:ac:38:7c:0e:
         4b:2e:4d:70:62:13:d8:cc:cc:6b:bc:19:9e:23:6b:89:0a:03:
         a1:e4:5e:f6:9c:38:3c:af:41:ee:fe:ee:97:ec:ac:42:92:97:
         28:e0:b4:27:3e:af:d0:53:de:5d:0d:7b:d5:a9:bb:36:fb:40:
         d3:7f:c6:c5:0a:5c:6a:21:60:54:9a:fa:a8:1c:ad:1d:52:3c:
         e1:dc:0c:3e:4b:3a:69:49:ad:ed:db:07:07:e5:b9:f5:dd:0c:
         72:8a:9b:1b:61:99:93:93:93:16:5b:bf:63:b6:43:16:47:b3:
         26:77:83:3c:3a:eb:f6:70:dd:f4:45:bf:a9:77:a5:95:be:e9:
         f0:52:ac:61:2b:4c:a4:cd:d7:d2:63:87:14:27:a0:fb:4c:06:
         57:ca:5a:4e:d1:51:cb:be:fe:71:f5:b7:5b:64:16:23:00:f4:
         4e:92:96:ec:66:71:75:28:09:ac:26:50:94:74:3e:d2:40:74:
         e5:61:b4:71
-----BEGIN CERTIFICATE-----
MIIDzTCCArWgAwIBAgIJAMeHPx3oxrIjMA0GCSqGSIb3DQEBCwUAMH0xCzAJBgNV
BAYTAlVTMRMwEQYDVQQIDApDYWxpZm9ybmlhMRQwEgYDVQQHDAtTYW50YSBDbGFy
YTENMAsGA1UECgwEcGtnNTEMMAoGA1UECwwDdGE4MRIwEAYDVQQDDAlsb2NhbGhv
c3QxEjAQBgkqhkiG9w0BCQEWA3RhODAeFw0yMTExMjQwMTIyNDRaFw0yNDA4MjAw
MTIyNDRaMH0xCzAJBgNVBAYTAlVTMRMwEQYDVQQIDApDYWxpZm9ybmlhMRQwEgYD
VQQHDAtTYW50YSBDbGFyYTENMAsGA1UECgwEcGtnNTEMMAoGA1UECwwDdGE4MRIw
EAYDVQQDDAlsb2NhbGhvc3QxEjAQBgkqhkiG9w0BCQEWA3RhODCCASIwDQYJKoZI
hvcNAQEBBQADggEPADCCAQoCggEBAJ/BwS6ppRw9Nr5kgpoaQitcf0fWYf9k7pPy
L9+HP9iUPR5+zv+rifR2nNoxzOMrXtJFurEMVW+CW+CST16rhzX7s35c8V6Dhybn
6zaEnv776K5ERybA618Vcd4XqxsWxRfICujYMKPFpDOjRQ45ABAEPgKOGxHYva97
/G86ugo/WqCeJlmWUblf8gIckv/HgRywGFiRz6fWRYW6rsN/x7dqeOT5N8Ch6EHO
w5I5IRvtMJ2qZmWpoL6IP9BH2vewN4pj9t4D6mI+cjKV0DRRo5hRD9SHXvfOCirQ
bnuCExYGSpcJiUckVVis3BQmvWshYdl9eGGDy+lpY9YAzLngYgkCAwEAAaNQME4w
HQYDVR0OBBYEFM5tNITjGiKQg3oP+yBno6wHIbGdMB8GA1UdIwQYMBaAFM5tNITj
GiKQg3oP+yBno6wHIbGdMAwGA1UdEwQFMAMBAf8wDQYJKoZIhvcNAQELBQADggEB
AF1dneOlw0kKlZSGYPPSYe/uIE5q21WgyRCyCsDZO3vIHFfR0oZGBnLaX9IrfQMX
SP6ZA/+mV19S/4Sk2jn2XrhqS1zxrDh8DksuTXBiE9jMzGu8GZ4ja4kKA6HkXvac
ODyvQe7+7pfsrEKSlyjgtCc+r9BT3l0Ne9Wpuzb7QNN/xsUKXGohYFSa+qgcrR1S
POHcDD5LOmlJre3bBwflufXdDHKKmxthmZOTkxZbv2O2QxZHsyZ3gzw66/Zw3fRF
v6l3pZW+6fBSrGErTKTN19JjhxQnoPtMBlfKWk7RUcu+/nH1t1tkFiMA9E6Sluxm
cXUoCawmUJR0PtJAdOVhtHE=
-----END CERTIFICATE-----
Certificate:
    Data:
        Version: 3 (0x2)
        Serial Number:
            84:99:14:2e:b9:6f:9d:02
    Signature Algorithm: sha256WithRSAEncryption
        Issuer: C=US, ST=California, L=Santa Clara, O=pkg5, OU=ta9, CN=localhost/emailAddress=ta9
        Validity
            Not Before: Nov 24 01:22:44 2021 GMT
            Not After : Aug 20 01:22:44 2024 GMT
        Subject: C=US, ST=California, L=Santa Clara, O=pkg5, OU=ta9, CN=localhost/emailAddress=ta9
        Subject Public Key Info:
            Public Key Algorithm: rsaEncryption
                Public-Key: (2048 bit)
                Modulus:
                    00:b5:33:24:3b:09:6a:7e:ed:34:c7:1a:d7:aa:60:
                    1a:a2:80:93:da:95:16:33:9e:e2:86:4b:85:e3:69:
                    c5:d8:16:7a:de:55:32:dc:bc:89:83:5d:06:a9:8c:
                    a1:9b:84:d0:b4:89:8b:05:90:0f:79:2c:81:5c:d0:
                    b0:0c:b6:ec:73:dc:20:f7:58:03:98:fe:06:e4:55:
                    63:2f:56:9f:ac:96:55:1e:bb:a2:70:b1:d5:fd:e6:
                    57:a0:7f:2b:82:ec:23:5c:c1:d4:cb:26:8f:b4:ec:
                    79:30:00:cb:3f:13:3e:70:66:00:e7:62:1e:ad:f4:
                    71:d8:92:7a:87:33:32:28:1b:24:e0:bb:e4:8b:69:
                    cb:4f:ae:2d:d4:3c:f2:03:00:b3:8c:ef:73:6e:ad:
                    70:96:80:9a:f3:49:b0:67:4a:76:65:57:e7:60:d9:
                    27:0a:a7:35:ce:a9:f3:53:37:a7:7d:2a:71:33:b7:
                    fc:fb:98:15:9a:e2:66:2b:31:7f:87:a4:95:26:2b:
                    20:3e:3a:14:ba:a8:4c:23:e4:02:72:fa:f6:9e:0c:
                    13:ac:bf:f0:79:1e:59:e4:86:56:d1:d6:2a:b6:9a:
                    ac:58:2b:4c:e0:a8:86:36:59:92:78:c4:f6:86:93:
                    46:f3:31:12:47:21:9b:67:d1:0e:3b:72:c9:0b:d5:
                    d4:35
                Exponent: 65537 (0x10001)
        X509v3 extensions:
            X509v3 Subject Key Identifier: 
                68:27:91:FF:39:15:1A:85:9F:70:63:E9:40:8B:E7:5B:58:D0:16:BC
            X509v3 Authority Key Identifier: 
                keyid:68:27:91:FF:39:15:1A:85:9F:70:63:E9:40:8B:E7:5B:58:D0:16:BC

            X509v3 Basic Constraints: 
                CA:TRUE
    Signature Algorithm: sha256WithRSAEncryption
         42:89:84:3d:63:1b:91:a2:73:92:e8:33:0b:e6:7c:75:95:35:
         a5:ec:90:c8:de:ff:63:7a:42:9a:93:30:2d:cc:97:6b:fe:53:
         d3:bf:8e:99:44:ad:2e:f0:42:d1:89:85:52:1d:f5:d9:af:b1:
         16:83:0d:bd:c4:a2:69:d3:c7:0c:4c:6d:21:12:ae:4f:50:21:
         82:01:23:d0:03:e9:fc:f2:76:30:6c:7a:33:86:ca:a2:3d:3d:
         e4:a8:37:db:1a:1d:a5:9c:38:aa:7b:19:f6:7b:e1:60:3d:9e:
         cf:b2:e2:a1:c5:9d:a3:07:6a:75:fb:bd:82:ce:3c:03:8e:04:
         32:fa:41:4a:21:59:84:9f:f3:ba:ff:e8:9d:13:9f:50:27:6b:
         ea:d3:35:40:82:d8:64:c5:e9:e9:e2:d2:2e:02:93:ff:26:1f:
         b7:ce:b5:13:85:8d:5b:80:ab:9a:74:51:9a:19:e3:d7:ba:35:
         84:09:8e:1d:3d:0b:69:52:1c:a6:a3:03:2a:cd:3b:71:1e:ce:
         da:c7:fc:db:98:66:d9:d5:4c:e6:f9:8e:e4:3d:cc:03:2a:ed:
         8d:44:35:75:92:2a:f7:e7:0b:ef:4b:0a:db:18:57:c5:98:11:
         53:18:45:9e:64:28:1e:cc:4f:d5:9f:6d:d6:22:d7:ad:c9:dd:
         e8:8c:05:b8
-----BEGIN CERTIFICATE-----
MIIDzTCCArWgAwIBAgIJAISZFC65b50CMA0GCSqGSIb3DQEBCwUAMH0xCzAJBgNV
BAYTAlVTMRMwEQYDVQQIDApDYWxpZm9ybmlhMRQwEgYDVQQHDAtTYW50YSBDbGFy
YTENMAsGA1UECgwEcGtnNTEMMAoGA1UECwwDdGE5MRIwEAYDVQQDDAlsb2NhbGhv
c3QxEjAQBgkqhkiG9w0BCQEWA3RhOTAeFw0yMTExMjQwMTIyNDRaFw0yNDA4MjAw
MTIyNDRaMH0xCzAJBgNVBAYTAlVTMRMwEQYDVQQIDApDYWxpZm9ybmlhMRQwEgYD
VQQHDAtTYW50YSBDbGFyYTENMAsGA1UECgwEcGtnNTEMMAoGA1UECwwDdGE5MRIw
EAYDVQQDDAlsb2NhbGhvc3QxEjAQBgkqhkiG9w0BCQEWA3RhOTCCASIwDQYJKoZI
hvcNAQEBBQADggEPADCCAQoCggEBALUzJDsJan7tNMca16pgGqKAk9qVFjOe4oZL
heNpxdgWet5VMty8iYNdBqmMoZuE0LSJiwWQD3ksgVzQsAy27HPcIPdYA5j+BuRV
Yy9Wn6yWVR67onCx1f3mV6B/K4LsI1zB1Msmj7TseTAAyz8TPnBmAOdiHq30cdiS
eoczMigbJOC75Itpy0+uLdQ88gMAs4zvc26tcJaAmvNJsGdKdmVX52DZJwqnNc6p
81M3p30qcTO3/PuYFZriZisxf4eklSYrID46FLqoTCPkAnL69p4ME6y/8HkeWeSG
VtHWKraarFgrTOCohjZZknjE9oaTRvMxEkchm2fRDjtyyQvV1DUCAwEAAaNQME4w
HQYDVR0OBBYEFGgnkf85FRqFn3Bj6UCL51tY0Ba8MB8GA1UdIwQYMBaAFGgnkf85
FRqFn3Bj6UCL51tY0Ba8MAwGA1UdEwQFMAMBAf8wDQYJKoZIhvcNAQELBQADggEB
AEKJhD1jG5Gic5LoMwvmfHWVNaXskMje/2N6QpqTMC3Ml2v+U9O/jplErS7wQtGJ
hVId9dmvsRaDDb3EomnTxwxMbSESrk9QIYIBI9AD6fzydjBsejOGyqI9PeSoN9sa
HaWcOKp7GfZ74WA9ns+y4qHFnaMHanX7vYLOPAOOBDL6QUohWYSf87r/6J0Tn1An
a+rTNUCC2GTF6eni0i4Ck/8mH7fOtROFjVuAq5p0UZoZ49e6NYQJjh09C2lSHKaj
AyrNO3EeztrH/NuYZtnVTOb5juQ9zAMq7Y1ENXWSKvfnC+9LCtsYV8WYEVMYRZ5k
KB7MT9WfbdYi163J3eiMBbg=
-----END CERTIFICATE-----
Certificate:
    Data:
        Version: 3 (0x2)
        Serial Number:
            a8:f8:da:a1:8f:5e:62:de
    Signature Algorithm: sha256WithRSAEncryption
        Issuer: C=US, ST=California, L=Santa Clara, O=pkg5, OU=ta10, CN=localhost/emailAddress=ta10
        Validity
            Not Before: Nov 24 01:22:44 2021 GMT
            Not After : Aug 20 01:22:44 2024 GMT
        Subject: C=US, ST=California, L=Santa Clara, O=pkg5, OU=ta10, CN=localhost/emailAddress=ta10
        Subject Public Key Info:
            Public Key Algorithm: rsaEncryption
                Public-Key: (2048 bit)
                Modulus:
                    00:b0:9b:72:91:a7:52:67:f1:7d:2a:f8:b3:1a:61:
                    56:e8:db:63:9a:90:d1:8d:0c:03:bc:35:e8:7f:18:
                    63:04:b2:93:c3:27:8a:2d:d8:24:45:21:2e:24:ac:
                    b2:28:d1:e1:21:d6:13:d0:d6:d2:23:e1:8f:cc:f8:
                    49:cb:6d:af:89:a5:5a:6c:2c:46:d5:81:18:ed:8f:
                    b4:89:0a:45:24:d2:8c:92:a7:c6:15:5f:c4:e6:f8:
                    48:3e:58:d1:a6:10:1c:eb:d5:09:64:50:09:00:c7:
                    80:fb:73:b5:c1:a9:0c:a4:69:0d:68:02:4a:34:3f:
                    28:98:58:7b:00:b8:fd:55:7c:f8:7b:ac:3e:6b:43:
                    fa:3b:0f:b6:c2:7b:2a:b3:7f:f0:d6:01:48:6c:46:
                    1d:1a:57:2d:9c:ee:63:13:2a:b1:80:5c:f2:1c:6d:
                    5e:1c:f6:8d:2e:c3:97:a8:04:61:ae:0a:9a:73:37:
                    51:be:47:2d:8e:4b:b7:99:f7:67:a6:40:99:68:d4:
                    9d:ba:03:59:0a:d6:9f:15:c5:dc:ea:4e:8d:be:7a:
                    a8:1d:05:73:2a:91:fa:c8:83:82:99:d7:8b:47:44:
                    62:20:83:ad:40:de:87:ab:50:23:13:b1:f8:9b:d6:
                    81:4c:9f:0f:2e:19:38:39:75:c6:60:7c:c8:e0:48:
                    d7:a9
                Exponent: 65537 (0x10001)
        X509v3 extensions:
            X509v3 Subject Key Identifier: 
                B6:1B:AD:1F:17:78:A9:ED:AC:6E:D5:59:68:E5:3D:2D:86:2D:48:C9
            X509v3 Authority Key Identifier: 
                keyid:B6:1B:AD:1F:17:78:A9:ED:AC:6E:D5:59:68:E5:3D:2D:86:2D:48:C9

            X509v3 Basic Constraints: 
                CA:TRUE
    Signature Algorithm: sha256WithRSAEncryption
         42:16:e6:95:03:63:63:b3:11:b6:0e:06:b4:b7:8b:3e:76:60:
         6b:d7:6b:b6:45:ca:03:3c:99:f1:5e:a6:86:71:e2:a3:5a:83:
         5a:be:65:41:57:3f:20:4a:c6:e1:f3:d7:3c:52:21:e1:ad:5e:
         fa:7f:b3:54:af:22:9e:ad:6b:fc:df:cd:79:84:44:53:82:08:
         1d:65:65:67:fe:0f:1d:cf:0f:9a:03:69:89:65:4f:b1:aa:7f:
         d6:6b:7e:56:df:37:6b:92:32:7a:9f:66:af:b9:65:4e:b3:7e:
         8e:02:64:a2:c6:15:2e:04:7f:40:30:d9:4a:9d:b3:7a:8e:f7:
         8d:86:85:57:22:07:39:dd:59:2f:67:94:d5:c2:82:b4:b4:ec:
         b8:5c:e3:37:e3:8b:49:01:2a:1b:d8:b9:78:58:06:1d:7a:fb:
         61:5f:87:5f:a1:d5:fe:45:62:94:31:4d:a1:94:56:06:f8:9d:
         e0:76:b3:58:95:c8:02:73:f4:91:c5:5e:80:6a:da:2a:e4:d6:
         60:0d:cb:ba:54:61:07:12:2d:40:d7:18:05:51:8b:63:08:7b:
         4c:8e:36:89:3c:8f:27:dd:69:f5:6d:29:ed:b8:a4:b2:b4:cc:
         0d:9e:06:c5:ac:69:db:61:ef:99:69:5b:ec:27:a0:4b:5c:d1:
         22:1b:74:01
-----BEGIN CERTIFICATE-----
MIID0TCCArmgAwIBAgIJAKj42qGPXmLeMA0GCSqGSIb3DQEBCwUAMH8xCzAJBgNV
BAYTAlVTMRMwEQYDVQQIDApDYWxpZm9ybmlhMRQwEgYDVQQHDAtTYW50YSBDbGFy
YTENMAsGA1UECgwEcGtnNTENMAsGA1UECwwEdGExMDESMBAGA1UEAwwJbG9jYWxo
b3N0MRMwEQYJKoZIhvcNAQkBFgR0YTEwMB4XDTIxMTEyNDAxMjI0NFoXDTI0MDgy
MDAxMjI0NFowfzELMAkGA1UEBhMCVVMxEzARBgNVBAgMCkNhbGlmb3JuaWExFDAS
BgNVBAcMC1NhbnRhIENsYXJhMQ0wCwYDVQQKDARwa2c1MQ0wCwYDVQQLDAR0YTEw
MRIwEAYDVQQDDAlsb2NhbGhvc3QxEzARBgkqhkiG9w0BCQEWBHRhMTAwggEiMA0G
CSqGSIb3DQEBAQUAA4IBDwAwggEKAoIBAQCwm3KRp1Jn8X0q+LMaYVbo22OakNGN
DAO8Neh/GGMEspPDJ4ot2CRFIS4krLIo0eEh1hPQ1tIj4Y/M+EnLba+JpVpsLEbV
gRjtj7SJCkUk0oySp8YVX8Tm+Eg+WNGmEBzr1QlkUAkAx4D7c7XBqQykaQ1oAko0
PyiYWHsAuP1VfPh7rD5rQ/o7D7bCeyqzf/DWAUhsRh0aVy2c7mMTKrGAXPIcbV4c
9o0uw5eoBGGuCppzN1G+Ry2OS7eZ92emQJlo1J26A1kK1p8VxdzqTo2+eqgdBXMq
kfrIg4KZ14tHRGIgg61A3oerUCMTsfib1oFMnw8uGTg5dcZgfMjgSNepAgMBAAGj
UDBOMB0GA1UdDgQWBBS2G60fF3ip7axu1Vlo5T0thi1IyTAfBgNVHSMEGDAWgBS2
G60fF3ip7axu1Vlo5T0thi1IyTAMBgNVHRMEBTADAQH/MA0GCSqGSIb3DQEBCwUA
A4IBAQBCFuaVA2NjsxG2Dga0t4s+dmBr12u2RcoDPJnxXqaGceKjWoNavmVBVz8g
Ssbh89c8UiHhrV76f7NUryKerWv83815hERTgggdZWVn/g8dzw+aA2mJZU+xqn/W
a35W3zdrkjJ6n2avuWVOs36OAmSixhUuBH9AMNlKnbN6jveNhoVXIgc53VkvZ5TV
woK0tOy4XOM344tJASob2Ll4WAYdevthX4dfodX+RWKUMU2hlFYG+J3gdrNYlcgC
c/SRxV6Aatoq5NZgDcu6VGEHEi1A1xgFUYtjCHtMjjaJPI8n3Wn1bSntuKSytMwN
ngbFrGnbYe+ZaVvsJ6BLXNEiG3QB
-----END CERTIFICATE-----
Certificate:
    Data:
        Version: 3 (0x2)
        Serial Number:
            84:49:02:49:20:6a:dd:f8
    Signature Algorithm: sha256WithRSAEncryption
        Issuer: C=US, ST=California, L=Santa Clara, O=pkg5, OU=ta11, CN=localhost/emailAddress=ta11
        Validity
            Not Before: Nov 24 01:22:45 2021 GMT
            Not After : Aug 20 01:22:45 2024 GMT
        Subject: C=US, ST=California, L=Santa Clara, O=pkg5, OU=ta11, CN=localhost/emailAddress=ta11
        Subject Public Key Info:
            Public Key Algorithm: rsaEncryption
                Public-Key: (2048 bit)
                Modulus:
                    00:af:5d:95:4a:1b:91:b0:ba:07:36:e0:aa:18:c1:
                    a3:85:35:7a:79:51:b9:1a:9a:b2:b8:8c:8d:88:9e:
                    e2:94:49:49:98:39:2d:0e:e2:00:cc:f6:58:95:ba:
                    5c:9f:67:bc:09:fb:9b:88:38:3f:ff:76:f2:42:06:
                    ab:53:0d:85:31:1b:28:d5:83:74:e5:bd:1b:15:1b:
                    03:1b:51:71:92:f6:2d:c4:98:27:16:27:0f:ed:de:
                    03:18:12:26:de:8c:f3:30:53:1f:f2:f7:8f:47:f8:
                    97:fb:61:ee:b5:d1:78:d4:ff:9e:07:95:c6:08:5e:
                    4a:08:f2:c7:d5:3e:5f:cf:4c:97:20:72:0d:aa:82:
                    82:1e:3f:3b:98:21:7a:12:a8:34:8f:d4:1e:66:f0:
                    83:66:a4:1c:99:cb:d7:d9:ca:7d:e5:ee:06:bc:06:
                    29:2b:e2:7d:a0:ea:2a:53:91:d5:41:30:0c:53:24:
                    1b:1a:ee:66:19:cd:2d:57:cd:5c:12:31:d8:6b:1a:
                    1b:05:21:b9:09:fd:ba:7d:bc:d6:f7:23:22:f8:aa:
                    c3:83:04:a5:af:6b:42:ad:c0:42:b3:29:9e:6e:87:
                    ef:9d:d2:01:e8:03:43:e0:8b:58:b0:68:cc:1a:55:
                    41:58:e1:71:cb:2a:8b:54:c9:c0:51:4b:ca:36:3d:
                    2a:8b
                Exponent: 65537 (0x10001)
        X509v3 extensions:
            X509v3 Subject Key Identifier: 
                46:F4:F9:F5:13:AB:77:DB:16:9E:A9:90:E0:5E:91:71:BE:14:33:25
            X509v3 Authority Key Identifier: 
                keyid:46:F4:F9:F5:13:AB:77:DB:16:9E:A9:90:E0:5E:91:71:BE:14:33:25

            X509v3 Basic Constraints: 
                CA:TRUE
    Signature Algorithm: sha256WithRSAEncryption
         47:22:bc:d9:d0:7d:24:18:17:ed:c8:e3:69:8b:20:20:fa:54:
         e4:b2:9a:90:59:b8:ac:0a:d5:db:b8:90:35:96:e8:f1:4a:b9:
         8d:15:99:3f:4f:41:95:c0:9f:d1:92:92:fb:c9:71:21:3e:ba:
         56:ca:c6:6b:00:91:5b:4a:4a:31:84:d3:39:c1:ea:ad:41:7e:
         2e:a8:8d:66:89:b5:e2:89:91:38:e7:ff:c4:2f:90:8f:44:e5:
         06:ee:b3:60:18:b4:27:35:a8:54:80:ad:f6:13:5a:dd:54:ee:
         43:96:39:c6:fa:07:12:c7:f0:0a:54:b1:31:0f:82:19:8c:c3:
         d5:cb:d6:b0:68:3c:13:bc:61:50:ee:2d:2d:51:d8:08:83:18:
         6e:75:c4:b8:51:05:18:96:81:7f:62:ed:c2:f1:68:7b:08:b1:
         59:29:d9:ce:75:06:79:a3:e6:21:2f:72:8f:af:38:2a:e1:d8:
         df:e6:10:2a:40:8f:f6:5d:04:5e:f4:a7:a7:51:7f:8d:12:be:
         8b:95:8d:82:0b:72:fe:5e:9f:76:d7:0f:7c:cb:bc:33:c3:0c:
         b3:bd:cb:b3:cd:99:14:4e:32:a1:a1:62:48:e5:73:fd:fc:29:
         c1:4b:77:66:6d:c0:f8:b5:1a:1b:bc:52:04:b5:b7:2b:95:3a:
         4d:7e:66:4c
-----BEGIN CERTIFICATE-----
MIID0TCCArmgAwIBAgIJAIRJAkkgat34MA0GCSqGSIb3DQEBCwUAMH8xCzAJBgNV
BAYTAlVTMRMwEQYDVQQIDApDYWxpZm9ybmlhMRQwEgYDVQQHDAtTYW50YSBDbGFy
YTENMAsGA1UECgwEcGtnNTENMAsGA1UECwwEdGExMTESMBAGA1UEAwwJbG9jYWxo
b3N0MRMwEQYJKoZIhvcNAQkBFgR0YTExMB4XDTIxMTEyNDAxMjI0NVoXDTI0MDgy
MDAxMjI0NVowfzELMAkGA1UEBhMCVVMxEzARBgNVBAgMCkNhbGlmb3JuaWExFDAS
BgNVBAcMC1NhbnRhIENsYXJhMQ0wCwYDVQQKDARwa2c1MQ0wCwYDVQQLDAR0YTEx
MRIwEAYDVQQDDAlsb2NhbGhvc3QxEzARBgkqhkiG9w0BCQEWBHRhMTEwggEiMA0G
CSqGSIb3DQEBAQUAA4IBDwAwggEKAoIBAQCvXZVKG5Gwugc24KoYwaOFNXp5Ubka
mrK4jI2InuKUSUmYOS0O4gDM9liVulyfZ7wJ+5uIOD//dvJCBqtTDYUxGyjVg3Tl
vRsVGwMbUXGS9i3EmCcWJw/t3gMYEibejPMwUx/y949H+Jf7Ye610XjU/54HlcYI
XkoI8sfVPl/PTJcgcg2qgoIePzuYIXoSqDSP1B5m8INmpByZy9fZyn3l7ga8Bikr
4n2g6ipTkdVBMAxTJBsa7mYZzS1XzVwSMdhrGhsFIbkJ/bp9vNb3IyL4qsODBKWv
a0KtwEKzKZ5uh++d0gHoA0Pgi1iwaMwaVUFY4XHLKotUycBRS8o2PSqLAgMBAAGj
UDBOMB0GA1UdDgQWBBRG9Pn1E6t32xaeqZDgXpFxvhQzJTAfBgNVHSMEGDAWgBRG
9Pn1E6t32xaeqZDgXpFxvhQzJTAMBgNVHRMEBTADAQH/MA0GCSqGSIb3DQEBCwUA
A4IBAQBHIrzZ0H0kGBftyONpiyAg+lTkspqQWbisCtXbuJA1lujxSrmNFZk/T0GV
wJ/RkpL7yXEhPrpWysZrAJFbSkoxhNM5weqtQX4uqI1mibXiiZE45//EL5CPROUG
7rNgGLQnNahUgK32E1rdVO5DljnG+gcSx/AKVLExD4IZjMPVy9awaDwTvGFQ7i0t
UdgIgxhudcS4UQUYloF/Yu3C8Wh7CLFZKdnOdQZ5o+YhL3KPrzgq4djf5hAqQI/2
XQRe9KenUX+NEr6LlY2CC3L+Xp921w98y7wzwwyzvcuzzZkUTjKhoWJI5XP9/CnB
S3dmbcD4tRobvFIEtbcrlTpNfmZM
-----END CERTIFICATE-----
