Certificate:
    Data:
        Version: 3 (0x2)
        Serial Number:
            ef:5d:87:4d:88:be:cd:fe
    Signature Algorithm: sha256WithRSAEncryption
        Issuer: C=US, ST=California, L=Santa Clara, O=pkg5, OU=ta6, CN=localhost/emailAddress=ta6
        Validity
            Not Before: Nov 11 12:38:34 2017 GMT
            Not After : Aug  7 12:38:34 2020 GMT
        Subject: C=US, ST=California, L=Santa Clara, O=pkg5, OU=ta6, CN=localhost/emailAddress=ta6
        Subject Public Key Info:
            Public Key Algorithm: rsaEncryption
                Public-Key: (2048 bit)
                Modulus:
                    00:b6:2b:65:25:5d:cd:1e:04:cf:04:62:40:8e:f9:
                    cd:33:75:26:91:17:e6:62:6d:a2:93:95:31:ae:6b:
                    af:99:d3:45:3a:be:52:fb:48:50:82:e8:28:02:dc:
                    d2:c2:94:0c:f5:7d:60:d4:ab:2a:ed:e9:28:35:84:
                    de:e9:af:4c:9a:c9:65:09:ef:5f:de:15:a1:d6:9b:
                    d3:eb:87:d4:6e:e2:56:2e:ad:84:67:b5:2b:b4:62:
                    66:70:79:7e:64:f0:17:50:51:48:98:9f:8b:ff:43:
                    d4:4b:d2:f8:8f:2c:6b:57:17:48:e7:db:11:f5:0f:
                    ac:9a:33:f9:71:fa:fc:80:86:c5:cd:74:52:7d:2f:
                    a2:e8:3b:59:64:19:97:6c:e6:e2:31:00:b8:a2:72:
                    8f:c1:76:d2:bc:93:f9:d8:d1:d3:bc:87:f3:62:9c:
                    c4:b9:92:12:f5:60:37:74:b8:90:87:a2:af:4f:e4:
                    66:ef:29:4f:f1:a5:cb:19:7a:74:2e:91:a6:2c:59:
                    a5:e9:93:37:b2:6b:e0:03:2d:45:2e:60:06:6b:99:
                    66:e3:79:d3:50:8b:3a:2c:aa:1d:ba:8e:04:f9:92:
                    7a:e8:e1:98:c5:11:b8:a2:f4:7e:8e:98:a6:8a:b4:
                    e6:54:3a:1c:0a:74:b2:8b:e7:b5:26:a6:1d:56:b0:
                    ae:0f
                Exponent: 65537 (0x10001)
        X509v3 extensions:
            X509v3 Subject Key Identifier: 
                D1:87:1D:B2:30:1A:E7:E4:E3:7C:FE:79:5A:82:D7:EA:CF:C9:58:C9
            X509v3 Authority Key Identifier: 
                keyid:D1:87:1D:B2:30:1A:E7:E4:E3:7C:FE:79:5A:82:D7:EA:CF:C9:58:C9

            X509v3 Basic Constraints: 
                CA:TRUE
    Signature Algorithm: sha256WithRSAEncryption
         29:b3:49:c2:2d:02:ac:d1:cd:23:5f:23:f0:f3:9d:4a:0b:a1:
         81:39:f8:96:96:17:c1:e2:3f:46:b8:44:df:3e:08:68:a1:66:
         2e:ff:56:b1:a3:df:cf:0f:84:35:5c:53:3f:2d:b2:f7:92:71:
         b7:a8:b8:08:38:86:53:c2:ae:2a:dd:8b:ed:28:ee:0b:e8:4c:
         00:15:cb:82:d7:75:b5:b6:17:68:c6:88:f7:33:2b:ed:58:b3:
         56:20:a6:9c:af:c0:14:a6:6e:79:7f:db:d8:da:55:52:47:7d:
         21:8e:c8:6e:27:1c:71:06:c5:64:65:9a:1b:ea:91:4f:b1:fd:
         ba:11:91:d9:ee:75:36:de:82:ee:15:18:05:7d:41:28:d8:65:
         3c:91:76:01:b0:53:ba:55:85:f7:f6:d0:8f:39:db:a6:66:84:
         b1:3a:65:20:b4:96:81:a3:06:ae:36:21:84:05:57:d1:a1:6b:
         b0:8a:9c:51:22:47:0f:2f:cb:9c:3e:b5:65:ca:72:5b:56:69:
         bf:30:95:f1:18:9e:b0:6d:48:8d:3f:5d:08:7b:2f:28:30:f5:
         d6:32:4d:0d:b8:5c:56:c3:06:08:50:08:b3:48:3c:60:c5:db:
         ac:7c:01:9a:84:7b:5e:ae:41:06:51:72:a2:eb:12:38:90:cb:
         42:a1:91:65
-----BEGIN CERTIFICATE-----
MIIDzTCCArWgAwIBAgIJAO9dh02Ivs3+MA0GCSqGSIb3DQEBCwUAMH0xCzAJBgNV
BAYTAlVTMRMwEQYDVQQIDApDYWxpZm9ybmlhMRQwEgYDVQQHDAtTYW50YSBDbGFy
YTENMAsGA1UECgwEcGtnNTEMMAoGA1UECwwDdGE2MRIwEAYDVQQDDAlsb2NhbGhv
c3QxEjAQBgkqhkiG9w0BCQEWA3RhNjAeFw0xNzExMTExMjM4MzRaFw0yMDA4MDcx
MjM4MzRaMH0xCzAJBgNVBAYTAlVTMRMwEQYDVQQIDApDYWxpZm9ybmlhMRQwEgYD
VQQHDAtTYW50YSBDbGFyYTENMAsGA1UECgwEcGtnNTEMMAoGA1UECwwDdGE2MRIw
EAYDVQQDDAlsb2NhbGhvc3QxEjAQBgkqhkiG9w0BCQEWA3RhNjCCASIwDQYJKoZI
hvcNAQEBBQADggEPADCCAQoCggEBALYrZSVdzR4EzwRiQI75zTN1JpEX5mJtopOV
Ma5rr5nTRTq+UvtIUILoKALc0sKUDPV9YNSrKu3pKDWE3umvTJrJZQnvX94Vodab
0+uH1G7iVi6thGe1K7RiZnB5fmTwF1BRSJifi/9D1EvS+I8sa1cXSOfbEfUPrJoz
+XH6/ICGxc10Un0voug7WWQZl2zm4jEAuKJyj8F20ryT+djR07yH82KcxLmSEvVg
N3S4kIeir0/kZu8pT/Glyxl6dC6RpixZpemTN7Jr4AMtRS5gBmuZZuN501CLOiyq
HbqOBPmSeujhmMURuKL0fo6Ypoq05lQ6HAp0sovntSamHVawrg8CAwEAAaNQME4w
HQYDVR0OBBYEFNGHHbIwGufk43z+eVqC1+rPyVjJMB8GA1UdIwQYMBaAFNGHHbIw
Gufk43z+eVqC1+rPyVjJMAwGA1UdEwQFMAMBAf8wDQYJKoZIhvcNAQELBQADggEB
ACmzScItAqzRzSNfI/DznUoLoYE5+JaWF8HiP0a4RN8+CGihZi7/VrGj388PhDVc
Uz8tsveScbeouAg4hlPCrirdi+0o7gvoTAAVy4LXdbW2F2jGiPczK+1Ys1Ygppyv
wBSmbnl/29jaVVJHfSGOyG4nHHEGxWRlmhvqkU+x/boRkdnudTbegu4VGAV9QSjY
ZTyRdgGwU7pVhff20I8526ZmhLE6ZSC0loGjBq42IYQFV9Gha7CKnFEiRw8vy5w+
tWXKcltWab8wlfEYnrBtSI0/XQh7Lygw9dYyTQ24XFbDBghQCLNIPGDF26x8AZqE
e16uQQZRcqLrEjiQy0KhkWU=
-----END CERTIFICATE-----
Certificate:
    Data:
        Version: 3 (0x2)
        Serial Number:
            a7:b5:2f:13:ae:57:92:9c
    Signature Algorithm: sha256WithRSAEncryption
        Issuer: C=US, ST=California, L=Santa Clara, O=pkg5, OU=ta8, CN=localhost/emailAddress=ta8
        Validity
            Not Before: Nov 11 12:38:34 2017 GMT
            Not After : Aug  7 12:38:34 2020 GMT
        Subject: C=US, ST=California, L=Santa Clara, O=pkg5, OU=ta8, CN=localhost/emailAddress=ta8
        Subject Public Key Info:
            Public Key Algorithm: rsaEncryption
                Public-Key: (2048 bit)
                Modulus:
                    00:d1:02:2e:3a:04:bc:92:fa:fe:1e:81:5d:36:a4:
                    ca:7b:37:ab:f0:80:7f:60:4e:a6:f6:45:00:3f:1e:
                    57:da:4b:bc:9c:65:92:86:f5:71:18:ee:66:8f:a0:
                    95:29:45:01:ed:dc:6b:51:1e:a7:82:69:4b:0b:63:
                    1f:76:f6:cd:6e:d8:e8:46:74:4f:89:d5:57:29:f2:
                    f8:c3:9e:11:32:66:83:ef:e7:91:15:ac:27:79:09:
                    75:f9:16:8b:77:0b:46:c5:de:c6:7e:77:cc:9b:86:
                    57:72:17:dc:53:9a:d9:18:e3:c8:cd:d9:b1:b7:4e:
                    9a:b6:fe:e7:93:76:26:04:45:1d:9b:3b:35:f5:3f:
                    c6:f5:2b:4e:0e:5b:68:79:5c:00:1c:85:1f:3d:b0:
                    93:fb:a9:03:c2:7e:3b:a7:75:42:72:35:a6:0f:de:
                    ce:6d:db:11:25:7f:b0:8f:68:76:31:41:cc:dc:93:
                    62:dc:1c:80:67:f6:1d:6e:d5:44:7b:f8:cb:e8:cd:
                    52:27:08:8d:96:8b:8a:32:14:91:cc:a4:b9:35:5c:
                    9a:e6:cc:95:bf:e3:b1:b0:b8:11:4a:57:0f:88:42:
                    5a:bc:d9:2b:66:9a:a4:73:26:41:b1:c3:20:52:42:
                    e0:8d:ea:ed:b5:d5:42:71:10:bb:f7:9c:06:4e:72:
                    c5:e7
                Exponent: 65537 (0x10001)
        X509v3 extensions:
            X509v3 Subject Key Identifier: 
                EB:D1:06:90:D7:1D:02:60:D2:BD:C1:1E:18:27:51:A5:81:A1:41:D0
            X509v3 Authority Key Identifier: 
                keyid:EB:D1:06:90:D7:1D:02:60:D2:BD:C1:1E:18:27:51:A5:81:A1:41:D0

            X509v3 Basic Constraints: 
                CA:TRUE
    Signature Algorithm: sha256WithRSAEncryption
         69:55:be:59:f8:70:11:ae:e1:18:03:4a:7f:e3:55:d5:80:da:
         2f:9f:94:98:7e:80:11:d0:ad:b3:4f:34:0e:17:11:30:a6:af:
         09:4d:b0:85:3b:13:8c:50:dd:a3:aa:3d:93:7c:b0:f3:21:54:
         a8:46:b9:f9:74:86:97:74:4c:60:22:4c:eb:b6:43:ad:c9:a0:
         61:0e:df:14:7a:36:b2:4c:aa:b8:71:84:fa:0e:0a:61:dd:31:
         d3:88:7a:d8:cb:53:c3:5b:c7:f7:cb:c2:cc:96:bb:ca:e4:9c:
         c1:7a:45:08:0a:d4:bc:7c:3a:d4:45:21:18:93:46:f7:0a:84:
         2b:4e:a8:a7:74:34:0e:25:e2:1b:e7:15:a3:f4:e6:4d:35:86:
         84:8c:8b:c8:4c:09:d9:b8:82:b3:0d:3e:20:30:0f:0a:e8:74:
         75:1b:0f:10:d1:fc:bf:13:fb:9a:4f:36:cf:ba:9e:9c:a9:04:
         b7:bc:dd:82:bc:e6:28:42:99:7a:ec:62:1a:f0:0a:9d:02:09:
         85:c4:cc:7a:c8:2c:95:a8:0a:64:e3:28:77:6e:c6:04:4c:6a:
         0e:f4:64:ca:1c:bd:a2:1d:21:93:e9:63:6d:02:dc:4d:a8:dd:
         c8:36:18:9c:62:21:2a:0b:32:c3:2f:f1:29:c4:1d:5f:57:7e:
         65:c0:92:2e
-----BEGIN CERTIFICATE-----
MIIDzTCCArWgAwIBAgIJAKe1LxOuV5KcMA0GCSqGSIb3DQEBCwUAMH0xCzAJBgNV
BAYTAlVTMRMwEQYDVQQIDApDYWxpZm9ybmlhMRQwEgYDVQQHDAtTYW50YSBDbGFy
YTENMAsGA1UECgwEcGtnNTEMMAoGA1UECwwDdGE4MRIwEAYDVQQDDAlsb2NhbGhv
c3QxEjAQBgkqhkiG9w0BCQEWA3RhODAeFw0xNzExMTExMjM4MzRaFw0yMDA4MDcx
MjM4MzRaMH0xCzAJBgNVBAYTAlVTMRMwEQYDVQQIDApDYWxpZm9ybmlhMRQwEgYD
VQQHDAtTYW50YSBDbGFyYTENMAsGA1UECgwEcGtnNTEMMAoGA1UECwwDdGE4MRIw
EAYDVQQDDAlsb2NhbGhvc3QxEjAQBgkqhkiG9w0BCQEWA3RhODCCASIwDQYJKoZI
hvcNAQEBBQADggEPADCCAQoCggEBANECLjoEvJL6/h6BXTakyns3q/CAf2BOpvZF
AD8eV9pLvJxlkob1cRjuZo+glSlFAe3ca1Eep4JpSwtjH3b2zW7Y6EZ0T4nVVyny
+MOeETJmg+/nkRWsJ3kJdfkWi3cLRsXexn53zJuGV3IX3FOa2RjjyM3ZsbdOmrb+
55N2JgRFHZs7NfU/xvUrTg5baHlcAByFHz2wk/upA8J+O6d1QnI1pg/ezm3bESV/
sI9odjFBzNyTYtwcgGf2HW7VRHv4y+jNUicIjZaLijIUkcykuTVcmubMlb/jsbC4
EUpXD4hCWrzZK2aapHMmQbHDIFJC4I3q7bXVQnEQu/ecBk5yxecCAwEAAaNQME4w
HQYDVR0OBBYEFOvRBpDXHQJg0r3BHhgnUaWBoUHQMB8GA1UdIwQYMBaAFOvRBpDX
HQJg0r3BHhgnUaWBoUHQMAwGA1UdEwQFMAMBAf8wDQYJKoZIhvcNAQELBQADggEB
AGlVvln4cBGu4RgDSn/jVdWA2i+flJh+gBHQrbNPNA4XETCmrwlNsIU7E4xQ3aOq
PZN8sPMhVKhGufl0hpd0TGAiTOu2Q63JoGEO3xR6NrJMqrhxhPoOCmHdMdOIetjL
U8Nbx/fLwsyWu8rknMF6RQgK1Lx8OtRFIRiTRvcKhCtOqKd0NA4l4hvnFaP05k01
hoSMi8hMCdm4grMNPiAwDwrodHUbDxDR/L8T+5pPNs+6npypBLe83YK85ihCmXrs
YhrwCp0CCYXEzHrILJWoCmTjKHduxgRMag70ZMocvaIdIZPpY20C3E2o3cg2GJxi
ISoLMsMv8SnEHV9XfmXAki4=
-----END CERTIFICATE-----
Certificate:
    Data:
        Version: 3 (0x2)
        Serial Number:
            ad:70:79:75:a6:e6:a1:cb
    Signature Algorithm: sha256WithRSAEncryption
        Issuer: C=US, ST=California, L=Santa Clara, O=pkg5, OU=ta9, CN=localhost/emailAddress=ta9
        Validity
            Not Before: Nov 11 12:38:34 2017 GMT
            Not After : Aug  7 12:38:34 2020 GMT
        Subject: C=US, ST=California, L=Santa Clara, O=pkg5, OU=ta9, CN=localhost/emailAddress=ta9
        Subject Public Key Info:
            Public Key Algorithm: rsaEncryption
                Public-Key: (2048 bit)
                Modulus:
                    00:be:b7:47:8a:5a:25:3f:b9:05:b6:e3:35:a5:0a:
                    50:1f:af:8b:66:f2:e2:64:78:db:54:23:ca:9a:73:
                    3c:e4:cf:95:f8:da:36:46:39:80:fa:a4:7b:5e:13:
                    56:ac:77:99:67:40:a4:b9:75:18:5f:d0:ab:a8:f8:
                    b9:e8:01:38:4d:9a:22:a0:ee:a8:2f:59:a2:2c:7f:
                    54:96:c7:10:ec:ac:36:4d:5e:fa:7d:9c:49:4f:48:
                    b8:4f:29:9d:b4:45:6b:48:82:50:e6:9e:a2:eb:b6:
                    cd:9f:33:23:19:e1:10:d9:63:8c:71:4c:2f:a1:5c:
                    3f:6e:5f:b7:f1:67:14:df:ac:fd:86:f7:bc:23:6d:
                    01:cf:80:e4:a5:71:52:01:3f:c4:31:52:c8:67:ef:
                    92:e9:cd:77:9e:17:14:49:df:8a:9c:79:43:a7:67:
                    af:4b:df:92:80:a9:74:4c:44:0a:11:67:d7:a9:67:
                    27:a9:bc:2f:e6:dc:c3:cb:c3:21:ee:c4:bc:3a:ed:
                    2a:7b:bf:c9:6d:df:cc:37:15:67:ca:3e:13:1f:23:
                    2e:d8:b2:22:a5:d2:a0:a0:51:67:b4:e5:36:2e:58:
                    1b:9b:48:bd:c7:14:63:db:60:1d:c4:e5:76:3e:16:
                    c3:b2:a4:f7:51:79:53:cb:88:b3:4a:0b:90:a8:3b:
                    79:4b
                Exponent: 65537 (0x10001)
        X509v3 extensions:
            X509v3 Subject Key Identifier: 
                38:61:AC:5D:CB:94:34:F6:53:27:76:A4:F4:5D:EA:A2:DF:A8:72:5A
            X509v3 Authority Key Identifier: 
                keyid:38:61:AC:5D:CB:94:34:F6:53:27:76:A4:F4:5D:EA:A2:DF:A8:72:5A

            X509v3 Basic Constraints: 
                CA:TRUE
    Signature Algorithm: sha256WithRSAEncryption
         69:ec:0b:1f:00:69:db:15:41:5d:a6:57:a9:8f:31:52:69:0a:
         86:cc:f1:98:75:78:67:5e:87:b3:f2:bd:a6:12:76:ec:b7:32:
         cd:82:9b:22:4e:11:c2:7f:cd:4d:01:31:9b:79:ed:e7:e7:4b:
         88:49:8b:5b:a3:af:7b:f2:3d:33:75:4b:5f:40:6d:ee:4f:79:
         76:20:49:71:3d:c8:38:7f:11:18:4f:d3:a1:70:cd:2e:14:bb:
         98:88:c4:92:21:11:b0:fb:9f:26:25:11:91:63:de:7e:87:13:
         a5:d6:4f:38:80:52:61:d8:d1:49:fc:ac:22:b6:ea:65:98:97:
         d1:87:d9:02:43:8c:3c:f2:48:9b:d6:39:18:59:3d:5c:1a:17:
         02:54:e2:14:7d:07:48:4b:5c:72:16:bf:e5:c2:7b:60:3e:a2:
         e2:d3:b3:c4:b2:57:2a:a5:6f:f3:a7:9d:9f:62:cd:ad:e7:10:
         75:ce:df:e8:d0:84:85:d9:6c:79:fc:4a:ad:38:93:8b:b3:45:
         0d:9d:38:24:cd:c5:1f:5f:51:d0:47:ca:33:ff:c3:48:e9:aa:
         4c:0c:cd:ab:5c:fb:86:2b:de:82:1b:3f:38:27:70:4c:c5:a4:
         20:0e:ff:1a:e6:b1:e0:4d:72:20:01:44:6d:37:82:c4:42:57:
         33:a9:38:11
-----BEGIN CERTIFICATE-----
MIIDzTCCArWgAwIBAgIJAK1weXWm5qHLMA0GCSqGSIb3DQEBCwUAMH0xCzAJBgNV
BAYTAlVTMRMwEQYDVQQIDApDYWxpZm9ybmlhMRQwEgYDVQQHDAtTYW50YSBDbGFy
YTENMAsGA1UECgwEcGtnNTEMMAoGA1UECwwDdGE5MRIwEAYDVQQDDAlsb2NhbGhv
c3QxEjAQBgkqhkiG9w0BCQEWA3RhOTAeFw0xNzExMTExMjM4MzRaFw0yMDA4MDcx
MjM4MzRaMH0xCzAJBgNVBAYTAlVTMRMwEQYDVQQIDApDYWxpZm9ybmlhMRQwEgYD
VQQHDAtTYW50YSBDbGFyYTENMAsGA1UECgwEcGtnNTEMMAoGA1UECwwDdGE5MRIw
EAYDVQQDDAlsb2NhbGhvc3QxEjAQBgkqhkiG9w0BCQEWA3RhOTCCASIwDQYJKoZI
hvcNAQEBBQADggEPADCCAQoCggEBAL63R4paJT+5BbbjNaUKUB+vi2by4mR421Qj
yppzPOTPlfjaNkY5gPqke14TVqx3mWdApLl1GF/Qq6j4uegBOE2aIqDuqC9Zoix/
VJbHEOysNk1e+n2cSU9IuE8pnbRFa0iCUOaeouu2zZ8zIxnhENljjHFML6FcP25f
t/FnFN+s/Yb3vCNtAc+A5KVxUgE/xDFSyGfvkunNd54XFEnfipx5Q6dnr0vfkoCp
dExEChFn16lnJ6m8L+bcw8vDIe7EvDrtKnu/yW3fzDcVZ8o+Ex8jLtiyIqXSoKBR
Z7TlNi5YG5tIvccUY9tgHcTldj4Ww7Kk91F5U8uIs0oLkKg7eUsCAwEAAaNQME4w
HQYDVR0OBBYEFDhhrF3LlDT2Uyd2pPRd6qLfqHJaMB8GA1UdIwQYMBaAFDhhrF3L
lDT2Uyd2pPRd6qLfqHJaMAwGA1UdEwQFMAMBAf8wDQYJKoZIhvcNAQELBQADggEB
AGnsCx8AadsVQV2mV6mPMVJpCobM8Zh1eGdeh7PyvaYSduy3Ms2CmyJOEcJ/zU0B
MZt57efnS4hJi1ujr3vyPTN1S19Abe5PeXYgSXE9yDh/ERhP06FwzS4Uu5iIxJIh
EbD7nyYlEZFj3n6HE6XWTziAUmHY0Un8rCK26mWYl9GH2QJDjDzySJvWORhZPVwa
FwJU4hR9B0hLXHIWv+XCe2A+ouLTs8SyVyqlb/OnnZ9iza3nEHXO3+jQhIXZbHn8
Sq04k4uzRQ2dOCTNxR9fUdBHyjP/w0jpqkwMzatc+4Yr3oIbPzgncEzFpCAO/xrm
seBNciABRG03gsRCVzOpOBE=
-----END CERTIFICATE-----
Certificate:
    Data:
        Version: 3 (0x2)
        Serial Number:
            f9:12:88:84:5b:02:10:40
    Signature Algorithm: sha256WithRSAEncryption
        Issuer: C=US, ST=California, L=Santa Clara, O=pkg5, OU=ta10, CN=localhost/emailAddress=ta10
        Validity
            Not Before: Nov 11 12:38:34 2017 GMT
            Not After : Aug  7 12:38:34 2020 GMT
        Subject: C=US, ST=California, L=Santa Clara, O=pkg5, OU=ta10, CN=localhost/emailAddress=ta10
        Subject Public Key Info:
            Public Key Algorithm: rsaEncryption
                Public-Key: (2048 bit)
                Modulus:
                    00:bf:b4:36:59:a6:77:88:7a:e4:ba:e5:ab:9c:d5:
                    6d:02:f0:3a:73:5a:0c:07:f0:fa:96:6d:42:2a:06:
                    22:2b:4e:94:bf:8b:43:7c:bd:18:51:32:fc:2e:7b:
                    cc:7a:ce:d3:8c:de:ec:2f:75:5a:27:1e:03:b4:48:
                    1e:6c:7b:45:19:d3:68:f5:17:20:6f:94:c7:ed:72:
                    b5:33:96:fe:01:6b:c7:58:87:bc:03:5c:f4:10:58:
                    01:73:9c:b5:0a:29:42:12:6f:2d:ad:ae:ed:8f:7a:
                    dc:ff:9c:b5:56:d2:22:3b:5a:b0:1c:d1:77:54:1e:
                    ec:03:39:4b:10:45:7a:64:a0:37:fd:1d:7e:80:7d:
                    ae:24:f6:a3:12:13:50:99:4d:68:64:f9:44:5f:9b:
                    89:bd:57:be:d1:a1:76:09:56:b7:21:f8:2a:84:f1:
                    14:5b:b5:6e:07:2d:53:e7:06:f3:77:ad:24:c2:bd:
                    d8:0c:64:14:e2:70:56:89:25:4f:94:3a:5b:8d:4d:
                    d7:81:33:63:a4:da:40:9a:5b:76:f9:7b:1e:ab:c3:
                    9b:4e:c9:e7:79:20:4f:4e:db:a4:8d:b1:2a:5a:f7:
                    6b:e4:43:64:f2:21:f5:64:c7:2d:bb:f4:03:a8:90:
                    5e:cc:5b:04:23:12:a8:d5:b0:30:7a:d2:b8:a7:60:
                    ee:0b
                Exponent: 65537 (0x10001)
        X509v3 extensions:
            X509v3 Subject Key Identifier: 
                A9:85:85:57:C5:20:BF:CB:7A:43:2B:17:6B:23:61:3F:3F:16:4B:5A
            X509v3 Authority Key Identifier: 
                keyid:A9:85:85:57:C5:20:BF:CB:7A:43:2B:17:6B:23:61:3F:3F:16:4B:5A

            X509v3 Basic Constraints: 
                CA:TRUE
    Signature Algorithm: sha256WithRSAEncryption
         92:33:86:2f:6c:d3:7b:af:78:b5:bb:0d:1a:1e:ed:3b:ba:ec:
         7a:25:a3:cf:8b:ef:dd:98:88:4e:5f:c6:a7:4c:70:ed:01:7d:
         51:33:35:cd:43:38:11:88:62:4e:ab:da:78:2b:ab:e8:f0:b4:
         56:50:92:ee:63:eb:f6:40:13:05:ae:a6:aa:ed:d3:34:c9:8d:
         4c:18:49:c0:7b:e8:d7:d0:9d:29:eb:55:62:a7:0e:10:f8:ef:
         80:9e:26:e0:22:13:06:d8:b1:48:fd:1e:60:6a:58:ec:38:66:
         3d:4c:a4:9b:be:9f:c2:d5:34:5c:a7:07:6d:c0:20:7b:5d:b6:
         4e:a8:96:f2:52:8f:df:f6:4c:72:e0:81:ee:50:07:d7:9c:5b:
         4c:af:7d:a6:fc:37:5c:62:42:0a:fe:47:34:27:8d:d3:ba:93:
         44:a8:ec:86:4f:7e:6d:17:25:5d:30:59:ad:c9:64:b9:56:10:
         a5:fe:df:99:8a:3c:1a:2f:6d:85:e6:ba:d7:3c:4a:84:b9:05:
         6d:74:fc:2d:8c:60:79:37:1a:42:ae:87:3e:e3:c9:ed:1e:53:
         e5:79:6d:10:d8:44:0e:c3:36:ec:e8:4b:9f:0c:0b:ec:3c:81:
         76:e1:fa:0e:47:ab:96:ab:08:c9:e0:09:0d:63:15:dc:f8:e4:
         1e:a5:40:44
-----BEGIN CERTIFICATE-----
MIID0TCCArmgAwIBAgIJAPkSiIRbAhBAMA0GCSqGSIb3DQEBCwUAMH8xCzAJBgNV
BAYTAlVTMRMwEQYDVQQIDApDYWxpZm9ybmlhMRQwEgYDVQQHDAtTYW50YSBDbGFy
YTENMAsGA1UECgwEcGtnNTENMAsGA1UECwwEdGExMDESMBAGA1UEAwwJbG9jYWxo
b3N0MRMwEQYJKoZIhvcNAQkBFgR0YTEwMB4XDTE3MTExMTEyMzgzNFoXDTIwMDgw
NzEyMzgzNFowfzELMAkGA1UEBhMCVVMxEzARBgNVBAgMCkNhbGlmb3JuaWExFDAS
BgNVBAcMC1NhbnRhIENsYXJhMQ0wCwYDVQQKDARwa2c1MQ0wCwYDVQQLDAR0YTEw
MRIwEAYDVQQDDAlsb2NhbGhvc3QxEzARBgkqhkiG9w0BCQEWBHRhMTAwggEiMA0G
CSqGSIb3DQEBAQUAA4IBDwAwggEKAoIBAQC/tDZZpneIeuS65auc1W0C8DpzWgwH
8PqWbUIqBiIrTpS/i0N8vRhRMvwue8x6ztOM3uwvdVonHgO0SB5se0UZ02j1FyBv
lMftcrUzlv4Ba8dYh7wDXPQQWAFznLUKKUISby2tru2Petz/nLVW0iI7WrAc0XdU
HuwDOUsQRXpkoDf9HX6Afa4k9qMSE1CZTWhk+URfm4m9V77RoXYJVrch+CqE8RRb
tW4HLVPnBvN3rSTCvdgMZBTicFaJJU+UOluNTdeBM2Ok2kCaW3b5ex6rw5tOyed5
IE9O26SNsSpa92vkQ2TyIfVkxy279AOokF7MWwQjEqjVsDB60rinYO4LAgMBAAGj
UDBOMB0GA1UdDgQWBBSphYVXxSC/y3pDKxdrI2E/PxZLWjAfBgNVHSMEGDAWgBSp
hYVXxSC/y3pDKxdrI2E/PxZLWjAMBgNVHRMEBTADAQH/MA0GCSqGSIb3DQEBCwUA
A4IBAQCSM4YvbNN7r3i1uw0aHu07uux6JaPPi+/dmIhOX8anTHDtAX1RMzXNQzgR
iGJOq9p4K6vo8LRWUJLuY+v2QBMFrqaq7dM0yY1MGEnAe+jX0J0p61Vipw4Q+O+A
nibgIhMG2LFI/R5galjsOGY9TKSbvp/C1TRcpwdtwCB7XbZOqJbyUo/f9kxy4IHu
UAfXnFtMr32m/DdcYkIK/kc0J43TupNEqOyGT35tFyVdMFmtyWS5VhCl/t+Zijwa
L22F5rrXPEqEuQVtdPwtjGB5NxpCroc+48ntHlPleW0Q2EQOwzbs6EufDAvsPIF2
4foOR6uWqwjJ4AkNYxXc+OQepUBE
-----END CERTIFICATE-----
Certificate:
    Data:
        Version: 3 (0x2)
        Serial Number:
            ab:c3:9b:c5:ee:5e:29:1b
    Signature Algorithm: sha256WithRSAEncryption
        Issuer: C=US, ST=California, L=Santa Clara, O=pkg5, OU=ta11, CN=localhost/emailAddress=ta11
        Validity
            Not Before: Nov 11 12:38:35 2017 GMT
            Not After : Aug  7 12:38:35 2020 GMT
        Subject: C=US, ST=California, L=Santa Clara, O=pkg5, OU=ta11, CN=localhost/emailAddress=ta11
        Subject Public Key Info:
            Public Key Algorithm: rsaEncryption
                Public-Key: (2048 bit)
                Modulus:
                    00:d5:85:cf:a7:89:f2:ef:08:7b:e9:d9:11:16:6d:
                    e3:fb:ad:c4:6e:17:d7:2b:b9:dd:1a:9e:5a:3c:46:
                    43:0d:cd:7a:f8:c9:db:b7:30:81:a9:60:6d:3a:14:
                    73:60:c5:4a:33:17:f9:13:0c:9a:2a:94:bb:20:eb:
                    47:e0:bf:f8:c9:8e:36:f6:a4:96:95:46:35:38:0f:
                    f8:ef:d3:66:c0:07:26:02:3f:73:87:11:2a:5a:ef:
                    20:d1:af:10:ea:5e:ba:1e:f6:01:ad:40:a0:59:a0:
                    e2:2e:79:14:0e:fc:d6:b8:7a:90:8a:30:32:85:bd:
                    51:cd:5d:4f:78:94:ba:db:91:f2:b2:55:b4:94:aa:
                    d8:73:65:6f:42:4a:da:8a:e5:ba:95:f0:33:17:23:
                    cd:00:ab:9b:78:2f:f7:33:c9:fe:6e:ba:d0:64:4c:
                    86:fe:85:6a:48:63:22:0a:13:fb:0a:5b:44:9b:01:
                    de:16:a5:a2:c1:3c:d4:9e:88:6a:2e:f0:a6:28:a3:
                    4b:7c:12:be:dd:3c:8d:f3:ae:f0:fe:a6:95:f9:4e:
                    4d:b0:77:a1:c8:9b:de:8f:1d:3f:12:5d:9b:24:06:
                    a9:c5:e4:44:21:da:eb:ca:c1:ed:c6:4a:27:14:4a:
                    53:a6:43:21:dd:94:a2:da:2f:23:92:5d:16:b5:ff:
                    04:eb
                Exponent: 65537 (0x10001)
        X509v3 extensions:
            X509v3 Subject Key Identifier: 
                7A:2F:0C:DE:28:53:C6:E6:5D:04:78:C8:E2:4B:69:1B:29:10:02:8D
            X509v3 Authority Key Identifier: 
                keyid:7A:2F:0C:DE:28:53:C6:E6:5D:04:78:C8:E2:4B:69:1B:29:10:02:8D

            X509v3 Basic Constraints: 
                CA:TRUE
    Signature Algorithm: sha256WithRSAEncryption
         36:1c:41:18:06:3a:be:18:84:03:57:70:19:6e:c1:ed:d6:e3:
         24:78:54:2b:f4:89:30:57:c0:e3:55:8e:6f:c0:f9:6a:63:f0:
         4e:92:90:4a:01:84:59:af:59:53:2c:42:b4:c5:82:4f:dc:f7:
         f7:5c:7b:a0:12:b3:b8:09:ba:f9:da:f3:b7:94:be:83:07:c3:
         ce:e5:36:1d:76:59:0f:bb:18:e2:39:f6:ff:94:52:61:a1:4f:
         9b:3e:f4:c3:4b:d9:6e:7a:82:a9:00:28:1d:c4:a1:58:a2:f1:
         06:a1:98:f1:aa:42:1b:bf:a6:bc:01:50:df:ce:49:fa:c9:0c:
         a4:49:b8:68:20:dd:ec:2e:9c:63:32:7b:54:34:10:ba:22:2c:
         ca:30:dc:e2:5b:32:d4:a9:10:c9:62:e2:68:c2:f1:0f:c6:f6:
         0f:cf:01:1b:4d:15:23:35:c4:71:0e:44:9f:f1:c5:56:86:65:
         0b:f7:f0:77:b0:51:83:6b:15:29:bc:b4:3a:9a:42:53:d8:bc:
         cf:da:ee:08:8a:ef:a9:63:98:43:ce:27:3f:82:52:82:f7:9f:
         97:60:88:b6:84:01:e9:ec:27:2d:15:41:45:3d:d7:9b:2b:80:
         26:48:21:df:e0:a2:f7:42:26:d4:91:f7:2b:4f:a8:af:8b:a8:
         ec:8a:74:6b
-----BEGIN CERTIFICATE-----
MIID0TCCArmgAwIBAgIJAKvDm8XuXikbMA0GCSqGSIb3DQEBCwUAMH8xCzAJBgNV
BAYTAlVTMRMwEQYDVQQIDApDYWxpZm9ybmlhMRQwEgYDVQQHDAtTYW50YSBDbGFy
YTENMAsGA1UECgwEcGtnNTENMAsGA1UECwwEdGExMTESMBAGA1UEAwwJbG9jYWxo
b3N0MRMwEQYJKoZIhvcNAQkBFgR0YTExMB4XDTE3MTExMTEyMzgzNVoXDTIwMDgw
NzEyMzgzNVowfzELMAkGA1UEBhMCVVMxEzARBgNVBAgMCkNhbGlmb3JuaWExFDAS
BgNVBAcMC1NhbnRhIENsYXJhMQ0wCwYDVQQKDARwa2c1MQ0wCwYDVQQLDAR0YTEx
MRIwEAYDVQQDDAlsb2NhbGhvc3QxEzARBgkqhkiG9w0BCQEWBHRhMTEwggEiMA0G
CSqGSIb3DQEBAQUAA4IBDwAwggEKAoIBAQDVhc+nifLvCHvp2REWbeP7rcRuF9cr
ud0anlo8RkMNzXr4ydu3MIGpYG06FHNgxUozF/kTDJoqlLsg60fgv/jJjjb2pJaV
RjU4D/jv02bAByYCP3OHESpa7yDRrxDqXroe9gGtQKBZoOIueRQO/Na4epCKMDKF
vVHNXU94lLrbkfKyVbSUqthzZW9CStqK5bqV8DMXI80Aq5t4L/czyf5uutBkTIb+
hWpIYyIKE/sKW0SbAd4WpaLBPNSeiGou8KYoo0t8Er7dPI3zrvD+ppX5Tk2wd6HI
m96PHT8SXZskBqnF5EQh2uvKwe3GSicUSlOmQyHdlKLaLyOSXRa1/wTrAgMBAAGj
UDBOMB0GA1UdDgQWBBR6LwzeKFPG5l0EeMjiS2kbKRACjTAfBgNVHSMEGDAWgBR6
LwzeKFPG5l0EeMjiS2kbKRACjTAMBgNVHRMEBTADAQH/MA0GCSqGSIb3DQEBCwUA
A4IBAQA2HEEYBjq+GIQDV3AZbsHt1uMkeFQr9IkwV8DjVY5vwPlqY/BOkpBKAYRZ
r1lTLEK0xYJP3Pf3XHugErO4Cbr52vO3lL6DB8PO5TYddlkPuxjiOfb/lFJhoU+b
PvTDS9lueoKpACgdxKFYovEGoZjxqkIbv6a8AVDfzkn6yQykSbhoIN3sLpxjMntU
NBC6IizKMNziWzLUqRDJYuJowvEPxvYPzwEbTRUjNcRxDkSf8cVWhmUL9/B3sFGD
axUpvLQ6mkJT2LzP2u4Iiu+pY5hDzic/glKC95+XYIi2hAHp7CctFUFFPdebK4Am
SCHf4KL3QibUkfcrT6ivi6jsinRr
-----END CERTIFICATE-----
