Certificate:
    Data:
        Version: 3 (0x2)
        Serial Number:
            bc:8e:9b:54:dd:55:b4:ef
    Signature Algorithm: sha256WithRSAEncryption
        Issuer: C=US, ST=California, L=Santa Clara, O=pkg5, CN=ta5/emailAddress=ta5
        Validity
            Not Before: Nov 24 01:22:43 2021 GMT
            Not After : Aug 20 01:22:43 2024 GMT
        Subject: C=US, ST=California, L=Santa Clara, O=pkg5, CN=ta5/emailAddress=ta5
        Subject Public Key Info:
            Public Key Algorithm: rsaEncryption
                Public-Key: (2048 bit)
                Modulus:
                    00:c3:e3:d3:b3:8e:d2:51:fa:e7:ea:d0:91:0f:17:
                    9f:3b:63:38:b5:29:19:e2:4b:e1:80:42:da:19:9f:
                    a5:81:2a:ad:47:2a:07:2a:df:2a:ac:d3:91:23:46:
                    5b:f3:65:f9:be:12:d7:d0:39:b0:04:5b:e8:c2:17:
                    27:fb:f2:ed:09:3a:32:a7:27:88:80:e1:73:ff:b8:
                    a9:59:35:8b:7a:67:9c:9e:e1:bf:f5:69:eb:84:fd:
                    6e:f4:6d:c3:fe:5a:90:b6:49:90:39:99:b5:55:fd:
                    ca:a1:2d:39:38:f3:65:04:9c:7a:ab:78:d2:e7:d7:
                    f7:a8:03:52:67:32:bc:31:14:6f:f5:db:ea:fd:95:
                    c0:bc:ef:0a:13:44:86:0a:4c:6d:f9:da:b0:57:cc:
                    d6:14:f5:10:59:23:4b:0e:04:64:6b:2e:01:60:61:
                    88:0d:dd:10:94:c8:82:85:fa:27:15:69:1f:6a:27:
                    9d:d5:0e:72:89:81:1e:b6:80:8a:03:e0:71:0f:f1:
                    4b:6f:b0:51:15:03:ce:9b:ce:cf:53:de:02:cd:75:
                    af:28:fc:bf:88:a7:df:ba:4d:f8:ee:58:53:ea:32:
                    1d:c6:52:08:9b:d4:e6:a1:21:75:0f:8a:7d:ff:19:
                    e0:5d:b7:7c:a5:3d:5c:e2:4e:57:bd:d4:d1:52:d7:
                    b4:09
                Exponent: 65537 (0x10001)
        X509v3 extensions:
            X509v3 Subject Key Identifier: 
                24:27:CE:79:CD:AC:F6:1C:E2:DE:E6:59:79:91:4A:31:F7:BF:D7:C3
            X509v3 Authority Key Identifier: 
                keyid:24:27:CE:79:CD:AC:F6:1C:E2:DE:E6:59:79:91:4A:31:F7:BF:D7:C3

            X509v3 Basic Constraints: 
                CA:TRUE
    Signature Algorithm: sha256WithRSAEncryption
         9a:a6:a5:3a:54:84:a5:d3:a6:66:a1:f4:8d:1e:34:3d:31:8c:
         91:76:65:f7:2c:f7:1a:85:5d:d3:4e:6e:df:0d:bd:ec:83:c3:
         3e:75:9e:b5:48:4c:0a:d5:c0:3f:ec:3d:e8:0e:8f:c8:c4:98:
         64:fc:34:88:e0:97:a2:3d:76:77:aa:01:d7:de:54:e1:37:b0:
         46:5c:dd:51:d7:7f:60:82:38:2d:4b:3d:9a:6c:05:00:85:a4:
         c3:b0:66:d7:d2:81:ba:52:e6:55:13:b5:a1:3a:1c:c9:5d:f8:
         86:ac:44:22:8c:de:22:fa:4a:59:22:06:85:a9:49:9c:06:20:
         53:23:cb:f3:68:3d:76:74:4b:60:a9:7c:48:b8:0a:e8:7d:5c:
         a5:a8:8d:4d:0e:e6:0f:58:ad:4a:31:07:d7:df:b5:25:b3:8e:
         f2:0a:0e:15:46:96:5f:9e:7e:1f:26:62:0c:85:58:18:de:ca:
         3d:46:b6:34:af:ac:4b:fd:1a:74:17:a7:03:96:cd:6b:5d:d9:
         df:1f:e7:7d:8c:dc:f8:c0:22:c1:7f:dc:cc:da:fe:7f:11:91:
         f9:ba:4a:d5:41:93:42:c5:4a:01:96:63:a3:a6:3e:52:82:15:
         46:d9:5a:ac:6b:5c:5d:55:51:3a:27:cb:9c:53:a9:55:3c:10:
         ab:d6:b2:78
-----BEGIN CERTIFICATE-----
MIIDpTCCAo2gAwIBAgIJALyOm1TdVbTvMA0GCSqGSIb3DQEBCwUAMGkxCzAJBgNV
BAYTAlVTMRMwEQYDVQQIDApDYWxpZm9ybmlhMRQwEgYDVQQHDAtTYW50YSBDbGFy
YTENMAsGA1UECgwEcGtnNTEMMAoGA1UEAwwDdGE1MRIwEAYJKoZIhvcNAQkBFgN0
YTUwHhcNMjExMTI0MDEyMjQzWhcNMjQwODIwMDEyMjQzWjBpMQswCQYDVQQGEwJV
UzETMBEGA1UECAwKQ2FsaWZvcm5pYTEUMBIGA1UEBwwLU2FudGEgQ2xhcmExDTAL
BgNVBAoMBHBrZzUxDDAKBgNVBAMMA3RhNTESMBAGCSqGSIb3DQEJARYDdGE1MIIB
IjANBgkqhkiG9w0BAQEFAAOCAQ8AMIIBCgKCAQEAw+PTs47SUfrn6tCRDxefO2M4
tSkZ4kvhgELaGZ+lgSqtRyoHKt8qrNORI0Zb82X5vhLX0DmwBFvowhcn+/LtCToy
pyeIgOFz/7ipWTWLemecnuG/9WnrhP1u9G3D/lqQtkmQOZm1Vf3KoS05OPNlBJx6
q3jS59f3qANSZzK8MRRv9dvq/ZXAvO8KE0SGCkxt+dqwV8zWFPUQWSNLDgRkay4B
YGGIDd0QlMiChfonFWkfaied1Q5yiYEetoCKA+BxD/FLb7BRFQPOm87PU94CzXWv
KPy/iKffuk347lhT6jIdxlIIm9TmoSF1D4p9/xngXbd8pT1c4k5XvdTRUte0CQID
AQABo1AwTjAdBgNVHQ4EFgQUJCfOec2s9hzi3uZZeZFKMfe/18MwHwYDVR0jBBgw
FoAUJCfOec2s9hzi3uZZeZFKMfe/18MwDAYDVR0TBAUwAwEB/zANBgkqhkiG9w0B
AQsFAAOCAQEAmqalOlSEpdOmZqH0jR40PTGMkXZl9yz3GoVd005u3w297IPDPnWe
tUhMCtXAP+w96A6PyMSYZPw0iOCXoj12d6oB195U4TewRlzdUdd/YII4LUs9mmwF
AIWkw7Bm19KBulLmVRO1oTocyV34hqxEIozeIvpKWSIGhalJnAYgUyPL82g9dnRL
YKl8SLgK6H1cpaiNTQ7mD1itSjEH19+1JbOO8goOFUaWX55+HyZiDIVYGN7KPUa2
NK+sS/0adBenA5bNa13Z3x/nfYzc+MAiwX/czNr+fxGR+bpK1UGTQsVKAZZjo6Y+
UoIVRtlarGtcXVVROifLnFOpVTwQq9ayeA==
-----END CERTIFICATE-----
