Certificate:
    Data:
        Version: 3 (0x2)
        Serial Number:
            f9:12:88:84:5b:02:10:40
    Signature Algorithm: sha256WithRSAEncryption
        Issuer: C=US, ST=California, L=Santa Clara, O=pkg5, OU=ta10, CN=localhost/emailAddress=ta10
        Validity
            Not Before: Nov 11 12:38:34 2017 GMT
            Not After : Aug  7 12:38:34 2020 GMT
        Subject: C=US, ST=California, L=Santa Clara, O=pkg5, OU=ta10, CN=localhost/emailAddress=ta10
        Subject Public Key Info:
            Public Key Algorithm: rsaEncryption
                Public-Key: (2048 bit)
                Modulus:
                    00:bf:b4:36:59:a6:77:88:7a:e4:ba:e5:ab:9c:d5:
                    6d:02:f0:3a:73:5a:0c:07:f0:fa:96:6d:42:2a:06:
                    22:2b:4e:94:bf:8b:43:7c:bd:18:51:32:fc:2e:7b:
                    cc:7a:ce:d3:8c:de:ec:2f:75:5a:27:1e:03:b4:48:
                    1e:6c:7b:45:19:d3:68:f5:17:20:6f:94:c7:ed:72:
                    b5:33:96:fe:01:6b:c7:58:87:bc:03:5c:f4:10:58:
                    01:73:9c:b5:0a:29:42:12:6f:2d:ad:ae:ed:8f:7a:
                    dc:ff:9c:b5:56:d2:22:3b:5a:b0:1c:d1:77:54:1e:
                    ec:03:39:4b:10:45:7a:64:a0:37:fd:1d:7e:80:7d:
                    ae:24:f6:a3:12:13:50:99:4d:68:64:f9:44:5f:9b:
                    89:bd:57:be:d1:a1:76:09:56:b7:21:f8:2a:84:f1:
                    14:5b:b5:6e:07:2d:53:e7:06:f3:77:ad:24:c2:bd:
                    d8:0c:64:14:e2:70:56:89:25:4f:94:3a:5b:8d:4d:
                    d7:81:33:63:a4:da:40:9a:5b:76:f9:7b:1e:ab:c3:
                    9b:4e:c9:e7:79:20:4f:4e:db:a4:8d:b1:2a:5a:f7:
                    6b:e4:43:64:f2:21:f5:64:c7:2d:bb:f4:03:a8:90:
                    5e:cc:5b:04:23:12:a8:d5:b0:30:7a:d2:b8:a7:60:
                    ee:0b
                Exponent: 65537 (0x10001)
        X509v3 extensions:
            X509v3 Subject Key Identifier: 
                A9:85:85:57:C5:20:BF:CB:7A:43:2B:17:6B:23:61:3F:3F:16:4B:5A
            X509v3 Authority Key Identifier: 
                keyid:A9:85:85:57:C5:20:BF:CB:7A:43:2B:17:6B:23:61:3F:3F:16:4B:5A

            X509v3 Basic Constraints: 
                CA:TRUE
    Signature Algorithm: sha256WithRSAEncryption
         92:33:86:2f:6c:d3:7b:af:78:b5:bb:0d:1a:1e:ed:3b:ba:ec:
         7a:25:a3:cf:8b:ef:dd:98:88:4e:5f:c6:a7:4c:70:ed:01:7d:
         51:33:35:cd:43:38:11:88:62:4e:ab:da:78:2b:ab:e8:f0:b4:
         56:50:92:ee:63:eb:f6:40:13:05:ae:a6:aa:ed:d3:34:c9:8d:
         4c:18:49:c0:7b:e8:d7:d0:9d:29:eb:55:62:a7:0e:10:f8:ef:
         80:9e:26:e0:22:13:06:d8:b1:48:fd:1e:60:6a:58:ec:38:66:
         3d:4c:a4:9b:be:9f:c2:d5:34:5c:a7:07:6d:c0:20:7b:5d:b6:
         4e:a8:96:f2:52:8f:df:f6:4c:72:e0:81:ee:50:07:d7:9c:5b:
         4c:af:7d:a6:fc:37:5c:62:42:0a:fe:47:34:27:8d:d3:ba:93:
         44:a8:ec:86:4f:7e:6d:17:25:5d:30:59:ad:c9:64:b9:56:10:
         a5:fe:df:99:8a:3c:1a:2f:6d:85:e6:ba:d7:3c:4a:84:b9:05:
         6d:74:fc:2d:8c:60:79:37:1a:42:ae:87:3e:e3:c9:ed:1e:53:
         e5:79:6d:10:d8:44:0e:c3:36:ec:e8:4b:9f:0c:0b:ec:3c:81:
         76:e1:fa:0e:47:ab:96:ab:08:c9:e0:09:0d:63:15:dc:f8:e4:
         1e:a5:40:44
-----BEGIN CERTIFICATE-----
MIID0TCCArmgAwIBAgIJAPkSiIRbAhBAMA0GCSqGSIb3DQEBCwUAMH8xCzAJBgNV
BAYTAlVTMRMwEQYDVQQIDApDYWxpZm9ybmlhMRQwEgYDVQQHDAtTYW50YSBDbGFy
YTENMAsGA1UECgwEcGtnNTENMAsGA1UECwwEdGExMDESMBAGA1UEAwwJbG9jYWxo
b3N0MRMwEQYJKoZIhvcNAQkBFgR0YTEwMB4XDTE3MTExMTEyMzgzNFoXDTIwMDgw
NzEyMzgzNFowfzELMAkGA1UEBhMCVVMxEzARBgNVBAgMCkNhbGlmb3JuaWExFDAS
BgNVBAcMC1NhbnRhIENsYXJhMQ0wCwYDVQQKDARwa2c1MQ0wCwYDVQQLDAR0YTEw
MRIwEAYDVQQDDAlsb2NhbGhvc3QxEzARBgkqhkiG9w0BCQEWBHRhMTAwggEiMA0G
CSqGSIb3DQEBAQUAA4IBDwAwggEKAoIBAQC/tDZZpneIeuS65auc1W0C8DpzWgwH
8PqWbUIqBiIrTpS/i0N8vRhRMvwue8x6ztOM3uwvdVonHgO0SB5se0UZ02j1FyBv
lMftcrUzlv4Ba8dYh7wDXPQQWAFznLUKKUISby2tru2Petz/nLVW0iI7WrAc0XdU
HuwDOUsQRXpkoDf9HX6Afa4k9qMSE1CZTWhk+URfm4m9V77RoXYJVrch+CqE8RRb
tW4HLVPnBvN3rSTCvdgMZBTicFaJJU+UOluNTdeBM2Ok2kCaW3b5ex6rw5tOyed5
IE9O26SNsSpa92vkQ2TyIfVkxy279AOokF7MWwQjEqjVsDB60rinYO4LAgMBAAGj
UDBOMB0GA1UdDgQWBBSphYVXxSC/y3pDKxdrI2E/PxZLWjAfBgNVHSMEGDAWgBSp
hYVXxSC/y3pDKxdrI2E/PxZLWjAMBgNVHRMEBTADAQH/MA0GCSqGSIb3DQEBCwUA
A4IBAQCSM4YvbNN7r3i1uw0aHu07uux6JaPPi+/dmIhOX8anTHDtAX1RMzXNQzgR
iGJOq9p4K6vo8LRWUJLuY+v2QBMFrqaq7dM0yY1MGEnAe+jX0J0p61Vipw4Q+O+A
nibgIhMG2LFI/R5galjsOGY9TKSbvp/C1TRcpwdtwCB7XbZOqJbyUo/f9kxy4IHu
UAfXnFtMr32m/DdcYkIK/kc0J43TupNEqOyGT35tFyVdMFmtyWS5VhCl/t+Zijwa
L22F5rrXPEqEuQVtdPwtjGB5NxpCroc+48ntHlPleW0Q2EQOwzbs6EufDAvsPIF2
4foOR6uWqwjJ4AkNYxXc+OQepUBE
-----END CERTIFICATE-----
