Certificate:
    Data:
        Version: 3 (0x2)
        Serial Number:
            a8:f8:da:a1:8f:5e:62:de
    Signature Algorithm: sha256WithRSAEncryption
        Issuer: C=US, ST=California, L=Santa Clara, O=pkg5, OU=ta10, CN=localhost/emailAddress=ta10
        Validity
            Not Before: Nov 24 01:22:44 2021 GMT
            Not After : Aug 20 01:22:44 2024 GMT
        Subject: C=US, ST=California, L=Santa Clara, O=pkg5, OU=ta10, CN=localhost/emailAddress=ta10
        Subject Public Key Info:
            Public Key Algorithm: rsaEncryption
                Public-Key: (2048 bit)
                Modulus:
                    00:b0:9b:72:91:a7:52:67:f1:7d:2a:f8:b3:1a:61:
                    56:e8:db:63:9a:90:d1:8d:0c:03:bc:35:e8:7f:18:
                    63:04:b2:93:c3:27:8a:2d:d8:24:45:21:2e:24:ac:
                    b2:28:d1:e1:21:d6:13:d0:d6:d2:23:e1:8f:cc:f8:
                    49:cb:6d:af:89:a5:5a:6c:2c:46:d5:81:18:ed:8f:
                    b4:89:0a:45:24:d2:8c:92:a7:c6:15:5f:c4:e6:f8:
                    48:3e:58:d1:a6:10:1c:eb:d5:09:64:50:09:00:c7:
                    80:fb:73:b5:c1:a9:0c:a4:69:0d:68:02:4a:34:3f:
                    28:98:58:7b:00:b8:fd:55:7c:f8:7b:ac:3e:6b:43:
                    fa:3b:0f:b6:c2:7b:2a:b3:7f:f0:d6:01:48:6c:46:
                    1d:1a:57:2d:9c:ee:63:13:2a:b1:80:5c:f2:1c:6d:
                    5e:1c:f6:8d:2e:c3:97:a8:04:61:ae:0a:9a:73:37:
                    51:be:47:2d:8e:4b:b7:99:f7:67:a6:40:99:68:d4:
                    9d:ba:03:59:0a:d6:9f:15:c5:dc:ea:4e:8d:be:7a:
                    a8:1d:05:73:2a:91:fa:c8:83:82:99:d7:8b:47:44:
                    62:20:83:ad:40:de:87:ab:50:23:13:b1:f8:9b:d6:
                    81:4c:9f:0f:2e:19:38:39:75:c6:60:7c:c8:e0:48:
                    d7:a9
                Exponent: 65537 (0x10001)
        X509v3 extensions:
            X509v3 Subject Key Identifier: 
                B6:1B:AD:1F:17:78:A9:ED:AC:6E:D5:59:68:E5:3D:2D:86:2D:48:C9
            X509v3 Authority Key Identifier: 
                keyid:B6:1B:AD:1F:17:78:A9:ED:AC:6E:D5:59:68:E5:3D:2D:86:2D:48:C9

            X509v3 Basic Constraints: 
                CA:TRUE
    Signature Algorithm: sha256WithRSAEncryption
         42:16:e6:95:03:63:63:b3:11:b6:0e:06:b4:b7:8b:3e:76:60:
         6b:d7:6b:b6:45:ca:03:3c:99:f1:5e:a6:86:71:e2:a3:5a:83:
         5a:be:65:41:57:3f:20:4a:c6:e1:f3:d7:3c:52:21:e1:ad:5e:
         fa:7f:b3:54:af:22:9e:ad:6b:fc:df:cd:79:84:44:53:82:08:
         1d:65:65:67:fe:0f:1d:cf:0f:9a:03:69:89:65:4f:b1:aa:7f:
         d6:6b:7e:56:df:37:6b:92:32:7a:9f:66:af:b9:65:4e:b3:7e:
         8e:02:64:a2:c6:15:2e:04:7f:40:30:d9:4a:9d:b3:7a:8e:f7:
         8d:86:85:57:22:07:39:dd:59:2f:67:94:d5:c2:82:b4:b4:ec:
         b8:5c:e3:37:e3:8b:49:01:2a:1b:d8:b9:78:58:06:1d:7a:fb:
         61:5f:87:5f:a1:d5:fe:45:62:94:31:4d:a1:94:56:06:f8:9d:
         e0:76:b3:58:95:c8:02:73:f4:91:c5:5e:80:6a:da:2a:e4:d6:
         60:0d:cb:ba:54:61:07:12:2d:40:d7:18:05:51:8b:63:08:7b:
         4c:8e:36:89:3c:8f:27:dd:69:f5:6d:29:ed:b8:a4:b2:b4:cc:
         0d:9e:06:c5:ac:69:db:61:ef:99:69:5b:ec:27:a0:4b:5c:d1:
         22:1b:74:01
-----BEGIN CERTIFICATE-----
MIID0TCCArmgAwIBAgIJAKj42qGPXmLeMA0GCSqGSIb3DQEBCwUAMH8xCzAJBgNV
BAYTAlVTMRMwEQYDVQQIDApDYWxpZm9ybmlhMRQwEgYDVQQHDAtTYW50YSBDbGFy
YTENMAsGA1UECgwEcGtnNTENMAsGA1UECwwEdGExMDESMBAGA1UEAwwJbG9jYWxo
b3N0MRMwEQYJKoZIhvcNAQkBFgR0YTEwMB4XDTIxMTEyNDAxMjI0NFoXDTI0MDgy
MDAxMjI0NFowfzELMAkGA1UEBhMCVVMxEzARBgNVBAgMCkNhbGlmb3JuaWExFDAS
BgNVBAcMC1NhbnRhIENsYXJhMQ0wCwYDVQQKDARwa2c1MQ0wCwYDVQQLDAR0YTEw
MRIwEAYDVQQDDAlsb2NhbGhvc3QxEzARBgkqhkiG9w0BCQEWBHRhMTAwggEiMA0G
CSqGSIb3DQEBAQUAA4IBDwAwggEKAoIBAQCwm3KRp1Jn8X0q+LMaYVbo22OakNGN
DAO8Neh/GGMEspPDJ4ot2CRFIS4krLIo0eEh1hPQ1tIj4Y/M+EnLba+JpVpsLEbV
gRjtj7SJCkUk0oySp8YVX8Tm+Eg+WNGmEBzr1QlkUAkAx4D7c7XBqQykaQ1oAko0
PyiYWHsAuP1VfPh7rD5rQ/o7D7bCeyqzf/DWAUhsRh0aVy2c7mMTKrGAXPIcbV4c
9o0uw5eoBGGuCppzN1G+Ry2OS7eZ92emQJlo1J26A1kK1p8VxdzqTo2+eqgdBXMq
kfrIg4KZ14tHRGIgg61A3oerUCMTsfib1oFMnw8uGTg5dcZgfMjgSNepAgMBAAGj
UDBOMB0GA1UdDgQWBBS2G60fF3ip7axu1Vlo5T0thi1IyTAfBgNVHSMEGDAWgBS2
G60fF3ip7axu1Vlo5T0thi1IyTAMBgNVHRMEBTADAQH/MA0GCSqGSIb3DQEBCwUA
A4IBAQBCFuaVA2NjsxG2Dga0t4s+dmBr12u2RcoDPJnxXqaGceKjWoNavmVBVz8g
Ssbh89c8UiHhrV76f7NUryKerWv83815hERTgggdZWVn/g8dzw+aA2mJZU+xqn/W
a35W3zdrkjJ6n2avuWVOs36OAmSixhUuBH9AMNlKnbN6jveNhoVXIgc53VkvZ5TV
woK0tOy4XOM344tJASob2Ll4WAYdevthX4dfodX+RWKUMU2hlFYG+J3gdrNYlcgC
c/SRxV6Aatoq5NZgDcu6VGEHEi1A1xgFUYtjCHtMjjaJPI8n3Wn1bSntuKSytMwN
ngbFrGnbYe+ZaVvsJ6BLXNEiG3QB
-----END CERTIFICATE-----
