Certificate:
    Data:
        Version: 3 (0x2)
        Serial Number: 6 (0x6)
    Signature Algorithm: sha256WithRSAEncryption
        Issuer: C=US, ST=California, L=Santa Clara, O=pkg5, CN=ch5_ta1/emailAddress=ch5_ta1
        Validity
            Not Before: Jul  3 14:13:59 2018 GMT
            Not After : Mar 29 14:13:59 2021 GMT
        Subject: C=US, ST=California, L=Santa Clara, O=pkg5, CN=cs1_ch5_ta1/emailAddress=cs1_ch5_ta1
        Subject Public Key Info:
            Public Key Algorithm: rsaEncryption
                Public-Key: (1024 bit)
                Modulus:
                    00:b2:0f:49:61:20:a9:29:ba:ce:59:d1:8e:57:2b:
                    95:3e:d3:74:66:d5:9e:0d:43:a0:b5:14:1a:f4:8d:
                    0b:d2:13:01:10:43:c8:0a:f3:ec:a6:b3:5c:29:01:
                    78:bb:2d:3b:13:40:a0:bf:37:55:01:02:b1:e8:5c:
                    4a:32:2a:97:00:b5:54:df:70:3a:d9:0c:1e:ea:ff:
                    9a:b2:09:f0:88:53:68:b2:bc:ee:2f:ff:97:d6:f6:
                    06:f7:1d:9f:67:e4:f0:d4:fa:97:5d:aa:47:73:e3:
                    44:60:c1:f3:08:21:8e:40:e2:1f:35:74:e7:ee:ef:
                    cb:cc:ae:7c:4d:0c:bc:05:95
                Exponent: 65537 (0x10001)
        X509v3 extensions:
            X509v3 Basic Constraints: critical
                CA:FALSE
            X509v3 Key Usage: critical
                Digital Signature
    Signature Algorithm: sha256WithRSAEncryption
         89:35:56:d4:59:3b:54:d1:52:02:20:b5:78:03:02:cd:fd:ef:
         10:1d:1c:67:7b:6e:29:e7:39:7d:90:c7:53:13:42:71:63:c4:
         ab:f7:bd:c5:95:6d:97:cd:f4:1b:8e:a2:b8:b9:0f:8a:fd:cd:
         17:fc:0f:86:20:59:53:32:25:25:48:47:90:51:0c:9b:f7:57:
         a8:53:03:ca:c0:25:95:03:43:6c:4f:54:c5:48:5d:e4:f3:0c:
         e3:8b:32:17:c8:4b:63:21:17:b5:e5:dd:e1:12:76:b9:52:10:
         e3:04:f0:6a:cb:f2:a1:04:2a:88:0c:99:7f:b3:d5:10:17:71:
         5a:42:d5:4e:8b:aa:40:0b:41:60:75:95:d0:0f:90:9d:be:74:
         d4:c3:61:63:ab:97:df:d6:df:13:7a:ce:fd:71:9b:48:0b:37:
         c1:a3:e9:27:16:54:ac:14:02:01:b4:2a:20:d1:b3:80:f8:ae:
         ed:80:c9:3b:12:c5:a2:f3:61:1e:77:5c:cd:99:94:49:ee:c0:
         94:8d:d6:c9:cc:cd:fd:65:e4:a9:4d:59:5d:da:56:5f:7d:76:
         55:4f:d1:30:eb:ad:e9:4a:fd:c7:16:a7:9f:de:55:4f:4a:b0:
         df:0d:7f:a2:71:9e:7e:93:ca:9f:2d:5c:39:c0:d4:99:5e:ab:
         7d:4b:c0:64
-----BEGIN CERTIFICATE-----
MIIDATCCAemgAwIBAgIBBjANBgkqhkiG9w0BAQsFADBxMQswCQYDVQQGEwJVUzET
MBEGA1UECAwKQ2FsaWZvcm5pYTEUMBIGA1UEBwwLU2FudGEgQ2xhcmExDTALBgNV
BAoMBHBrZzUxEDAOBgNVBAMMB2NoNV90YTExFjAUBgkqhkiG9w0BCQEWB2NoNV90
YTEwHhcNMTgwNzAzMTQxMzU5WhcNMjEwMzI5MTQxMzU5WjB5MQswCQYDVQQGEwJV
UzETMBEGA1UECAwKQ2FsaWZvcm5pYTEUMBIGA1UEBwwLU2FudGEgQ2xhcmExDTAL
BgNVBAoMBHBrZzUxFDASBgNVBAMMC2NzMV9jaDVfdGExMRowGAYJKoZIhvcNAQkB
FgtjczFfY2g1X3RhMTCBnzANBgkqhkiG9w0BAQEFAAOBjQAwgYkCgYEAsg9JYSCp
KbrOWdGOVyuVPtN0ZtWeDUOgtRQa9I0L0hMBEEPICvPsprNcKQF4uy07E0CgvzdV
AQKx6FxKMiqXALVU33A62Qwe6v+asgnwiFNosrzuL/+X1vYG9x2fZ+Tw1PqXXapH
c+NEYMHzCCGOQOIfNXTn7u/LzK58TQy8BZUCAwEAAaMgMB4wDAYDVR0TAQH/BAIw
ADAOBgNVHQ8BAf8EBAMCB4AwDQYJKoZIhvcNAQELBQADggEBAIk1VtRZO1TRUgIg
tXgDAs397xAdHGd7binnOX2Qx1MTQnFjxKv3vcWVbZfN9BuOori5D4r9zRf8D4Yg
WVMyJSVIR5BRDJv3V6hTA8rAJZUDQ2xPVMVIXeTzDOOLMhfIS2MhF7Xl3eESdrlS
EOME8GrL8qEEKogMmX+z1RAXcVpC1U6LqkALQWB1ldAPkJ2+dNTDYWOrl9/W3xN6
zv1xm0gLN8Gj6ScWVKwUAgG0KiDRs4D4ru2AyTsSxaLzYR53XM2ZlEnuwJSN1snM
zf1l5KlNWV3aVl99dlVP0TDrrelK/ccWp5/eVU9KsN8Nf6Jxnn6Typ8tXDnA1Jle
q31LwGQ=
-----END CERTIFICATE-----
