Certificate:
    Data:
        Version: 3 (0x2)
        Serial Number: 6 (0x6)
    Signature Algorithm: sha256WithRSAEncryption
        Issuer: C=US, ST=California, L=Santa Clara, O=pkg5, CN=ch5_ta1/emailAddress=ch5_ta1
        Validity
            Not Before: Nov 24 01:22:41 2021 GMT
            Not After : Aug 20 01:22:41 2024 GMT
        Subject: C=US, ST=California, L=Santa Clara, O=pkg5, CN=cs1_ch5_ta1/emailAddress=cs1_ch5_ta1
        Subject Public Key Info:
            Public Key Algorithm: rsaEncryption
                Public-Key: (1024 bit)
                Modulus:
                    00:bf:9d:dd:87:5b:87:76:48:36:87:c8:a3:73:43:
                    15:44:f0:fa:d3:ea:e8:f8:b0:8b:15:e4:d1:9b:1f:
                    4d:9d:52:e5:6e:24:d3:48:c9:0e:b8:4f:74:ea:28:
                    dd:76:98:2a:18:c3:37:81:bb:49:d4:52:79:88:7f:
                    88:73:1c:9f:23:e8:7a:be:11:e1:7e:3c:84:1a:ce:
                    3e:c2:42:4a:51:1f:db:5c:11:50:92:24:04:29:77:
                    5c:5b:7b:d9:1b:13:79:11:96:4c:07:4d:21:f1:d2:
                    fb:59:05:fd:e3:95:f2:4b:ba:24:a7:f9:3e:7f:4a:
                    50:ab:f3:16:fb:ed:45:63:8b
                Exponent: 65537 (0x10001)
        X509v3 extensions:
            X509v3 Basic Constraints: critical
                CA:FALSE
            X509v3 Key Usage: critical
                Digital Signature
    Signature Algorithm: sha256WithRSAEncryption
         60:b8:24:02:78:4f:e6:9d:d9:e7:03:b5:fa:28:99:ea:af:18:
         6f:e1:2f:ae:d5:a7:ad:49:71:cf:25:6f:62:97:0c:49:14:6f:
         da:8f:06:97:4b:80:4e:0c:ae:22:34:ee:b3:6b:87:77:55:28:
         77:6b:2a:ec:d2:b4:29:06:18:94:cd:6b:74:1c:73:6f:e7:20:
         d4:bf:6b:75:43:38:50:4a:c9:97:fb:90:14:6b:d5:4a:1c:6b:
         82:3d:34:e3:18:4e:e4:ee:5c:0f:03:e2:7f:61:9c:12:4d:c7:
         f8:45:71:60:51:a7:a8:9c:8f:a4:57:2b:bb:b7:27:81:91:38:
         4c:e9:df:c5:2e:78:ec:a6:67:b7:26:bd:6e:f2:f8:ab:f5:4b:
         29:5c:9c:ea:25:ee:b8:29:74:ba:4d:fc:39:c6:3c:e8:ca:cc:
         df:a4:6a:02:1e:f1:08:13:1d:c6:d4:90:a6:30:d2:5a:e0:bf:
         c7:bb:41:83:69:d6:a7:39:38:14:4d:69:d3:90:ea:2b:78:f4:
         46:f1:de:e3:f0:2d:15:e9:19:4e:d9:ac:63:0f:43:52:6e:19:
         97:be:55:87:fc:38:05:5c:8a:b8:50:93:2e:bd:c3:7e:ee:c4:
         27:8e:35:54:2f:aa:6f:2b:e7:d6:ea:dd:dc:e8:87:f1:60:b8:
         ee:22:13:77
-----BEGIN CERTIFICATE-----
MIIDATCCAemgAwIBAgIBBjANBgkqhkiG9w0BAQsFADBxMQswCQYDVQQGEwJVUzET
MBEGA1UECAwKQ2FsaWZvcm5pYTEUMBIGA1UEBwwLU2FudGEgQ2xhcmExDTALBgNV
BAoMBHBrZzUxEDAOBgNVBAMMB2NoNV90YTExFjAUBgkqhkiG9w0BCQEWB2NoNV90
YTEwHhcNMjExMTI0MDEyMjQxWhcNMjQwODIwMDEyMjQxWjB5MQswCQYDVQQGEwJV
UzETMBEGA1UECAwKQ2FsaWZvcm5pYTEUMBIGA1UEBwwLU2FudGEgQ2xhcmExDTAL
BgNVBAoMBHBrZzUxFDASBgNVBAMMC2NzMV9jaDVfdGExMRowGAYJKoZIhvcNAQkB
FgtjczFfY2g1X3RhMTCBnzANBgkqhkiG9w0BAQEFAAOBjQAwgYkCgYEAv53dh1uH
dkg2h8ijc0MVRPD60+ro+LCLFeTRmx9NnVLlbiTTSMkOuE906ijddpgqGMM3gbtJ
1FJ5iH+IcxyfI+h6vhHhfjyEGs4+wkJKUR/bXBFQkiQEKXdcW3vZGxN5EZZMB00h
8dL7WQX945XyS7okp/k+f0pQq/MW++1FY4sCAwEAAaMgMB4wDAYDVR0TAQH/BAIw
ADAOBgNVHQ8BAf8EBAMCB4AwDQYJKoZIhvcNAQELBQADggEBAGC4JAJ4T+ad2ecD
tfoomeqvGG/hL67Vp61Jcc8lb2KXDEkUb9qPBpdLgE4MriI07rNrh3dVKHdrKuzS
tCkGGJTNa3Qcc2/nINS/a3VDOFBKyZf7kBRr1Uoca4I9NOMYTuTuXA8D4n9hnBJN
x/hFcWBRp6icj6RXK7u3J4GROEzp38UueOymZ7cmvW7y+Kv1SylcnOol7rgpdLpN
/DnGPOjKzN+kagIe8QgTHcbUkKYw0lrgv8e7QYNp1qc5OBRNadOQ6it49Ebx3uPw
LRXpGU7ZrGMPQ1JuGZe+VYf8OAVcirhQky69w37uxCeONVQvqm8r59bq3dzoh/Fg
uO4iE3c=
-----END CERTIFICATE-----
