Certificate:
    Data:
        Version: 3 (0x2)
        Serial Number: 6 (0x6)
    Signature Algorithm: sha256WithRSAEncryption
        Issuer: C=US, ST=California, L=Santa Clara, O=pkg5, CN=ch5_ta1/emailAddress=ch5_ta1
        Validity
            Not Before: Nov 11 12:38:30 2017 GMT
            Not After : Aug  7 12:38:30 2020 GMT
        Subject: C=US, ST=California, L=Santa Clara, O=pkg5, CN=cs1_ch5_ta1/emailAddress=cs1_ch5_ta1
        Subject Public Key Info:
            Public Key Algorithm: rsaEncryption
                Public-Key: (1024 bit)
                Modulus:
                    00:e2:ad:a0:70:cc:41:2d:c6:7f:5b:e3:60:2e:9b:
                    75:ca:9b:7c:c8:41:9e:9d:25:94:a1:fb:98:ec:e4:
                    a0:b0:05:a5:a4:c2:37:ae:cc:f6:8b:9a:01:3a:4a:
                    ca:25:56:40:a4:b2:c3:41:66:43:e0:2b:3f:7a:44:
                    28:d8:11:d2:82:16:0f:16:9e:07:4b:b1:3c:20:5e:
                    0e:c2:59:4d:22:b7:8f:33:3a:dc:37:33:f2:69:15:
                    06:46:a3:bd:ff:27:84:70:7a:83:76:bb:a6:68:93:
                    32:65:3e:d3:10:fe:56:96:b0:6e:ad:31:e2:19:94:
                    e4:70:d2:1a:99:fb:d6:96:71
                Exponent: 65537 (0x10001)
        X509v3 extensions:
            X509v3 Basic Constraints: critical
                CA:FALSE
            X509v3 Key Usage: critical
                Digital Signature
    Signature Algorithm: sha256WithRSAEncryption
         6d:e6:62:9b:04:c5:5c:32:98:4c:2a:75:c3:bb:ac:d5:76:09:
         46:68:2c:35:b3:7f:c3:b3:3e:51:fe:df:34:63:4f:91:1f:22:
         c8:2c:14:55:58:34:3e:11:99:7d:db:3f:3b:e2:cf:5f:62:f3:
         cf:ec:f1:b6:1f:1a:dd:b6:cc:3d:4e:93:8b:e8:05:41:75:3f:
         d7:5e:8e:79:6e:66:9e:1b:55:f3:0b:4c:4e:41:7e:b5:6b:78:
         0e:01:a7:77:5a:73:d5:63:6a:be:00:d1:e4:67:b2:04:e9:f4:
         fc:c0:84:e6:d6:09:50:7c:ac:aa:b2:b4:d8:b4:bd:4f:6d:8e:
         11:aa:27:05:25:22:77:b1:3a:e8:5f:7a:72:ce:40:c2:21:36:
         c5:9a:d9:0c:da:14:fc:b0:e4:1b:4c:24:65:7d:9a:79:14:3e:
         f3:c4:06:87:80:5b:aa:b3:44:f8:b8:53:ef:23:62:3c:35:c2:
         c1:62:4d:82:56:82:89:7a:b5:cc:92:39:d2:38:e4:ab:67:7c:
         b5:64:20:3d:e2:25:96:35:3a:46:62:3e:ce:e3:0a:28:7c:01:
         7d:63:69:f8:7f:9a:62:32:b6:63:bc:c5:8a:21:31:10:24:18:
         c6:d9:de:ae:0d:06:69:c5:93:63:4e:35:7d:e1:60:13:15:5b:
         7c:3f:7d:f5
-----BEGIN CERTIFICATE-----
MIIDATCCAemgAwIBAgIBBjANBgkqhkiG9w0BAQsFADBxMQswCQYDVQQGEwJVUzET
MBEGA1UECAwKQ2FsaWZvcm5pYTEUMBIGA1UEBwwLU2FudGEgQ2xhcmExDTALBgNV
BAoMBHBrZzUxEDAOBgNVBAMMB2NoNV90YTExFjAUBgkqhkiG9w0BCQEWB2NoNV90
YTEwHhcNMTcxMTExMTIzODMwWhcNMjAwODA3MTIzODMwWjB5MQswCQYDVQQGEwJV
UzETMBEGA1UECAwKQ2FsaWZvcm5pYTEUMBIGA1UEBwwLU2FudGEgQ2xhcmExDTAL
BgNVBAoMBHBrZzUxFDASBgNVBAMMC2NzMV9jaDVfdGExMRowGAYJKoZIhvcNAQkB
FgtjczFfY2g1X3RhMTCBnzANBgkqhkiG9w0BAQEFAAOBjQAwgYkCgYEA4q2gcMxB
LcZ/W+NgLpt1ypt8yEGenSWUofuY7OSgsAWlpMI3rsz2i5oBOkrKJVZApLLDQWZD
4Cs/ekQo2BHSghYPFp4HS7E8IF4OwllNIrePMzrcNzPyaRUGRqO9/yeEcHqDdrum
aJMyZT7TEP5WlrBurTHiGZTkcNIamfvWlnECAwEAAaMgMB4wDAYDVR0TAQH/BAIw
ADAOBgNVHQ8BAf8EBAMCB4AwDQYJKoZIhvcNAQELBQADggEBAG3mYpsExVwymEwq
dcO7rNV2CUZoLDWzf8OzPlH+3zRjT5EfIsgsFFVYND4RmX3bPzviz19i88/s8bYf
Gt22zD1Ok4voBUF1P9dejnluZp4bVfMLTE5BfrVreA4Bp3dac9Vjar4A0eRnsgTp
9PzAhObWCVB8rKqytNi0vU9tjhGqJwUlInexOuhfenLOQMIhNsWa2QzaFPyw5BtM
JGV9mnkUPvPEBoeAW6qzRPi4U+8jYjw1wsFiTYJWgol6tcySOdI45KtnfLVkID3i
JZY1OkZiPs7jCih8AX1jafh/mmIytmO8xYohMRAkGMbZ3q4NBmnFk2NONX3hYBMV
W3w/ffU=
-----END CERTIFICATE-----
