Certificate:
    Data:
        Version: 3 (0x2)
        Serial Number: 7 (0x7)
    Signature Algorithm: sha256WithRSAEncryption
        Issuer: C=US, ST=California, L=Santa Clara, O=pkg5, CN=ch5_ta1/emailAddress=ch5_ta1
        Validity
            Not Before: Nov 11 12:38:30 2017 GMT
            Not After : Aug  7 12:38:30 2020 GMT
        Subject: C=US, ST=California, L=Santa Clara, O=pkg5, CN=cs2_ch5_ta1/emailAddress=cs2_ch5_ta1
        Subject Public Key Info:
            Public Key Algorithm: rsaEncryption
                Public-Key: (1024 bit)
                Modulus:
                    00:bb:f0:4a:35:3f:d6:d9:e1:b6:39:fc:91:ce:77:
                    ff:82:fa:83:d2:da:52:28:6c:d2:43:30:a7:f3:11:
                    37:9a:4f:0e:02:41:c4:64:d1:25:12:12:7a:af:14:
                    01:17:7c:6e:5e:0d:67:7b:aa:8d:8b:0c:dc:8b:ae:
                    49:59:e0:8c:b3:a9:d4:93:68:39:3a:e0:3b:91:c1:
                    8d:fd:81:d1:2e:59:91:53:c7:1f:10:3d:d6:ef:b8:
                    2a:a3:55:55:9b:7b:ea:58:1e:5f:03:b9:00:8a:4e:
                    82:aa:81:3c:f1:04:96:53:4c:17:bc:24:26:30:30:
                    e9:69:e9:54:9d:35:13:cf:a5
                Exponent: 65537 (0x10001)
        X509v3 extensions:
            X509v3 Basic Constraints: critical
                CA:FALSE
            X509v3 CRL Distribution Points: 

                Full Name:
                  URI:http://localhost:12001/file/0/ch5_ta1_crl.pem

    Signature Algorithm: sha256WithRSAEncryption
         b6:3b:16:a6:82:b2:86:3f:fd:4f:5c:a7:a4:71:92:07:c5:7f:
         69:f5:23:b3:86:64:08:d6:e0:67:74:ba:81:4b:17:f2:35:6b:
         22:72:7c:65:ae:8a:a0:ae:17:54:32:fb:ad:3f:91:c1:74:af:
         10:48:61:54:84:ac:52:82:ef:2f:67:f1:d4:43:94:8c:dc:37:
         1a:ee:e3:11:ee:d4:98:94:1f:82:17:c7:eb:1c:91:31:f9:9a:
         28:18:26:5f:54:0d:4e:52:f4:71:39:29:05:d8:7a:c9:78:df:
         0b:80:47:04:02:3d:9d:2d:b3:25:e3:ca:96:3e:e1:5b:49:31:
         46:7f:5f:b0:9e:f3:7d:4f:b3:5e:a1:2e:06:12:6b:fe:6a:73:
         8b:d3:f5:05:65:e5:51:87:f4:fd:48:3b:81:88:7c:92:49:4b:
         b8:48:75:42:c4:da:54:2a:20:c0:85:32:39:69:74:35:ff:74:
         ca:16:2e:ba:98:b7:3f:ab:73:13:fa:43:14:78:a3:7e:33:01:
         d2:db:b3:4d:56:2a:e5:98:d0:85:5b:3c:d3:2e:6b:f8:b9:ba:
         be:4f:04:db:99:b6:59:84:67:9e:63:9f:a7:ae:c6:38:01:a1:
         57:e0:1e:b7:ea:3f:23:7e:46:b1:c5:dc:c0:b9:d1:69:d2:f8:
         58:bd:52:00
-----BEGIN CERTIFICATE-----
MIIDMTCCAhmgAwIBAgIBBzANBgkqhkiG9w0BAQsFADBxMQswCQYDVQQGEwJVUzET
MBEGA1UECAwKQ2FsaWZvcm5pYTEUMBIGA1UEBwwLU2FudGEgQ2xhcmExDTALBgNV
BAoMBHBrZzUxEDAOBgNVBAMMB2NoNV90YTExFjAUBgkqhkiG9w0BCQEWB2NoNV90
YTEwHhcNMTcxMTExMTIzODMwWhcNMjAwODA3MTIzODMwWjB5MQswCQYDVQQGEwJV
UzETMBEGA1UECAwKQ2FsaWZvcm5pYTEUMBIGA1UEBwwLU2FudGEgQ2xhcmExDTAL
BgNVBAoMBHBrZzUxFDASBgNVBAMMC2NzMl9jaDVfdGExMRowGAYJKoZIhvcNAQkB
FgtjczJfY2g1X3RhMTCBnzANBgkqhkiG9w0BAQEFAAOBjQAwgYkCgYEAu/BKNT/W
2eG2OfyRznf/gvqD0tpSKGzSQzCn8xE3mk8OAkHEZNElEhJ6rxQBF3xuXg1ne6qN
iwzci65JWeCMs6nUk2g5OuA7kcGN/YHRLlmRU8cfED3W77gqo1VVm3vqWB5fA7kA
ik6CqoE88QSWU0wXvCQmMDDpaelUnTUTz6UCAwEAAaNQME4wDAYDVR0TAQH/BAIw
ADA+BgNVHR8ENzA1MDOgMaAvhi1odHRwOi8vbG9jYWxob3N0OjEyMDAxL2ZpbGUv
MC9jaDVfdGExX2NybC5wZW0wDQYJKoZIhvcNAQELBQADggEBALY7FqaCsoY//U9c
p6RxkgfFf2n1I7OGZAjW4Gd0uoFLF/I1ayJyfGWuiqCuF1Qy+60/kcF0rxBIYVSE
rFKC7y9n8dRDlIzcNxru4xHu1JiUH4IXx+sckTH5migYJl9UDU5S9HE5KQXYesl4
3wuARwQCPZ0tsyXjypY+4VtJMUZ/X7Ce831Ps16hLgYSa/5qc4vT9QVl5VGH9P1I
O4GIfJJJS7hIdULE2lQqIMCFMjlpdDX/dMoWLrqYtz+rcxP6QxR4o34zAdLbs01W
KuWY0IVbPNMua/i5ur5PBNuZtlmEZ55jn6euxjgBoVfgHrfqPyN+RrHF3MC50WnS
+Fi9UgA=
-----END CERTIFICATE-----
