Certificate:
    Data:
        Version: 3 (0x2)
        Serial Number: 9 (0x9)
    Signature Algorithm: sha256WithRSAEncryption
        Issuer: C=US, ST=California, L=Santa Clara, O=pkg5, CN=ch5.1_ta1/emailAddress=ch5.1_ta1
        Validity
            Not Before: Nov 11 12:38:30 2017 GMT
            Not After : Aug  7 12:38:30 2020 GMT
        Subject: C=US, ST=California, L=Santa Clara, O=pkg5, CN=cs1_ch5.1_ta1/emailAddress=cs1_ch5.1_ta1
        Subject Public Key Info:
            Public Key Algorithm: rsaEncryption
                Public-Key: (1024 bit)
                Modulus:
                    00:c7:17:c0:66:88:12:0b:a2:2f:d1:8d:b8:31:54:
                    73:eb:65:59:c0:7d:89:b1:aa:2c:ff:35:ed:92:d2:
                    98:ad:a4:f3:fc:55:e9:11:0f:34:96:b2:66:81:da:
                    1f:85:4f:36:59:6c:ff:e6:05:40:a9:ec:90:1c:c1:
                    86:a5:23:12:ca:0b:0b:33:8c:48:34:1e:37:c6:d7:
                    f1:21:c1:16:b1:1b:67:5a:65:50:9c:e5:d2:02:ef:
                    d9:65:b1:5b:1b:a6:bd:34:7b:b8:57:d5:af:7e:a2:
                    c0:70:7a:5f:de:c1:6e:d4:e4:a5:a6:24:e8:8d:f8:
                    98:29:61:fd:bc:65:53:bc:e1
                Exponent: 65537 (0x10001)
        X509v3 extensions:
            X509v3 Basic Constraints: critical
                CA:FALSE
            X509v3 Key Usage: critical
                Digital Signature
    Signature Algorithm: sha256WithRSAEncryption
         a7:65:1e:07:d1:c0:52:92:80:c7:8b:28:8d:81:c4:64:c3:25:
         f9:3e:31:99:eb:ef:34:c1:af:e8:f5:62:ab:ce:cd:db:45:59:
         6f:99:c4:0d:0c:02:0b:2d:45:05:33:7b:7b:fd:bf:c2:94:1a:
         f2:da:dd:18:17:ae:c4:4a:65:1c:16:73:64:b4:1e:65:b4:cc:
         03:3c:b5:f9:46:0a:4f:97:2f:5d:63:32:b9:03:29:e6:86:87:
         22:67:f4:05:d8:7f:1b:d9:79:23:8d:70:f0:7d:e8:16:3c:8b:
         c3:0b:b5:04:f6:9c:58:bd:68:de:0d:2f:5b:c7:71:8b:fc:a6:
         bc:84:6a:19:5d:42:7f:90:c9:75:b8:6d:e8:af:0a:36:96:ab:
         92:15:1a:8e:53:a3:c1:f2:7c:7f:35:06:68:7f:a4:21:d4:08:
         12:39:2c:21:43:9e:b5:e3:46:e3:67:ab:fc:60:76:a8:6b:ef:
         8c:67:04:80:5f:e0:ff:ce:9c:24:65:23:3b:2e:b9:68:22:ce:
         39:15:04:64:31:de:9f:bd:d7:b6:3c:d1:f2:c4:9c:b2:74:17:
         13:47:89:b7:1c:c8:65:d2:c9:40:0a:4d:9f:64:b5:16:0f:d8:
         83:c6:e1:25:25:cc:72:b7:f2:8e:b8:e9:fb:1f:fa:45:78:f6:
         6c:ea:75:b3
-----BEGIN CERTIFICATE-----
MIIDCTCCAfGgAwIBAgIBCTANBgkqhkiG9w0BAQsFADB1MQswCQYDVQQGEwJVUzET
MBEGA1UECAwKQ2FsaWZvcm5pYTEUMBIGA1UEBwwLU2FudGEgQ2xhcmExDTALBgNV
BAoMBHBrZzUxEjAQBgNVBAMMCWNoNS4xX3RhMTEYMBYGCSqGSIb3DQEJARYJY2g1
LjFfdGExMB4XDTE3MTExMTEyMzgzMFoXDTIwMDgwNzEyMzgzMFowfTELMAkGA1UE
BhMCVVMxEzARBgNVBAgMCkNhbGlmb3JuaWExFDASBgNVBAcMC1NhbnRhIENsYXJh
MQ0wCwYDVQQKDARwa2c1MRYwFAYDVQQDDA1jczFfY2g1LjFfdGExMRwwGgYJKoZI
hvcNAQkBFg1jczFfY2g1LjFfdGExMIGfMA0GCSqGSIb3DQEBAQUAA4GNADCBiQKB
gQDHF8BmiBILoi/RjbgxVHPrZVnAfYmxqiz/Ne2S0pitpPP8VekRDzSWsmaB2h+F
TzZZbP/mBUCp7JAcwYalIxLKCwszjEg0HjfG1/EhwRaxG2daZVCc5dIC79llsVsb
pr00e7hX1a9+osBwel/ewW7U5KWmJOiN+JgpYf28ZVO84QIDAQABoyAwHjAMBgNV
HRMBAf8EAjAAMA4GA1UdDwEB/wQEAwIHgDANBgkqhkiG9w0BAQsFAAOCAQEAp2Ue
B9HAUpKAx4sojYHEZMMl+T4xmevvNMGv6PViq87N20VZb5nEDQwCCy1FBTN7e/2/
wpQa8trdGBeuxEplHBZzZLQeZbTMAzy1+UYKT5cvXWMyuQMp5oaHImf0Bdh/G9l5
I41w8H3oFjyLwwu1BPacWL1o3g0vW8dxi/ymvIRqGV1Cf5DJdbht6K8KNparkhUa
jlOjwfJ8fzUGaH+kIdQIEjksIUOeteNG42er/GB2qGvvjGcEgF/g/86cJGUjOy65
aCLOORUEZDHen73XtjzR8sScsnQXE0eJtxzIZdLJQApNn2S1Fg/Yg8bhJSXMcrfy
jrjp+x/6RXj2bOp1sw==
-----END CERTIFICATE-----
