Certificate:
    Data:
        Version: 3 (0x2)
        Serial Number: 9 (0x9)
    Signature Algorithm: sha256WithRSAEncryption
        Issuer: C=US, ST=California, L=Santa Clara, O=pkg5, CN=ch5.1_ta1/emailAddress=ch5.1_ta1
        Validity
            Not Before: Jul  3 14:13:59 2018 GMT
            Not After : Mar 29 14:13:59 2021 GMT
        Subject: C=US, ST=California, L=Santa Clara, O=pkg5, CN=cs1_ch5.1_ta1/emailAddress=cs1_ch5.1_ta1
        Subject Public Key Info:
            Public Key Algorithm: rsaEncryption
                Public-Key: (1024 bit)
                Modulus:
                    00:d1:95:ba:4f:ae:3a:ba:e9:73:5e:3c:d4:b7:eb:
                    74:4f:45:4e:da:b8:5f:1a:85:1a:d5:ac:17:61:cc:
                    b4:37:88:25:91:93:03:b7:8d:d8:cf:99:f6:fb:eb:
                    76:ca:f6:70:be:6d:3d:37:7c:8f:08:59:10:b4:b6:
                    e2:bd:fc:e4:df:66:1e:ea:5e:b4:e4:1e:d5:5d:aa:
                    bb:a9:4d:1b:6a:0c:e6:5b:a4:04:c0:d8:42:31:e1:
                    a6:f8:c3:b8:87:db:e5:b7:d9:74:d0:9b:2f:92:3a:
                    a3:2f:4e:ac:29:fe:9e:e2:a9:6b:c3:f0:8c:eb:b9:
                    33:f7:a9:e5:86:5f:24:2a:d7
                Exponent: 65537 (0x10001)
        X509v3 extensions:
            X509v3 Basic Constraints: critical
                CA:FALSE
            X509v3 Key Usage: critical
                Digital Signature
    Signature Algorithm: sha256WithRSAEncryption
         44:f2:fc:10:12:4d:be:4a:f1:d6:2c:73:d4:96:83:ae:c7:bc:
         45:b5:40:f2:f0:37:80:47:17:02:ad:78:b2:15:f2:ae:d8:ac:
         2a:a2:88:3b:dc:47:b9:3b:91:cd:5d:79:15:69:50:77:03:a7:
         15:6d:03:e5:14:ee:09:45:29:d4:d2:5f:d4:5f:f4:df:9d:91:
         5d:8d:1a:45:19:ab:ad:e0:60:d5:4f:b7:cf:46:39:3d:30:5c:
         05:ce:e6:f7:81:f0:76:3b:91:37:b0:81:fb:b5:68:00:32:3c:
         39:50:21:23:08:48:21:f7:57:f7:56:2f:05:f2:55:65:5b:1e:
         d4:f9:f0:4d:29:6a:76:c9:a3:c2:4f:e4:64:41:81:7d:96:41:
         09:87:d9:ca:63:7b:71:55:18:dc:f4:b9:bd:43:ff:2d:bb:a3:
         7b:c7:d9:f1:be:11:a6:a0:29:b5:89:08:4c:1a:b0:e9:a8:f6:
         8f:7f:9a:35:ab:e6:df:39:61:9f:eb:d2:fb:6b:b0:86:0d:86:
         94:c6:3b:8c:33:b7:58:cd:92:9a:8a:0d:66:24:ef:26:d7:00:
         26:f7:0d:03:64:cf:de:89:0b:16:2d:6d:eb:90:c4:6f:71:fe:
         19:68:3b:2c:3d:c4:6b:70:c0:6b:be:60:79:99:08:4e:ad:af:
         2c:88:1a:e6
-----BEGIN CERTIFICATE-----
MIIDCTCCAfGgAwIBAgIBCTANBgkqhkiG9w0BAQsFADB1MQswCQYDVQQGEwJVUzET
MBEGA1UECAwKQ2FsaWZvcm5pYTEUMBIGA1UEBwwLU2FudGEgQ2xhcmExDTALBgNV
BAoMBHBrZzUxEjAQBgNVBAMMCWNoNS4xX3RhMTEYMBYGCSqGSIb3DQEJARYJY2g1
LjFfdGExMB4XDTE4MDcwMzE0MTM1OVoXDTIxMDMyOTE0MTM1OVowfTELMAkGA1UE
BhMCVVMxEzARBgNVBAgMCkNhbGlmb3JuaWExFDASBgNVBAcMC1NhbnRhIENsYXJh
MQ0wCwYDVQQKDARwa2c1MRYwFAYDVQQDDA1jczFfY2g1LjFfdGExMRwwGgYJKoZI
hvcNAQkBFg1jczFfY2g1LjFfdGExMIGfMA0GCSqGSIb3DQEBAQUAA4GNADCBiQKB
gQDRlbpPrjq66XNePNS363RPRU7auF8ahRrVrBdhzLQ3iCWRkwO3jdjPmfb763bK
9nC+bT03fI8IWRC0tuK9/OTfZh7qXrTkHtVdqrupTRtqDOZbpATA2EIx4ab4w7iH
2+W32XTQmy+SOqMvTqwp/p7iqWvD8IzruTP3qeWGXyQq1wIDAQABoyAwHjAMBgNV
HRMBAf8EAjAAMA4GA1UdDwEB/wQEAwIHgDANBgkqhkiG9w0BAQsFAAOCAQEARPL8
EBJNvkrx1ixz1JaDrse8RbVA8vA3gEcXAq14shXyrtisKqKIO9xHuTuRzV15FWlQ
dwOnFW0D5RTuCUUp1NJf1F/0352RXY0aRRmrreBg1U+3z0Y5PTBcBc7m94HwdjuR
N7CB+7VoADI8OVAhIwhIIfdX91YvBfJVZVse1PnwTSlqdsmjwk/kZEGBfZZBCYfZ
ymN7cVUY3PS5vUP/Lbuje8fZ8b4RpqAptYkITBqw6aj2j3+aNavm3zlhn+vS+2uw
hg2GlMY7jDO3WM2SmooNZiTvJtcAJvcNA2TP3okLFi1t65DEb3H+GWg7LD3Ea3DA
a75geZkITq2vLIga5g==
-----END CERTIFICATE-----
