Certificate:
    Data:
        Version: 3 (0x2)
        Serial Number: 9 (0x9)
    Signature Algorithm: sha256WithRSAEncryption
        Issuer: C=US, ST=California, L=Santa Clara, O=pkg5, CN=ch5.1_ta1/emailAddress=ch5.1_ta1
        Validity
            Not Before: Nov 24 01:22:41 2021 GMT
            Not After : Aug 20 01:22:41 2024 GMT
        Subject: C=US, ST=California, L=Santa Clara, O=pkg5, CN=cs1_ch5.1_ta1/emailAddress=cs1_ch5.1_ta1
        Subject Public Key Info:
            Public Key Algorithm: rsaEncryption
                Public-Key: (1024 bit)
                Modulus:
                    00:bc:e7:89:02:72:59:44:94:0d:f0:1e:dd:8f:a0:
                    9b:f5:73:d5:7d:ba:c0:98:70:1f:3b:f8:5f:a3:ac:
                    16:db:d7:c4:23:97:76:b1:70:fe:46:2a:e2:b1:77:
                    d3:bf:bd:0d:12:ea:7e:b5:d9:f5:86:c3:77:11:8e:
                    78:96:41:76:15:a8:1c:bb:54:00:6a:c6:6b:9d:7e:
                    33:33:5b:96:ca:50:8d:ee:6e:81:bd:16:92:af:87:
                    c1:54:f8:50:59:b6:1a:bd:87:23:04:8f:bd:2c:8a:
                    e4:4a:45:6f:1e:f4:9b:bc:a6:a8:88:d9:f6:9c:b5:
                    26:a1:20:45:72:9d:5f:89:eb
                Exponent: 65537 (0x10001)
        X509v3 extensions:
            X509v3 Basic Constraints: critical
                CA:FALSE
            X509v3 Key Usage: critical
                Digital Signature
    Signature Algorithm: sha256WithRSAEncryption
         5d:26:e2:ee:fa:e9:92:41:45:94:54:c1:75:85:2c:26:0d:76:
         0b:ad:72:80:c8:d4:85:c8:1f:23:60:1d:78:7b:fd:71:39:80:
         10:52:c2:99:fd:8a:5c:46:87:c4:f0:ef:54:41:62:78:75:ea:
         f3:df:2b:ff:d3:a0:5a:b7:29:ba:4e:66:47:c4:14:5c:47:d8:
         d4:2d:df:73:d5:ca:6b:75:5c:fc:5f:9c:d9:f5:d9:0b:d3:c3:
         98:77:4b:b6:62:63:71:e8:b1:29:c6:30:cd:c4:c3:e7:9a:d8:
         5c:2c:2f:a5:71:d1:18:b2:49:a7:92:53:ec:87:4e:73:15:81:
         4d:c5:a2:a9:a8:8b:32:2c:60:ce:35:bf:4e:5e:19:49:9c:bf:
         b0:15:4b:33:54:5c:72:52:49:8e:52:63:a6:4d:65:c8:93:c6:
         6e:88:e6:39:32:99:54:ed:7c:ed:dc:26:a1:72:aa:18:05:33:
         b6:b5:02:8e:9b:5b:a6:2f:11:0f:8a:11:52:45:73:a9:e6:f7:
         0c:7e:c1:db:47:14:9f:86:63:b1:dc:6f:6a:60:10:2e:e5:ea:
         da:c9:72:f3:bd:09:b6:f8:3f:4b:53:85:f8:87:a9:33:6b:fc:
         3f:9a:6e:f2:04:91:09:d8:c9:4e:91:96:f8:4d:12:8a:31:6b:
         7b:41:57:d4
-----BEGIN CERTIFICATE-----
MIIDCTCCAfGgAwIBAgIBCTANBgkqhkiG9w0BAQsFADB1MQswCQYDVQQGEwJVUzET
MBEGA1UECAwKQ2FsaWZvcm5pYTEUMBIGA1UEBwwLU2FudGEgQ2xhcmExDTALBgNV
BAoMBHBrZzUxEjAQBgNVBAMMCWNoNS4xX3RhMTEYMBYGCSqGSIb3DQEJARYJY2g1
LjFfdGExMB4XDTIxMTEyNDAxMjI0MVoXDTI0MDgyMDAxMjI0MVowfTELMAkGA1UE
BhMCVVMxEzARBgNVBAgMCkNhbGlmb3JuaWExFDASBgNVBAcMC1NhbnRhIENsYXJh
MQ0wCwYDVQQKDARwa2c1MRYwFAYDVQQDDA1jczFfY2g1LjFfdGExMRwwGgYJKoZI
hvcNAQkBFg1jczFfY2g1LjFfdGExMIGfMA0GCSqGSIb3DQEBAQUAA4GNADCBiQKB
gQC854kCcllElA3wHt2PoJv1c9V9usCYcB87+F+jrBbb18Qjl3axcP5GKuKxd9O/
vQ0S6n612fWGw3cRjniWQXYVqBy7VABqxmudfjMzW5bKUI3uboG9FpKvh8FU+FBZ
thq9hyMEj70siuRKRW8e9Ju8pqiI2factSahIEVynV+J6wIDAQABoyAwHjAMBgNV
HRMBAf8EAjAAMA4GA1UdDwEB/wQEAwIHgDANBgkqhkiG9w0BAQsFAAOCAQEAXSbi
7vrpkkFFlFTBdYUsJg12C61ygMjUhcgfI2AdeHv9cTmAEFLCmf2KXEaHxPDvVEFi
eHXq898r/9OgWrcpuk5mR8QUXEfY1C3fc9XKa3Vc/F+c2fXZC9PDmHdLtmJjceix
KcYwzcTD55rYXCwvpXHRGLJJp5JT7IdOcxWBTcWiqaiLMixgzjW/Tl4ZSZy/sBVL
M1RcclJJjlJjpk1lyJPGbojmOTKZVO187dwmoXKqGAUztrUCjptbpi8RD4oRUkVz
qeb3DH7B20cUn4ZjsdxvamAQLuXq2sly870Jtvg/S1OF+IepM2v8P5pu8gSRCdjJ
TpGW+E0SijFre0FX1A==
-----END CERTIFICATE-----
