Certificate:
    Data:
        Version: 3 (0x2)
        Serial Number: 11 (0xb)
    Signature Algorithm: sha256WithRSAEncryption
        Issuer: C=US, ST=California, L=Santa Clara, O=pkg5, CN=ch5.2_ta1/emailAddress=ch5.2_ta1
        Validity
            Not Before: Jul  3 14:13:59 2018 GMT
            Not After : Mar 29 14:13:59 2021 GMT
        Subject: C=US, ST=California, L=Santa Clara, O=pkg5, CN=cs1_ch5.2_ta1/emailAddress=cs1_ch5.2_ta1
        Subject Public Key Info:
            Public Key Algorithm: rsaEncryption
                Public-Key: (1024 bit)
                Modulus:
                    00:9c:67:e5:59:3c:82:9d:a9:d3:de:c0:89:39:a5:
                    df:d9:97:a0:e5:72:a9:c3:0a:98:9e:99:74:c8:50:
                    f6:3b:8e:fc:61:a0:41:0a:8e:f5:60:74:3c:03:92:
                    ec:ed:1d:a3:30:94:f3:20:bf:ad:43:2e:0b:70:7c:
                    eb:f6:f3:87:9a:7c:b5:37:14:22:50:1e:c8:e2:61:
                    55:2a:9d:dd:45:84:1d:e3:f4:86:96:27:81:0b:55:
                    4c:d4:64:20:e2:6b:f5:13:cb:98:ba:a3:72:fc:a6:
                    53:21:57:d6:2d:e8:a6:1c:78:e3:7e:6d:e7:d6:e2:
                    c8:e5:3c:50:5a:51:1e:bd:29
                Exponent: 65537 (0x10001)
        X509v3 extensions:
            X509v3 Basic Constraints: critical
                CA:FALSE
            X509v3 Key Usage: critical
                Digital Signature
    Signature Algorithm: sha256WithRSAEncryption
         11:18:c6:4e:fa:cf:e3:81:8c:66:66:9d:17:cc:4a:4e:04:12:
         19:e5:5f:14:66:3b:8f:52:04:66:00:2e:ac:13:02:9f:ed:7a:
         ad:39:4b:ba:c1:7c:e7:fc:0f:43:1f:58:c1:3c:a5:4d:d0:2e:
         e6:58:7f:aa:4c:df:ac:26:23:3c:91:58:7d:8d:29:b3:d1:48:
         de:0c:cb:77:32:04:d3:a7:53:3a:b9:37:cd:75:2e:77:b1:3e:
         1c:c9:25:18:ce:51:56:b1:2d:96:dd:8c:e9:6e:7d:c3:d5:a1:
         61:f2:66:4d:f4:0e:b7:22:61:43:ef:06:4d:5c:3c:eb:24:46:
         51:34:33:93:61:6e:f0:a1:0f:c2:2b:ae:f0:15:dc:b5:58:e8:
         59:79:d2:52:0e:5a:0b:5f:c2:33:3e:39:66:c0:05:24:18:96:
         2e:44:99:70:e8:91:ec:b6:fd:2d:79:bb:ab:92:db:40:e4:7e:
         a5:34:0f:16:8a:dc:fd:e8:e9:d6:9c:47:0d:d1:2e:fc:b8:02:
         87:1c:10:c9:d5:fd:8d:12:30:1e:53:dc:fa:4a:66:a1:0f:1c:
         b5:18:f7:70:82:5c:d2:f9:22:24:df:c5:a7:d8:fc:0a:be:b3:
         d5:2c:38:dd:87:e8:60:31:0f:ad:4a:4e:b0:4a:f9:af:c1:21:
         ff:2b:a8:42
-----BEGIN CERTIFICATE-----
MIIDCTCCAfGgAwIBAgIBCzANBgkqhkiG9w0BAQsFADB1MQswCQYDVQQGEwJVUzET
MBEGA1UECAwKQ2FsaWZvcm5pYTEUMBIGA1UEBwwLU2FudGEgQ2xhcmExDTALBgNV
BAoMBHBrZzUxEjAQBgNVBAMMCWNoNS4yX3RhMTEYMBYGCSqGSIb3DQEJARYJY2g1
LjJfdGExMB4XDTE4MDcwMzE0MTM1OVoXDTIxMDMyOTE0MTM1OVowfTELMAkGA1UE
BhMCVVMxEzARBgNVBAgMCkNhbGlmb3JuaWExFDASBgNVBAcMC1NhbnRhIENsYXJh
MQ0wCwYDVQQKDARwa2c1MRYwFAYDVQQDDA1jczFfY2g1LjJfdGExMRwwGgYJKoZI
hvcNAQkBFg1jczFfY2g1LjJfdGExMIGfMA0GCSqGSIb3DQEBAQUAA4GNADCBiQKB
gQCcZ+VZPIKdqdPewIk5pd/Zl6DlcqnDCpiemXTIUPY7jvxhoEEKjvVgdDwDkuzt
HaMwlPMgv61DLgtwfOv284eafLU3FCJQHsjiYVUqnd1FhB3j9IaWJ4ELVUzUZCDi
a/UTy5i6o3L8plMhV9Yt6KYceON+befW4sjlPFBaUR69KQIDAQABoyAwHjAMBgNV
HRMBAf8EAjAAMA4GA1UdDwEB/wQEAwIHgDANBgkqhkiG9w0BAQsFAAOCAQEAERjG
TvrP44GMZmadF8xKTgQSGeVfFGY7j1IEZgAurBMCn+16rTlLusF85/wPQx9YwTyl
TdAu5lh/qkzfrCYjPJFYfY0ps9FI3gzLdzIE06dTOrk3zXUud7E+HMklGM5RVrEt
lt2M6W59w9WhYfJmTfQOtyJhQ+8GTVw86yRGUTQzk2Fu8KEPwiuu8BXctVjoWXnS
Ug5aC1/CMz45ZsAFJBiWLkSZcOiR7Lb9LXm7q5LbQOR+pTQPForc/ejp1pxHDdEu
/LgChxwQydX9jRIwHlPc+kpmoQ8ctRj3cIJc0vkiJN/Fp9j8Cr6z1Sw43YfoYDEP
rUpOsEr5r8Eh/yuoQg==
-----END CERTIFICATE-----
