Certificate:
    Data:
        Version: 3 (0x2)
        Serial Number: 11 (0xb)
    Signature Algorithm: sha256WithRSAEncryption
        Issuer: C=US, ST=California, L=Santa Clara, O=pkg5, CN=ch5.2_ta1/emailAddress=ch5.2_ta1
        Validity
            Not Before: Nov 24 01:22:41 2021 GMT
            Not After : Aug 20 01:22:41 2024 GMT
        Subject: C=US, ST=California, L=Santa Clara, O=pkg5, CN=cs1_ch5.2_ta1/emailAddress=cs1_ch5.2_ta1
        Subject Public Key Info:
            Public Key Algorithm: rsaEncryption
                Public-Key: (1024 bit)
                Modulus:
                    00:eb:4d:3e:bf:12:e1:76:ea:ed:d8:0e:3a:d9:d7:
                    97:6c:11:bf:28:47:85:1f:98:11:e0:0f:a5:78:09:
                    80:87:a9:d5:3a:9f:fa:10:12:29:e3:08:f8:d7:57:
                    bb:e9:ac:b5:a8:3e:45:5f:db:c1:21:1c:02:fc:42:
                    98:e4:4a:e0:56:33:01:73:4f:b3:f7:cc:59:a5:e0:
                    50:99:e4:2d:68:e2:70:72:5c:36:cf:31:41:23:e4:
                    d6:fe:9f:d7:fa:55:1b:f2:07:ad:b8:a6:44:c8:8c:
                    09:c4:9b:98:e0:c4:27:c1:de:5c:c5:fa:0a:5a:94:
                    78:38:e1:b3:bb:14:b5:1d:4b
                Exponent: 65537 (0x10001)
        X509v3 extensions:
            X509v3 Basic Constraints: critical
                CA:FALSE
            X509v3 Key Usage: critical
                Digital Signature
    Signature Algorithm: sha256WithRSAEncryption
         7c:ad:0c:95:1f:7f:db:0b:0f:7f:b1:c0:12:87:d7:48:db:dc:
         be:99:72:66:f9:b4:92:7a:ea:02:cd:ee:7f:a0:9c:f5:2d:21:
         e5:41:5f:db:fe:e7:7d:88:82:34:9a:ac:2f:73:be:18:ff:b1:
         f6:74:3c:47:86:6e:19:df:ab:cb:5b:bb:4c:d9:33:a1:04:d3:
         00:b3:85:70:95:ea:ae:02:49:1c:64:0a:95:ac:e8:e7:a5:e5:
         5d:01:a9:d6:08:7a:2c:de:66:92:8e:df:78:03:89:df:cf:02:
         f0:7c:50:70:89:c9:96:1d:32:44:96:20:89:c1:d1:8a:00:1d:
         a9:60:90:8c:b4:b2:b9:ad:b4:c2:0e:17:6f:40:64:a5:5e:77:
         c8:66:ad:23:ed:1b:0a:ca:4b:6b:fa:2c:18:5d:f6:a2:03:d0:
         11:d6:db:3d:82:e1:9b:63:8a:e4:ed:1a:03:2c:b6:38:eb:30:
         cf:9e:f1:11:af:a6:08:72:3f:70:f5:71:2f:4d:89:db:92:ae:
         eb:b7:a1:d0:b8:2d:db:15:cc:35:e0:b9:ec:fe:97:3d:46:b3:
         65:22:dc:2d:08:cb:fc:cf:d5:3f:ec:2e:ac:ea:1d:48:ea:e2:
         b1:f5:de:15:98:3c:6b:72:84:05:78:6f:5d:ad:e4:8f:96:ef:
         60:25:b9:1b
-----BEGIN CERTIFICATE-----
MIIDCTCCAfGgAwIBAgIBCzANBgkqhkiG9w0BAQsFADB1MQswCQYDVQQGEwJVUzET
MBEGA1UECAwKQ2FsaWZvcm5pYTEUMBIGA1UEBwwLU2FudGEgQ2xhcmExDTALBgNV
BAoMBHBrZzUxEjAQBgNVBAMMCWNoNS4yX3RhMTEYMBYGCSqGSIb3DQEJARYJY2g1
LjJfdGExMB4XDTIxMTEyNDAxMjI0MVoXDTI0MDgyMDAxMjI0MVowfTELMAkGA1UE
BhMCVVMxEzARBgNVBAgMCkNhbGlmb3JuaWExFDASBgNVBAcMC1NhbnRhIENsYXJh
MQ0wCwYDVQQKDARwa2c1MRYwFAYDVQQDDA1jczFfY2g1LjJfdGExMRwwGgYJKoZI
hvcNAQkBFg1jczFfY2g1LjJfdGExMIGfMA0GCSqGSIb3DQEBAQUAA4GNADCBiQKB
gQDrTT6/EuF26u3YDjrZ15dsEb8oR4UfmBHgD6V4CYCHqdU6n/oQEinjCPjXV7vp
rLWoPkVf28EhHAL8QpjkSuBWMwFzT7P3zFml4FCZ5C1o4nByXDbPMUEj5Nb+n9f6
VRvyB624pkTIjAnEm5jgxCfB3lzF+gpalHg44bO7FLUdSwIDAQABoyAwHjAMBgNV
HRMBAf8EAjAAMA4GA1UdDwEB/wQEAwIHgDANBgkqhkiG9w0BAQsFAAOCAQEAfK0M
lR9/2wsPf7HAEofXSNvcvplyZvm0knrqAs3uf6Cc9S0h5UFf2/7nfYiCNJqsL3O+
GP+x9nQ8R4ZuGd+ry1u7TNkzoQTTALOFcJXqrgJJHGQKlazo56XlXQGp1gh6LN5m
ko7feAOJ388C8HxQcInJlh0yRJYgicHRigAdqWCQjLSyua20wg4Xb0BkpV53yGat
I+0bCspLa/osGF32ogPQEdbbPYLhm2OK5O0aAyy2OOswz57xEa+mCHI/cPVxL02J
25Ku67eh0Lgt2xXMNeC57P6XPUazZSLcLQjL/M/VP+wurOodSOrisfXeFZg8a3KE
BXhvXa3kj5bvYCW5Gw==
-----END CERTIFICATE-----
