Certificate:
    Data:
        Version: 3 (0x2)
        Serial Number: 14 (0xe)
    Signature Algorithm: sha256WithRSAEncryption
        Issuer: C=US, ST=California, L=Santa Clara, O=pkg5, CN=ch5.3_ta1/emailAddress=ch5.3_ta1
        Validity
            Not Before: Jul  3 14:14:00 2018 GMT
            Not After : Mar 29 14:14:00 2021 GMT
        Subject: C=US, ST=California, L=Santa Clara, O=pkg5, CN=cs1_ch5.3_ta1/emailAddress=cs1_ch5.3_ta1
        Subject Public Key Info:
            Public Key Algorithm: rsaEncryption
                Public-Key: (1024 bit)
                Modulus:
                    00:d6:64:22:fd:cb:e4:e0:26:a7:25:08:11:89:ef:
                    c1:30:e9:cf:4c:4b:5d:d8:a5:b6:e9:10:3b:d7:bb:
                    2d:59:12:2d:e3:2c:34:7b:29:35:80:fd:5d:55:80:
                    8e:ec:6c:27:c0:29:80:2a:2e:1d:cc:d3:1f:52:22:
                    d5:6f:28:2e:d4:00:4a:9c:75:89:3e:09:4d:0c:77:
                    ce:83:fe:1c:72:55:7c:1c:4a:2f:7b:ae:a4:58:5d:
                    3a:99:ef:27:0d:f4:c0:db:4f:fa:96:3e:81:b1:22:
                    89:05:b3:e8:5e:44:32:74:de:8b:00:52:ee:ab:87:
                    e8:50:aa:75:7b:bf:9a:9e:1d
                Exponent: 65537 (0x10001)
        X509v3 extensions:
            X509v3 Basic Constraints: critical
                CA:FALSE
            X509v3 Key Usage: critical
                Digital Signature
    Signature Algorithm: sha256WithRSAEncryption
         c9:ba:4a:38:db:e8:47:b2:8c:b3:45:85:65:3d:6a:74:7c:7f:
         86:57:02:26:37:48:6d:2e:89:b4:d9:f3:67:b2:83:28:e0:07:
         25:5a:9a:de:bd:11:cd:c8:e6:93:82:cb:3d:f6:dd:89:10:10:
         bc:7b:14:9f:0a:37:f7:1f:c9:7e:2a:13:ac:e9:9e:0e:6a:4d:
         66:46:cd:71:5a:55:2a:86:0e:dc:6c:c5:79:21:65:f2:02:33:
         ae:e2:e3:93:8f:a4:f5:d0:c0:76:18:87:46:53:b3:33:d6:9f:
         e5:ca:f8:01:4c:b0:dc:ee:8a:82:16:78:a8:42:84:7b:cd:2c:
         68:50:eb:4d:b0:ae:9e:27:e8:d6:24:1c:0f:39:9b:ab:b0:e2:
         89:d2:c8:2a:fe:f7:f1:11:b4:85:7d:af:2e:6e:d8:a7:90:99:
         44:0d:67:32:c6:af:91:99:83:d0:b6:87:91:bb:e0:98:65:7c:
         2b:bd:cb:93:3b:1f:89:79:00:9b:eb:91:3f:f4:a9:4f:4a:05:
         78:23:d3:b8:5b:e0:2f:56:86:93:1b:9a:4d:73:16:c1:18:43:
         ba:e5:29:8d:72:1f:60:90:fd:56:fc:b6:ed:cc:e1:ee:ec:a2:
         56:70:aa:e7:c6:d4:1c:b4:12:e4:74:fe:d3:92:23:cc:62:f0:
         b9:b1:52:ca
-----BEGIN CERTIFICATE-----
MIIDCTCCAfGgAwIBAgIBDjANBgkqhkiG9w0BAQsFADB1MQswCQYDVQQGEwJVUzET
MBEGA1UECAwKQ2FsaWZvcm5pYTEUMBIGA1UEBwwLU2FudGEgQ2xhcmExDTALBgNV
BAoMBHBrZzUxEjAQBgNVBAMMCWNoNS4zX3RhMTEYMBYGCSqGSIb3DQEJARYJY2g1
LjNfdGExMB4XDTE4MDcwMzE0MTQwMFoXDTIxMDMyOTE0MTQwMFowfTELMAkGA1UE
BhMCVVMxEzARBgNVBAgMCkNhbGlmb3JuaWExFDASBgNVBAcMC1NhbnRhIENsYXJh
MQ0wCwYDVQQKDARwa2c1MRYwFAYDVQQDDA1jczFfY2g1LjNfdGExMRwwGgYJKoZI
hvcNAQkBFg1jczFfY2g1LjNfdGExMIGfMA0GCSqGSIb3DQEBAQUAA4GNADCBiQKB
gQDWZCL9y+TgJqclCBGJ78Ew6c9MS13YpbbpEDvXuy1ZEi3jLDR7KTWA/V1VgI7s
bCfAKYAqLh3M0x9SItVvKC7UAEqcdYk+CU0Md86D/hxyVXwcSi97rqRYXTqZ7ycN
9MDbT/qWPoGxIokFs+heRDJ03osAUu6rh+hQqnV7v5qeHQIDAQABoyAwHjAMBgNV
HRMBAf8EAjAAMA4GA1UdDwEB/wQEAwIHgDANBgkqhkiG9w0BAQsFAAOCAQEAybpK
ONvoR7KMs0WFZT1qdHx/hlcCJjdIbS6JtNnzZ7KDKOAHJVqa3r0Rzcjmk4LLPfbd
iRAQvHsUnwo39x/JfioTrOmeDmpNZkbNcVpVKoYO3GzFeSFl8gIzruLjk4+k9dDA
dhiHRlOzM9af5cr4AUyw3O6KghZ4qEKEe80saFDrTbCunifo1iQcDzmbq7DiidLI
Kv738RG0hX2vLm7Yp5CZRA1nMsavkZmD0LaHkbvgmGV8K73LkzsfiXkAm+uRP/Sp
T0oFeCPTuFvgL1aGkxuaTXMWwRhDuuUpjXIfYJD9Vvy27czh7uyiVnCq58bUHLQS
5HT+05IjzGLwubFSyg==
-----END CERTIFICATE-----
