Certificate:
    Data:
        Version: 3 (0x2)
        Serial Number: 15 (0xf)
    Signature Algorithm: sha256WithRSAEncryption
        Issuer: C=US, ST=California, L=Santa Clara, O=pkg5, CN=ta2/emailAddress=ta2
        Validity
            Not Before: Nov 24 01:22:41 2021 GMT
            Not After : Aug 20 01:22:41 2024 GMT
        Subject: C=US, ST=California, L=Santa Clara, O=pkg5, CN=cs1_ta2/emailAddress=cs1_ta2
        Subject Public Key Info:
            Public Key Algorithm: rsaEncryption
                Public-Key: (1024 bit)
                Modulus:
                    00:cf:8a:6e:d2:90:bf:18:51:66:8b:3a:e6:35:7b:
                    63:6b:aa:d4:71:45:98:5c:3f:fb:b2:4e:04:de:ec:
                    ef:ad:b9:36:0a:31:23:df:18:a9:69:23:ca:7a:0d:
                    77:ce:a4:b5:e2:53:41:b5:5e:62:1f:02:b0:6a:95:
                    1d:09:67:42:01:46:ec:ba:14:b0:61:31:c5:1b:37:
                    df:9f:6a:f8:d7:d6:9f:7a:ef:46:2a:56:12:65:de:
                    1c:72:71:e6:1b:36:9e:5f:a7:4c:89:28:9a:8e:b8:
                    1e:41:4d:6e:9f:db:f6:25:3b:c3:db:02:bc:eb:2f:
                    b7:b3:ad:95:22:6b:90:97:95
                Exponent: 65537 (0x10001)
        X509v3 extensions:
            X509v3 Basic Constraints: critical
                CA:FALSE
            X509v3 Key Usage: critical
                Digital Signature
    Signature Algorithm: sha256WithRSAEncryption
         55:c4:62:6b:9f:dd:bc:14:dd:11:e1:e4:bb:5f:1d:64:da:02:
         1e:8e:52:eb:40:f0:5c:25:a5:62:cd:08:bb:57:5d:f9:eb:e6:
         cb:4b:27:c1:49:fd:54:2e:2b:28:9f:ff:e1:e1:da:c9:5d:18:
         72:f2:03:07:e2:8d:d3:01:67:bb:67:c4:2f:8e:db:48:9c:be:
         31:12:1b:61:f1:39:63:5c:52:2b:3c:d3:1c:94:18:5e:59:f2:
         54:b3:11:d5:26:fa:33:cf:72:7b:6f:d7:b1:d5:c0:7d:ec:e5:
         ee:3c:3e:fb:60:8b:25:80:b2:09:80:ef:e6:af:e1:bd:e9:a4:
         bf:5e:8b:bc:63:cd:c5:db:4b:7d:8b:cf:38:fd:cf:3e:08:28:
         b0:32:34:2e:19:14:97:3c:1f:09:fc:8e:0e:ac:04:e0:bd:5a:
         a8:21:b0:2c:8f:3e:d2:be:be:28:16:49:2d:6b:73:4e:77:0b:
         bb:2e:9c:52:72:52:47:d6:7e:c5:e7:66:a0:fd:64:c0:04:5a:
         32:94:cb:88:66:1f:3d:bb:ac:20:fd:e8:ad:db:e8:b0:a0:2d:
         20:0c:37:82:db:0b:6c:fc:9e:79:4d:ec:d6:6b:c4:a8:2c:18:
         ab:4e:57:69:46:e8:22:80:9b:4f:d2:6b:4e:4c:ee:32:49:b5:
         10:68:21:d6
-----BEGIN CERTIFICATE-----
MIIC8TCCAdmgAwIBAgIBDzANBgkqhkiG9w0BAQsFADBpMQswCQYDVQQGEwJVUzET
MBEGA1UECAwKQ2FsaWZvcm5pYTEUMBIGA1UEBwwLU2FudGEgQ2xhcmExDTALBgNV
BAoMBHBrZzUxDDAKBgNVBAMMA3RhMjESMBAGCSqGSIb3DQEJARYDdGEyMB4XDTIx
MTEyNDAxMjI0MVoXDTI0MDgyMDAxMjI0MVowcTELMAkGA1UEBhMCVVMxEzARBgNV
BAgMCkNhbGlmb3JuaWExFDASBgNVBAcMC1NhbnRhIENsYXJhMQ0wCwYDVQQKDARw
a2c1MRAwDgYDVQQDDAdjczFfdGEyMRYwFAYJKoZIhvcNAQkBFgdjczFfdGEyMIGf
MA0GCSqGSIb3DQEBAQUAA4GNADCBiQKBgQDPim7SkL8YUWaLOuY1e2NrqtRxRZhc
P/uyTgTe7O+tuTYKMSPfGKlpI8p6DXfOpLXiU0G1XmIfArBqlR0JZ0IBRuy6FLBh
McUbN9+favjX1p9670YqVhJl3hxyceYbNp5fp0yJKJqOuB5BTW6f2/YlO8PbArzr
L7ezrZUia5CXlQIDAQABoyAwHjAMBgNVHRMBAf8EAjAAMA4GA1UdDwEB/wQEAwIH
gDANBgkqhkiG9w0BAQsFAAOCAQEAVcRia5/dvBTdEeHku18dZNoCHo5S60DwXCWl
Ys0Iu1dd+evmy0snwUn9VC4rKJ//4eHayV0YcvIDB+KN0wFnu2fEL47bSJy+MRIb
YfE5Y1xSKzzTHJQYXlnyVLMR1Sb6M89ye2/XsdXAfezl7jw++2CLJYCyCYDv5q/h
vemkv16LvGPNxdtLfYvPOP3PPggosDI0LhkUlzwfCfyODqwE4L1aqCGwLI8+0r6+
KBZJLWtzTncLuy6cUnJSR9Z+xedmoP1kwARaMpTLiGYfPbusIP3ordvosKAtIAw3
gtsLbPyeeU3s1mvEqCwYq05XaUboIoCbT9JrTkzuMkm1EGgh1g==
-----END CERTIFICATE-----
