Certificate:
    Data:
        Version: 3 (0x2)
        Serial Number: 15 (0xf)
    Signature Algorithm: sha256WithRSAEncryption
        Issuer: C=US, ST=California, L=Santa Clara, O=pkg5, CN=ta2/emailAddress=ta2
        Validity
            Not Before: Nov 11 12:38:31 2017 GMT
            Not After : Aug  7 12:38:31 2020 GMT
        Subject: C=US, ST=California, L=Santa Clara, O=pkg5, CN=cs1_ta2/emailAddress=cs1_ta2
        Subject Public Key Info:
            Public Key Algorithm: rsaEncryption
                Public-Key: (1024 bit)
                Modulus:
                    00:a9:79:56:ed:bd:ae:1b:24:d5:16:c6:35:87:29:
                    9c:76:0b:b7:01:ba:1c:4e:a2:ce:dd:0e:95:ef:d8:
                    0c:a3:4f:6d:08:c6:77:2c:ce:80:eb:4c:b3:90:ae:
                    95:e4:05:57:48:05:e6:52:02:bb:0e:82:d8:cd:03:
                    b7:11:53:04:9a:b4:34:50:36:84:21:31:22:39:25:
                    a2:73:16:84:51:b6:dc:38:75:5c:e1:fc:20:bc:e4:
                    88:69:47:d9:8c:38:33:43:47:34:9e:89:a2:28:8b:
                    ad:2f:29:7c:e1:af:89:44:05:bc:49:77:47:6d:e3:
                    8a:85:b1:30:93:f8:1d:16:51
                Exponent: 65537 (0x10001)
        X509v3 extensions:
            X509v3 Basic Constraints: critical
                CA:FALSE
            X509v3 Key Usage: critical
                Digital Signature
    Signature Algorithm: sha256WithRSAEncryption
         b2:7b:dd:81:ca:22:7b:17:14:ee:4c:19:62:21:a4:d5:b0:48:
         0c:d4:dd:f3:f1:b8:00:82:21:68:ef:02:ed:db:52:34:cc:8b:
         90:58:b3:14:16:dc:80:2f:e8:19:a1:7e:d8:82:77:b2:27:34:
         40:0f:4d:cc:3a:71:6b:bb:14:4d:ae:57:55:ae:f0:76:e2:f0:
         15:63:b4:ad:0a:2a:86:1c:26:30:e5:d5:7d:9e:7b:37:62:87:
         ee:d6:7f:45:aa:8c:1b:b2:bc:c7:b8:9e:5b:47:3d:be:2e:b5:
         c9:2f:b5:f6:8f:1e:7d:a1:84:d5:c5:d5:1f:14:04:c2:bd:98:
         99:fd:b6:13:75:01:6b:c7:81:02:34:2b:12:5c:0a:fb:4b:9a:
         71:7e:b0:a6:a0:d2:53:32:6f:61:bd:53:d5:de:d0:30:23:2b:
         74:6b:50:70:5e:61:e6:5a:a8:09:eb:8d:2f:e8:ca:7e:ae:36:
         b6:ff:33:6e:70:7b:d0:9c:72:a0:a5:ff:f3:3a:11:60:42:5a:
         b8:3d:48:b8:f9:44:09:cc:25:97:17:17:66:45:16:a2:b3:a1:
         96:98:93:89:95:39:ad:c0:45:04:12:d3:7b:9c:68:63:f9:ec:
         b4:85:a8:fe:21:4d:6f:3f:f1:b7:02:5b:74:e8:ed:59:e0:88:
         3c:51:8b:b5
-----BEGIN CERTIFICATE-----
MIIC8TCCAdmgAwIBAgIBDzANBgkqhkiG9w0BAQsFADBpMQswCQYDVQQGEwJVUzET
MBEGA1UECAwKQ2FsaWZvcm5pYTEUMBIGA1UEBwwLU2FudGEgQ2xhcmExDTALBgNV
BAoMBHBrZzUxDDAKBgNVBAMMA3RhMjESMBAGCSqGSIb3DQEJARYDdGEyMB4XDTE3
MTExMTEyMzgzMVoXDTIwMDgwNzEyMzgzMVowcTELMAkGA1UEBhMCVVMxEzARBgNV
BAgMCkNhbGlmb3JuaWExFDASBgNVBAcMC1NhbnRhIENsYXJhMQ0wCwYDVQQKDARw
a2c1MRAwDgYDVQQDDAdjczFfdGEyMRYwFAYJKoZIhvcNAQkBFgdjczFfdGEyMIGf
MA0GCSqGSIb3DQEBAQUAA4GNADCBiQKBgQCpeVbtva4bJNUWxjWHKZx2C7cBuhxO
os7dDpXv2AyjT20IxncszoDrTLOQrpXkBVdIBeZSArsOgtjNA7cRUwSatDRQNoQh
MSI5JaJzFoRRttw4dVzh/CC85IhpR9mMODNDRzSeiaIoi60vKXzhr4lEBbxJd0dt
44qFsTCT+B0WUQIDAQABoyAwHjAMBgNVHRMBAf8EAjAAMA4GA1UdDwEB/wQEAwIH
gDANBgkqhkiG9w0BAQsFAAOCAQEAsnvdgcoiexcU7kwZYiGk1bBIDNTd8/G4AIIh
aO8C7dtSNMyLkFizFBbcgC/oGaF+2IJ3sic0QA9NzDpxa7sUTa5XVa7wduLwFWO0
rQoqhhwmMOXVfZ57N2KH7tZ/RaqMG7K8x7ieW0c9vi61yS+19o8efaGE1cXVHxQE
wr2Ymf22E3UBa8eBAjQrElwK+0uacX6wpqDSUzJvYb1T1d7QMCMrdGtQcF5h5lqo
CeuNL+jKfq42tv8zbnB70JxyoKX/8zoRYEJauD1IuPlECcwllxcXZkUWorOhlpiT
iZU5rcBFBBLTe5xoY/nstIWo/iFNbz/xtwJbdOjtWeCIPFGLtQ==
-----END CERTIFICATE-----
