Certificate:
    Data:
        Version: 3 (0x2)
        Serial Number: 17 (0x11)
    Signature Algorithm: sha256WithRSAEncryption
        Issuer: C=US, ST=California, L=Santa Clara, O=pkg5, CN=ch1_ta3/emailAddress=ch1_ta3
        Validity
            Not Before: Jul  3 14:14:00 2018 GMT
            Not After : Mar 29 14:14:00 2021 GMT
        Subject: C=US, ST=California, L=Santa Clara, O=pkg5, CN=cs1_ch1_ta3/emailAddress=cs1_ch1_ta3
        Subject Public Key Info:
            Public Key Algorithm: rsaEncryption
                Public-Key: (1024 bit)
                Modulus:
                    00:c9:20:f4:3b:c2:28:0a:f6:50:4c:d1:23:39:c3:
                    29:24:69:18:71:d5:60:a8:db:e6:d0:99:49:0a:2c:
                    db:50:9f:40:6a:14:8d:03:98:aa:dd:1e:fa:b8:b9:
                    06:7a:1e:53:42:6b:c8:c4:b9:b4:cd:8a:b8:39:2f:
                    ba:c0:6a:22:16:4c:15:9f:18:d4:d8:0f:f2:7e:6e:
                    13:a3:fd:60:f0:2d:9e:41:4d:49:0f:7a:cf:82:0f:
                    1c:42:5f:85:c7:86:81:e3:b8:37:f0:09:1a:07:ff:
                    05:d9:9f:f2:f5:2b:86:1b:70:ea:de:c0:96:9d:5f:
                    41:ee:e1:e6:7b:6a:ce:35:77
                Exponent: 65537 (0x10001)
        X509v3 extensions:
            X509v3 Basic Constraints: critical
                CA:FALSE
            X509v3 Key Usage: critical
                Digital Signature
    Signature Algorithm: sha256WithRSAEncryption
         b1:59:30:3c:06:fa:97:15:be:7b:14:b2:aa:9a:7c:b9:95:eb:
         a6:34:1f:6a:e3:5a:5a:8d:59:18:67:6e:f1:a4:8e:38:15:4d:
         bb:27:37:69:4b:b9:dc:de:d2:72:fd:c6:72:d8:a2:e1:83:24:
         ec:11:55:37:29:93:cf:67:96:20:51:44:72:60:da:80:85:3f:
         7e:60:f1:fb:5f:b8:a8:5f:0c:66:8a:45:f2:8d:3d:73:fa:6e:
         c6:d2:36:57:f8:33:49:ca:a9:c5:cf:0f:5b:c6:56:bc:28:02:
         ae:b5:6c:b5:09:a4:55:66:43:a7:22:14:c3:80:24:4e:2c:6f:
         cd:9a:42:46:d2:5d:bc:4f:43:d7:4f:72:1f:6f:53:6b:5f:61:
         fc:66:eb:5e:f8:55:1f:ac:db:e1:c1:f7:60:e6:9e:0e:b8:3f:
         4f:62:13:6e:fb:d5:b7:14:4a:a6:69:cb:0b:c1:f1:5e:58:be:
         ed:63:14:b8:fd:01:33:dc:fd:60:1f:5f:18:9d:b6:4a:88:00:
         8a:47:bd:38:b1:fc:f3:e6:2f:9b:1e:33:4e:81:08:3f:c2:b2:
         a7:42:a3:ea:b8:5e:e6:8b:62:88:8b:19:2e:33:7b:17:dc:b4:
         92:45:ae:ac:b9:7b:03:9c:ba:22:28:f3:44:a6:5a:66:81:d1:
         1c:d1:68:59
-----BEGIN CERTIFICATE-----
MIIDATCCAemgAwIBAgIBETANBgkqhkiG9w0BAQsFADBxMQswCQYDVQQGEwJVUzET
MBEGA1UECAwKQ2FsaWZvcm5pYTEUMBIGA1UEBwwLU2FudGEgQ2xhcmExDTALBgNV
BAoMBHBrZzUxEDAOBgNVBAMMB2NoMV90YTMxFjAUBgkqhkiG9w0BCQEWB2NoMV90
YTMwHhcNMTgwNzAzMTQxNDAwWhcNMjEwMzI5MTQxNDAwWjB5MQswCQYDVQQGEwJV
UzETMBEGA1UECAwKQ2FsaWZvcm5pYTEUMBIGA1UEBwwLU2FudGEgQ2xhcmExDTAL
BgNVBAoMBHBrZzUxFDASBgNVBAMMC2NzMV9jaDFfdGEzMRowGAYJKoZIhvcNAQkB
FgtjczFfY2gxX3RhMzCBnzANBgkqhkiG9w0BAQEFAAOBjQAwgYkCgYEAySD0O8Io
CvZQTNEjOcMpJGkYcdVgqNvm0JlJCizbUJ9AahSNA5iq3R76uLkGeh5TQmvIxLm0
zYq4OS+6wGoiFkwVnxjU2A/yfm4To/1g8C2eQU1JD3rPgg8cQl+Fx4aB47g38Aka
B/8F2Z/y9SuGG3Dq3sCWnV9B7uHme2rONXcCAwEAAaMgMB4wDAYDVR0TAQH/BAIw
ADAOBgNVHQ8BAf8EBAMCB4AwDQYJKoZIhvcNAQELBQADggEBALFZMDwG+pcVvnsU
sqqafLmV66Y0H2rjWlqNWRhnbvGkjjgVTbsnN2lLudze0nL9xnLYouGDJOwRVTcp
k89nliBRRHJg2oCFP35g8ftfuKhfDGaKRfKNPXP6bsbSNlf4M0nKqcXPD1vGVrwo
Aq61bLUJpFVmQ6ciFMOAJE4sb82aQkbSXbxPQ9dPch9vU2tfYfxm6174VR+s2+HB
92Dmng64P09iE2771bcUSqZpywvB8V5Yvu1jFLj9ATPc/WAfXxidtkqIAIpHvTix
/PPmL5seM06BCD/CsqdCo+q4XuaLYoiLGS4zexfctJJFrqy5ewOcuiIo80SmWmaB
0RzRaFk=
-----END CERTIFICATE-----
