Certificate:
    Data:
        Version: 3 (0x2)
        Serial Number: 17 (0x11)
    Signature Algorithm: sha256WithRSAEncryption
        Issuer: C=US, ST=California, L=Santa Clara, O=pkg5, CN=ch1_ta3/emailAddress=ch1_ta3
        Validity
            Not Before: Nov 24 01:22:42 2021 GMT
            Not After : Aug 20 01:22:42 2024 GMT
        Subject: C=US, ST=California, L=Santa Clara, O=pkg5, CN=cs1_ch1_ta3/emailAddress=cs1_ch1_ta3
        Subject Public Key Info:
            Public Key Algorithm: rsaEncryption
                Public-Key: (1024 bit)
                Modulus:
                    00:db:dd:3e:8b:f2:db:1a:41:90:62:d3:bf:1f:b2:
                    80:73:92:a6:a9:43:ad:d1:3f:19:9a:e9:51:ed:e4:
                    a1:cf:5d:24:ff:c7:8a:35:5c:ca:f0:59:24:85:25:
                    62:8f:f1:4e:74:b5:f9:2b:e2:f9:6c:4d:1a:b8:db:
                    ce:7f:08:e3:2a:b2:18:19:26:60:d6:96:83:82:2d:
                    af:2b:8b:5e:d9:0b:8c:a7:6f:6e:64:9b:b9:b3:d8:
                    33:48:4c:1c:f5:f9:88:80:f1:3e:70:9f:39:83:3a:
                    57:b9:41:06:24:13:58:06:2f:dd:87:f3:c8:6b:01:
                    19:15:be:f2:34:0b:1c:5e:71
                Exponent: 65537 (0x10001)
        X509v3 extensions:
            X509v3 Basic Constraints: critical
                CA:FALSE
            X509v3 Key Usage: critical
                Digital Signature
    Signature Algorithm: sha256WithRSAEncryption
         11:66:18:db:58:18:f8:92:9f:56:ab:77:1b:10:e8:8c:84:97:
         64:9f:a8:62:ad:75:03:2c:4a:a6:61:ea:9c:0b:61:f4:5a:af:
         82:39:5b:ea:6e:43:a6:c8:a5:03:8b:c8:4e:b4:78:44:e3:13:
         de:45:b9:37:d4:2f:a2:db:0e:ed:31:1a:f9:ce:65:83:73:a8:
         8c:e2:41:6c:87:7f:d4:fe:56:19:0e:b1:8f:ef:93:41:05:65:
         57:b6:c1:7a:a7:2c:d2:be:8d:c0:1b:55:14:5f:60:55:1f:72:
         df:58:02:a3:ee:4f:ac:ba:c3:9a:5d:e2:b9:78:cc:29:70:31:
         04:7c:69:e3:5c:a4:fe:f9:9a:0e:49:b9:af:f8:ae:68:30:dd:
         77:35:9e:c5:f1:77:5d:5c:75:0d:f6:33:ee:1b:eb:fc:62:9d:
         29:c0:d7:e7:83:10:4f:b6:74:7c:db:7d:5f:0e:ed:12:88:f9:
         a4:8b:da:fe:65:b8:0f:99:ba:f6:5f:51:52:a0:36:23:04:68:
         50:c9:06:4d:08:92:35:6f:f2:5b:a6:f7:7d:1f:3b:99:77:2c:
         c8:cd:7b:d2:61:99:a5:33:cf:4e:45:f6:e0:30:c2:da:23:e1:
         37:c5:0b:a5:6e:13:19:3c:27:65:85:ee:dd:7d:97:c8:cb:11:
         69:05:4e:4b
-----BEGIN CERTIFICATE-----
MIIDATCCAemgAwIBAgIBETANBgkqhkiG9w0BAQsFADBxMQswCQYDVQQGEwJVUzET
MBEGA1UECAwKQ2FsaWZvcm5pYTEUMBIGA1UEBwwLU2FudGEgQ2xhcmExDTALBgNV
BAoMBHBrZzUxEDAOBgNVBAMMB2NoMV90YTMxFjAUBgkqhkiG9w0BCQEWB2NoMV90
YTMwHhcNMjExMTI0MDEyMjQyWhcNMjQwODIwMDEyMjQyWjB5MQswCQYDVQQGEwJV
UzETMBEGA1UECAwKQ2FsaWZvcm5pYTEUMBIGA1UEBwwLU2FudGEgQ2xhcmExDTAL
BgNVBAoMBHBrZzUxFDASBgNVBAMMC2NzMV9jaDFfdGEzMRowGAYJKoZIhvcNAQkB
FgtjczFfY2gxX3RhMzCBnzANBgkqhkiG9w0BAQEFAAOBjQAwgYkCgYEA290+i/Lb
GkGQYtO/H7KAc5KmqUOt0T8ZmulR7eShz10k/8eKNVzK8FkkhSVij/FOdLX5K+L5
bE0auNvOfwjjKrIYGSZg1paDgi2vK4te2QuMp29uZJu5s9gzSEwc9fmIgPE+cJ85
gzpXuUEGJBNYBi/dh/PIawEZFb7yNAscXnECAwEAAaMgMB4wDAYDVR0TAQH/BAIw
ADAOBgNVHQ8BAf8EBAMCB4AwDQYJKoZIhvcNAQELBQADggEBABFmGNtYGPiSn1ar
dxsQ6IyEl2SfqGKtdQMsSqZh6pwLYfRar4I5W+puQ6bIpQOLyE60eETjE95FuTfU
L6LbDu0xGvnOZYNzqIziQWyHf9T+VhkOsY/vk0EFZVe2wXqnLNK+jcAbVRRfYFUf
ct9YAqPuT6y6w5pd4rl4zClwMQR8aeNcpP75mg5Jua/4rmgw3Xc1nsXxd11cdQ32
M+4b6/xinSnA1+eDEE+2dHzbfV8O7RKI+aSL2v5luA+ZuvZfUVKgNiMEaFDJBk0I
kjVv8lum930fO5l3LMjNe9JhmaUzz05F9uAwwtoj4TfFC6VuExk8J2WF7t19l8jL
EWkFTks=
-----END CERTIFICATE-----
