Certificate:
    Data:
        Version: 3 (0x2)
        Serial Number: 18 (0x12)
    Signature Algorithm: sha256WithRSAEncryption
        Issuer: C=US, ST=California, L=Santa Clara, O=pkg5, CN=ch1_ta3/emailAddress=ch1_ta3
        Validity
            Not Before: Jul  3 14:14:00 2018 GMT
            Not After : Mar 29 14:14:00 2021 GMT
        Subject: C=US, ST=California, L=Santa Clara, O=pkg5, CN=cs2_ch1_ta3/emailAddress=cs2_ch1_ta3
        Subject Public Key Info:
            Public Key Algorithm: rsaEncryption
                Public-Key: (1024 bit)
                Modulus:
                    00:9c:7f:77:1f:ae:99:41:79:da:b9:4c:73:6b:21:
                    f0:00:2a:99:c4:1d:1e:7f:72:45:de:9d:82:77:91:
                    11:9c:57:95:cf:f3:59:c0:1f:c0:d0:b2:18:1c:35:
                    7e:17:bc:22:70:2d:2d:6e:da:42:ad:ad:5e:26:45:
                    b4:a8:ec:59:72:3f:f7:54:52:84:cc:bd:fc:7f:fd:
                    f1:c2:6d:0a:e3:ac:5f:c1:6a:04:bb:b7:58:2c:d2:
                    32:24:94:cd:63:ae:7a:91:fb:0d:15:fe:a1:80:15:
                    fe:dd:c5:d6:51:87:28:92:78:7e:89:4e:ca:8e:ba:
                    20:91:18:f4:58:db:5d:48:17
                Exponent: 65537 (0x10001)
        X509v3 extensions:
            X509v3 Basic Constraints: critical
                CA:FALSE
            X509v3 Issuer Alternative Name: critical
                <EMPTY>

    Signature Algorithm: sha256WithRSAEncryption
         93:a8:62:67:eb:6d:05:4c:6e:e3:26:20:c1:f8:2b:a4:e3:96:
         c7:42:ff:03:c0:d0:b3:fc:fc:a6:79:cf:3d:75:bc:ca:b2:33:
         f6:ea:ee:fb:e2:86:f2:0c:7b:d6:ec:7a:dd:b6:3e:d2:6b:f9:
         ab:df:60:86:ed:1f:e0:a0:b4:2e:89:9e:9f:f6:81:08:8f:af:
         84:30:20:35:f6:94:82:72:61:51:be:34:cd:63:39:d9:6a:76:
         c9:3c:87:14:f9:21:33:2e:8d:db:7c:bc:26:05:52:b0:52:02:
         f2:cd:96:79:71:3f:64:4a:47:f4:bc:e6:8c:fd:06:08:5f:69:
         57:13:6c:10:95:47:42:1a:3e:cb:e4:76:9b:91:1a:92:ca:a8:
         ef:76:52:d3:e1:af:59:4c:21:db:aa:46:22:11:e0:49:0a:2c:
         f8:d7:80:a7:bf:bb:08:d1:93:61:75:b3:60:65:f8:5c:b7:57:
         7e:26:17:99:38:f6:ea:8c:c3:fa:c0:04:56:e5:12:ed:03:12:
         bf:e7:89:f0:5a:ad:35:e2:ef:03:1c:5e:fa:de:3c:ab:84:55:
         63:19:30:16:11:82:12:fc:a0:e1:d7:45:1a:92:3a:09:d0:f8:
         2e:f7:75:c7:51:7b:97:b6:6e:94:7c:fb:09:2e:83:ff:77:53:
         41:6b:2a:21
-----BEGIN CERTIFICATE-----
MIIC/zCCAeegAwIBAgIBEjANBgkqhkiG9w0BAQsFADBxMQswCQYDVQQGEwJVUzET
MBEGA1UECAwKQ2FsaWZvcm5pYTEUMBIGA1UEBwwLU2FudGEgQ2xhcmExDTALBgNV
BAoMBHBrZzUxEDAOBgNVBAMMB2NoMV90YTMxFjAUBgkqhkiG9w0BCQEWB2NoMV90
YTMwHhcNMTgwNzAzMTQxNDAwWhcNMjEwMzI5MTQxNDAwWjB5MQswCQYDVQQGEwJV
UzETMBEGA1UECAwKQ2FsaWZvcm5pYTEUMBIGA1UEBwwLU2FudGEgQ2xhcmExDTAL
BgNVBAoMBHBrZzUxFDASBgNVBAMMC2NzMl9jaDFfdGEzMRowGAYJKoZIhvcNAQkB
FgtjczJfY2gxX3RhMzCBnzANBgkqhkiG9w0BAQEFAAOBjQAwgYkCgYEAnH93H66Z
QXnauUxzayHwACqZxB0ef3JF3p2Cd5ERnFeVz/NZwB/A0LIYHDV+F7wicC0tbtpC
ra1eJkW0qOxZcj/3VFKEzL38f/3xwm0K46xfwWoEu7dYLNIyJJTNY656kfsNFf6h
gBX+3cXWUYcoknh+iU7KjrogkRj0WNtdSBcCAwEAAaMeMBwwDAYDVR0TAQH/BAIw
ADAMBgNVHRIBAf8EAjAAMA0GCSqGSIb3DQEBCwUAA4IBAQCTqGJn620FTG7jJiDB
+Cuk45bHQv8DwNCz/Pymec89dbzKsjP26u774obyDHvW7Hrdtj7Sa/mr32CG7R/g
oLQuiZ6f9oEIj6+EMCA19pSCcmFRvjTNYznZanbJPIcU+SEzLo3bfLwmBVKwUgLy
zZZ5cT9kSkf0vOaM/QYIX2lXE2wQlUdCGj7L5HabkRqSyqjvdlLT4a9ZTCHbqkYi
EeBJCiz414Cnv7sI0ZNhdbNgZfhct1d+JheZOPbqjMP6wARW5RLtAxK/54nwWq01
4u8DHF763jyrhFVjGTAWEYIS/KDh10UakjoJ0Pgu93XHUXuXtm6UfPsJLoP/d1NB
ayoh
-----END CERTIFICATE-----
