Certificate:
    Data:
        Version: 3 (0x2)
        Serial Number: 19 (0x13)
    Signature Algorithm: sha256WithRSAEncryption
        Issuer: C=US, ST=California, L=Santa Clara, O=pkg5, CN=ch1_ta3/emailAddress=ch1_ta3
        Validity
            Not Before: Jan  1 01:01:01 2009 GMT
            Not After : Jan  2 01:01:01 2009 GMT
        Subject: C=US, ST=California, L=Santa Clara, O=pkg5, CN=cs3_ch1_ta3/emailAddress=cs3_ch1_ta3
        Subject Public Key Info:
            Public Key Algorithm: rsaEncryption
                Public-Key: (1024 bit)
                Modulus:
                    00:f9:5c:f6:cb:0c:5b:98:b9:3f:f5:1d:b3:ad:6d:
                    3c:09:bb:d3:81:ed:3c:f6:a4:10:ec:e9:88:10:c5:
                    2f:36:50:1c:c4:c5:97:99:f3:fb:5f:3a:21:2d:b0:
                    ae:a2:b6:45:19:67:f7:d0:37:15:66:5f:60:35:91:
                    26:12:e3:62:c4:17:40:e6:8d:8f:d9:44:38:8f:be:
                    3d:b6:f8:d3:93:e0:f7:e7:49:e8:a6:06:5c:b7:d9:
                    97:62:fa:a3:ad:ad:e6:99:83:3d:68:43:c2:d9:4f:
                    72:c8:f3:32:d8:ee:e4:2b:2d:25:fd:2f:ee:4a:42:
                    c5:d2:fc:1d:6c:b2:63:25:b1
                Exponent: 65537 (0x10001)
        X509v3 extensions:
            X509v3 Basic Constraints: critical
                CA:FALSE
            X509v3 Key Usage: critical
                Digital Signature
    Signature Algorithm: sha256WithRSAEncryption
         7e:2a:79:08:bd:8e:eb:23:4f:29:04:38:0c:2c:d4:05:85:d3:
         7b:82:50:ce:8b:73:de:65:2f:1e:bd:e7:3f:b3:06:47:14:09:
         0f:86:d5:4d:a3:5a:3d:21:57:32:51:3b:fb:39:f0:89:38:08:
         ab:43:71:50:18:94:30:98:55:b5:13:b8:03:24:ab:d6:ae:85:
         31:9f:05:80:ad:de:94:0c:0a:f1:27:2c:69:61:b3:5f:eb:55:
         4b:88:94:04:e0:7f:e8:9b:71:84:78:f0:48:56:1b:93:e6:d0:
         29:ea:cc:35:73:a6:84:6a:f9:8f:0b:ba:8f:58:c4:85:3f:6e:
         44:eb:8d:ea:49:9d:c9:34:60:c2:78:3d:36:d3:7c:b4:a6:cc:
         2a:eb:7f:c3:7d:fd:00:35:b9:f3:26:77:82:ef:6c:65:80:e7:
         58:6c:6c:24:df:5a:05:7f:4f:2e:d3:4f:01:9b:63:3a:21:01:
         65:91:05:87:2d:e1:65:99:d4:ee:af:d7:45:d4:f5:fc:cf:2f:
         c4:a3:bb:8e:50:1a:2a:03:60:10:32:6e:39:b2:6f:26:7a:db:
         0b:fe:74:35:3b:eb:35:0d:02:6f:bb:a5:f6:70:e9:63:6d:71:
         a8:54:ee:9c:3f:76:df:47:3c:04:3d:20:18:78:20:38:33:b0:
         5e:34:c1:66
-----BEGIN CERTIFICATE-----
MIIDATCCAemgAwIBAgIBEzANBgkqhkiG9w0BAQsFADBxMQswCQYDVQQGEwJVUzET
MBEGA1UECAwKQ2FsaWZvcm5pYTEUMBIGA1UEBwwLU2FudGEgQ2xhcmExDTALBgNV
BAoMBHBrZzUxEDAOBgNVBAMMB2NoMV90YTMxFjAUBgkqhkiG9w0BCQEWB2NoMV90
YTMwHhcNMDkwMTAxMDEwMTAxWhcNMDkwMTAyMDEwMTAxWjB5MQswCQYDVQQGEwJV
UzETMBEGA1UECAwKQ2FsaWZvcm5pYTEUMBIGA1UEBwwLU2FudGEgQ2xhcmExDTAL
BgNVBAoMBHBrZzUxFDASBgNVBAMMC2NzM19jaDFfdGEzMRowGAYJKoZIhvcNAQkB
FgtjczNfY2gxX3RhMzCBnzANBgkqhkiG9w0BAQEFAAOBjQAwgYkCgYEA+Vz2ywxb
mLk/9R2zrW08CbvTge089qQQ7OmIEMUvNlAcxMWXmfP7XzohLbCuorZFGWf30DcV
Zl9gNZEmEuNixBdA5o2P2UQ4j749tvjTk+D350nopgZct9mXYvqjra3mmYM9aEPC
2U9yyPMy2O7kKy0l/S/uSkLF0vwdbLJjJbECAwEAAaMgMB4wDAYDVR0TAQH/BAIw
ADAOBgNVHQ8BAf8EBAMCB4AwDQYJKoZIhvcNAQELBQADggEBAH4qeQi9jusjTykE
OAws1AWF03uCUM6Lc95lLx695z+zBkcUCQ+G1U2jWj0hVzJRO/s58Ik4CKtDcVAY
lDCYVbUTuAMkq9auhTGfBYCt3pQMCvEnLGlhs1/rVUuIlATgf+ibcYR48EhWG5Pm
0CnqzDVzpoRq+Y8Luo9YxIU/bkTrjepJnck0YMJ4PTbTfLSmzCrrf8N9/QA1ufMm
d4LvbGWA51hsbCTfWgV/Ty7TTwGbYzohAWWRBYct4WWZ1O6v10XU9fzPL8Sju45Q
GioDYBAybjmybyZ62wv+dDU76zUNAm+7pfZw6WNtcahU7pw/dt9HPAQ9IBh4IDgz
sF40wWY=
-----END CERTIFICATE-----
