Certificate:
    Data:
        Version: 3 (0x2)
        Serial Number: 20 (0x14)
    Signature Algorithm: sha256WithRSAEncryption
        Issuer: C=US, ST=California, L=Santa Clara, O=pkg5, CN=ch1_ta3/emailAddress=ch1_ta3
        Validity
            Not Before: Jan  1 01:01:01 2035 GMT
            Not After : Jan  2 01:01:01 2035 GMT
        Subject: C=US, ST=California, L=Santa Clara, O=pkg5, CN=cs4_ch1_ta3/emailAddress=cs4_ch1_ta3
        Subject Public Key Info:
            Public Key Algorithm: rsaEncryption
                Public-Key: (1024 bit)
                Modulus:
                    00:db:d4:41:9f:a1:83:ce:1b:3b:13:a6:87:7c:cd:
                    e7:91:be:eb:8e:5a:c4:76:b4:73:a1:0d:8e:02:a6:
                    79:35:fe:65:e9:36:07:87:94:e2:db:98:bc:4e:5f:
                    b6:0d:90:9d:75:d6:0e:f2:76:dc:53:22:31:26:f2:
                    11:8d:19:09:1a:34:7e:7f:2a:4b:f4:8f:e2:0d:8a:
                    e4:01:bb:d1:6c:e6:5b:9a:fb:74:0d:92:6d:f0:9c:
                    42:2d:de:25:cc:5b:5c:55:dd:4e:77:4a:d3:ea:c3:
                    41:f5:32:2f:fa:2c:8b:48:da:0d:ce:87:3a:08:b5:
                    12:4c:bf:12:38:0c:4b:23:73
                Exponent: 65537 (0x10001)
        X509v3 extensions:
            X509v3 Basic Constraints: critical
                CA:FALSE
            X509v3 Key Usage: critical
                Digital Signature
    Signature Algorithm: sha256WithRSAEncryption
         b4:84:d4:42:4e:b2:ec:24:5b:4e:3a:2a:d9:1e:c2:6e:39:25:
         e3:9a:04:b0:25:8f:87:1b:2b:17:d8:9f:b2:3d:7d:c7:ac:72:
         53:7b:ad:24:0f:89:01:6d:7f:cd:33:4f:78:f1:1b:a5:6e:f4:
         af:cc:5f:a9:f6:f0:14:9d:73:8c:39:53:34:1f:c7:d4:e1:e9:
         89:11:49:11:6c:d8:c5:38:1f:48:12:93:ca:8e:14:bd:9c:9d:
         3f:37:a3:57:1c:6c:24:87:ea:3b:7e:90:87:01:68:a4:4c:b3:
         60:7f:63:6e:48:44:19:19:a4:18:8d:51:94:2a:56:e5:d7:06:
         c1:69:89:ad:a2:6d:77:41:92:58:49:36:3c:dc:e5:9e:d0:b4:
         40:3e:6b:92:4b:de:83:7a:19:a6:d4:d4:2c:89:63:94:e3:13:
         b1:36:7c:f9:c5:5a:72:2d:8d:74:95:53:d8:66:38:97:7c:9e:
         a8:97:aa:f8:c2:d9:5b:83:d9:c3:f8:56:c6:27:ea:ed:d8:16:
         4b:c6:67:b5:05:1a:ca:a3:82:a6:cf:ff:9f:d2:c0:49:b8:35:
         fc:f7:67:e1:58:e4:77:03:5e:cc:2b:30:97:16:39:ec:0c:19:
         f1:6c:69:ee:2f:83:d4:d0:bb:0e:30:cc:85:6c:86:c2:cf:01:
         ff:34:ca:9b
-----BEGIN CERTIFICATE-----
MIIDATCCAemgAwIBAgIBFDANBgkqhkiG9w0BAQsFADBxMQswCQYDVQQGEwJVUzET
MBEGA1UECAwKQ2FsaWZvcm5pYTEUMBIGA1UEBwwLU2FudGEgQ2xhcmExDTALBgNV
BAoMBHBrZzUxEDAOBgNVBAMMB2NoMV90YTMxFjAUBgkqhkiG9w0BCQEWB2NoMV90
YTMwHhcNMzUwMTAxMDEwMTAxWhcNMzUwMTAyMDEwMTAxWjB5MQswCQYDVQQGEwJV
UzETMBEGA1UECAwKQ2FsaWZvcm5pYTEUMBIGA1UEBwwLU2FudGEgQ2xhcmExDTAL
BgNVBAoMBHBrZzUxFDASBgNVBAMMC2NzNF9jaDFfdGEzMRowGAYJKoZIhvcNAQkB
FgtjczRfY2gxX3RhMzCBnzANBgkqhkiG9w0BAQEFAAOBjQAwgYkCgYEA29RBn6GD
zhs7E6aHfM3nkb7rjlrEdrRzoQ2OAqZ5Nf5l6TYHh5Ti25i8Tl+2DZCdddYO8nbc
UyIxJvIRjRkJGjR+fypL9I/iDYrkAbvRbOZbmvt0DZJt8JxCLd4lzFtcVd1Od0rT
6sNB9TIv+iyLSNoNzoc6CLUSTL8SOAxLI3MCAwEAAaMgMB4wDAYDVR0TAQH/BAIw
ADAOBgNVHQ8BAf8EBAMCB4AwDQYJKoZIhvcNAQELBQADggEBALSE1EJOsuwkW046
Ktkewm45JeOaBLAlj4cbKxfYn7I9fcesclN7rSQPiQFtf80zT3jxG6Vu9K/MX6n2
8BSdc4w5UzQfx9Th6YkRSRFs2MU4H0gSk8qOFL2cnT83o1ccbCSH6jt+kIcBaKRM
s2B/Y25IRBkZpBiNUZQqVuXXBsFpia2ibXdBklhJNjzc5Z7QtEA+a5JL3oN6GabU
1CyJY5TjE7E2fPnFWnItjXSVU9hmOJd8nqiXqvjC2VuD2cP4VsYn6u3YFkvGZ7UF
GsqjgqbP/5/SwEm4Nfz3Z+FY5HcDXswrMJcWOewMGfFsae4vg9TQuw4wzIVshsLP
Af80yps=
-----END CERTIFICATE-----
