Certificate:
    Data:
        Version: 3 (0x2)
        Serial Number: 20 (0x14)
    Signature Algorithm: sha256WithRSAEncryption
        Issuer: C=US, ST=California, L=Santa Clara, O=pkg5, CN=ch1_ta3/emailAddress=ch1_ta3
        Validity
            Not Before: Jan  1 01:01:01 2035 GMT
            Not After : Jan  2 01:01:01 2035 GMT
        Subject: C=US, ST=California, L=Santa Clara, O=pkg5, CN=cs4_ch1_ta3/emailAddress=cs4_ch1_ta3
        Subject Public Key Info:
            Public Key Algorithm: rsaEncryption
                Public-Key: (1024 bit)
                Modulus:
                    00:be:3f:bc:75:e8:06:04:04:8e:24:00:12:67:c9:
                    21:07:99:97:f9:f5:81:4c:61:5f:81:09:ab:57:89:
                    73:a6:42:4b:12:6f:d9:67:8e:78:ac:5d:84:73:c0:
                    00:f9:17:37:13:1c:1c:8a:d0:75:22:f3:b1:a2:a0:
                    30:77:68:c3:18:42:f8:79:71:c3:31:13:41:ec:a7:
                    81:33:6d:c1:79:1b:7a:13:09:f0:a5:a6:68:a0:30:
                    12:af:ff:14:9a:86:9f:dc:37:86:de:eb:ff:f2:72:
                    b8:7b:94:70:ed:36:43:11:b1:03:76:a4:7f:bd:65:
                    33:f8:37:14:15:a2:9e:fd:69
                Exponent: 65537 (0x10001)
        X509v3 extensions:
            X509v3 Basic Constraints: critical
                CA:FALSE
            X509v3 Key Usage: critical
                Digital Signature
    Signature Algorithm: sha256WithRSAEncryption
         37:a2:d5:84:61:2e:cb:78:ed:44:55:6c:39:f4:84:e2:0a:f5:
         e1:6b:8b:a7:84:81:86:dc:ba:34:10:2c:9d:8d:68:5e:fc:ec:
         87:6e:e6:12:91:55:8f:82:b9:a2:5a:e2:70:e6:e3:c7:07:b0:
         ac:ee:99:40:35:27:71:15:80:71:1b:42:d9:63:bc:8c:45:c5:
         ca:c8:12:68:f4:7a:fe:0e:44:4d:ec:f1:08:cb:54:2a:d7:25:
         56:d0:c8:e7:29:a7:c2:10:18:31:e1:81:87:d7:81:58:cd:32:
         87:ff:ce:fb:06:b2:0b:7e:0f:df:6c:3c:2c:d3:80:b3:42:16:
         3e:dc:0a:d6:7f:ed:d9:0a:9b:c1:8d:be:00:de:3a:b7:3b:a6:
         ed:e0:4b:39:9b:f5:38:fb:06:74:be:b7:74:72:ea:95:7e:c1:
         20:c1:2d:ef:b7:04:f6:2e:a8:54:7a:d1:f9:26:8c:3b:66:ab:
         b4:de:84:6a:48:ec:79:1a:e3:28:35:77:30:d1:6d:19:1b:ce:
         a4:c6:e6:2d:b7:c8:e5:cc:72:9b:a8:2d:7f:55:12:cb:b9:2b:
         c1:b5:c7:b3:f7:10:6b:07:73:c3:15:47:2c:96:8e:07:3c:5d:
         65:c5:f2:17:6a:a5:2d:75:ea:a4:10:3e:f1:ba:1c:59:f8:8d:
         5c:25:e7:d6
-----BEGIN CERTIFICATE-----
MIIDATCCAemgAwIBAgIBFDANBgkqhkiG9w0BAQsFADBxMQswCQYDVQQGEwJVUzET
MBEGA1UECAwKQ2FsaWZvcm5pYTEUMBIGA1UEBwwLU2FudGEgQ2xhcmExDTALBgNV
BAoMBHBrZzUxEDAOBgNVBAMMB2NoMV90YTMxFjAUBgkqhkiG9w0BCQEWB2NoMV90
YTMwHhcNMzUwMTAxMDEwMTAxWhcNMzUwMTAyMDEwMTAxWjB5MQswCQYDVQQGEwJV
UzETMBEGA1UECAwKQ2FsaWZvcm5pYTEUMBIGA1UEBwwLU2FudGEgQ2xhcmExDTAL
BgNVBAoMBHBrZzUxFDASBgNVBAMMC2NzNF9jaDFfdGEzMRowGAYJKoZIhvcNAQkB
FgtjczRfY2gxX3RhMzCBnzANBgkqhkiG9w0BAQEFAAOBjQAwgYkCgYEAvj+8degG
BASOJAASZ8khB5mX+fWBTGFfgQmrV4lzpkJLEm/ZZ454rF2Ec8AA+Rc3ExwcitB1
IvOxoqAwd2jDGEL4eXHDMRNB7KeBM23BeRt6EwnwpaZooDASr/8Umoaf3DeG3uv/
8nK4e5Rw7TZDEbEDdqR/vWUz+DcUFaKe/WkCAwEAAaMgMB4wDAYDVR0TAQH/BAIw
ADAOBgNVHQ8BAf8EBAMCB4AwDQYJKoZIhvcNAQELBQADggEBADei1YRhLst47URV
bDn0hOIK9eFri6eEgYbcujQQLJ2NaF787Idu5hKRVY+CuaJa4nDm48cHsKzumUA1
J3EVgHEbQtljvIxFxcrIEmj0ev4ORE3s8QjLVCrXJVbQyOcpp8IQGDHhgYfXgVjN
Mof/zvsGsgt+D99sPCzTgLNCFj7cCtZ/7dkKm8GNvgDeOrc7pu3gSzmb9Tj7BnS+
t3Ry6pV+wSDBLe+3BPYuqFR60fkmjDtmq7TehGpI7Hka4yg1dzDRbRkbzqTG5i23
yOXMcpuoLX9VEsu5K8G1x7P3EGsHc8MVRyyWjgc8XWXF8hdqpS116qQQPvG6HFn4
jVwl59Y=
-----END CERTIFICATE-----
