Certificate:
    Data:
        Version: 3 (0x2)
        Serial Number: 21 (0x15)
    Signature Algorithm: sha256WithRSAEncryption
        Issuer: C=US, ST=California, L=Santa Clara, O=pkg5, CN=ch1_ta3/emailAddress=ch1_ta3
        Validity
            Not Before: Nov 11 12:38:31 2017 GMT
            Not After : Aug  7 12:38:31 2020 GMT
        Subject: C=US, ST=California, L=Santa Clara, O=pkg5, CN=cs5_ch1_ta3/emailAddress=cs5_ch1_ta3
        Subject Public Key Info:
            Public Key Algorithm: rsaEncryption
                Public-Key: (1024 bit)
                Modulus:
                    00:b0:e9:40:4c:97:c3:08:4d:ee:f4:6f:31:a2:6e:
                    60:cb:9b:7e:40:99:08:18:30:96:c3:c2:52:04:66:
                    3a:42:2d:fe:36:ad:90:eb:8f:03:b0:49:5e:b2:98:
                    b8:68:59:9f:8c:18:c9:e3:99:1b:71:f0:a7:63:1e:
                    db:31:d2:a4:d9:b9:71:59:8a:e2:2a:6e:c0:02:1b:
                    89:d3:bf:e4:72:25:00:79:3e:30:7e:17:ba:69:e4:
                    66:1d:2a:c6:b1:91:69:ba:65:0c:70:04:c2:0e:83:
                    10:37:49:27:21:2e:35:6f:c2:ea:fa:12:41:b1:7c:
                    79:f9:68:41:d5:5c:7b:32:c9
                Exponent: 65537 (0x10001)
        X509v3 extensions:
            X509v3 Basic Constraints: critical
                CA:FALSE
            X509v3 Key Usage: 
                Encipher Only
    Signature Algorithm: sha256WithRSAEncryption
         10:65:55:b0:46:70:83:57:b1:f4:bb:63:6a:74:05:82:ac:8a:
         b3:5e:26:cb:7b:0b:de:b2:c6:12:43:9d:3d:79:ab:d6:5b:e2:
         e1:cc:f9:fc:e1:a1:88:3c:e8:ed:10:53:e0:b5:1a:92:82:53:
         82:4e:46:7b:56:09:b3:7f:82:37:df:98:a5:76:49:f5:a9:47:
         bf:44:bb:e7:21:a0:79:69:95:5b:19:67:84:d2:08:9b:c2:e7:
         3a:30:35:0b:9f:59:c6:79:d1:4f:4c:a9:b2:02:71:c7:17:d2:
         d0:2a:da:a9:10:19:28:1f:0b:a4:44:eb:ac:e1:06:26:71:d7:
         01:3a:d6:e8:6a:f1:ea:ee:d9:da:5a:86:4c:8f:ca:63:0c:eb:
         a3:97:ba:2e:d9:6c:61:0a:bf:e9:00:90:74:f0:2e:8b:91:b8:
         6b:c1:e3:c8:5a:a4:81:7c:2c:c2:c4:f7:20:b3:f5:59:ca:8d:
         b5:01:0e:b5:60:a9:8c:f0:1a:51:fd:17:32:9b:57:63:71:b4:
         d0:18:9a:87:0b:ea:90:34:7d:4c:d8:73:14:f4:67:e4:fd:2b:
         14:c0:8c:c0:dc:41:c7:e1:d7:fa:68:22:9d:58:f1:7d:ad:d8:
         94:95:01:c2:de:2a:9c:ec:c2:26:f6:5d:2e:2e:6e:9e:de:41:
         75:6e:c6:5a
-----BEGIN CERTIFICATE-----
MIIC/jCCAeagAwIBAgIBFTANBgkqhkiG9w0BAQsFADBxMQswCQYDVQQGEwJVUzET
MBEGA1UECAwKQ2FsaWZvcm5pYTEUMBIGA1UEBwwLU2FudGEgQ2xhcmExDTALBgNV
BAoMBHBrZzUxEDAOBgNVBAMMB2NoMV90YTMxFjAUBgkqhkiG9w0BCQEWB2NoMV90
YTMwHhcNMTcxMTExMTIzODMxWhcNMjAwODA3MTIzODMxWjB5MQswCQYDVQQGEwJV
UzETMBEGA1UECAwKQ2FsaWZvcm5pYTEUMBIGA1UEBwwLU2FudGEgQ2xhcmExDTAL
BgNVBAoMBHBrZzUxFDASBgNVBAMMC2NzNV9jaDFfdGEzMRowGAYJKoZIhvcNAQkB
FgtjczVfY2gxX3RhMzCBnzANBgkqhkiG9w0BAQEFAAOBjQAwgYkCgYEAsOlATJfD
CE3u9G8xom5gy5t+QJkIGDCWw8JSBGY6Qi3+Nq2Q648DsElespi4aFmfjBjJ45kb
cfCnYx7bMdKk2blxWYriKm7AAhuJ07/kciUAeT4wfhe6aeRmHSrGsZFpumUMcATC
DoMQN0knIS41b8Lq+hJBsXx5+WhB1Vx7MskCAwEAAaMdMBswDAYDVR0TAQH/BAIw
ADALBgNVHQ8EBAMCAAEwDQYJKoZIhvcNAQELBQADggEBABBlVbBGcINXsfS7Y2p0
BYKsirNeJst7C96yxhJDnT15q9Zb4uHM+fzhoYg86O0QU+C1GpKCU4JORntWCbN/
gjffmKV2SfWpR79Eu+choHlplVsZZ4TSCJvC5zowNQufWcZ50U9MqbICcccX0tAq
2qkQGSgfC6RE66zhBiZx1wE61uhq8eru2dpahkyPymMM66OXui7ZbGEKv+kAkHTw
LouRuGvB48hapIF8LMLE9yCz9VnKjbUBDrVgqYzwGlH9FzKbV2NxtNAYmocL6pA0
fUzYcxT0Z+T9KxTAjMDcQcfh1/poIp1Y8X2t2JSVAcLeKpzswib2XS4ubp7eQXVu
xlo=
-----END CERTIFICATE-----
