Certificate:
    Data:
        Version: 3 (0x2)
        Serial Number: 21 (0x15)
    Signature Algorithm: sha256WithRSAEncryption
        Issuer: C=US, ST=California, L=Santa Clara, O=pkg5, CN=ch1_ta3/emailAddress=ch1_ta3
        Validity
            Not Before: Nov 24 01:22:42 2021 GMT
            Not After : Aug 20 01:22:42 2024 GMT
        Subject: C=US, ST=California, L=Santa Clara, O=pkg5, CN=cs5_ch1_ta3/emailAddress=cs5_ch1_ta3
        Subject Public Key Info:
            Public Key Algorithm: rsaEncryption
                Public-Key: (1024 bit)
                Modulus:
                    00:a9:ce:98:84:66:81:aa:04:2e:85:b8:b4:8a:d0:
                    aa:e6:c9:5a:99:89:20:e9:63:ed:a0:36:a2:7f:56:
                    b1:b0:a2:57:b0:0a:f6:e5:e3:d3:8e:df:e8:90:82:
                    9a:ca:ef:ec:ae:45:3e:01:57:38:6b:e1:1b:58:7b:
                    c5:7e:a9:db:24:ba:7b:d1:29:20:bb:bf:c0:05:a1:
                    ea:3d:fe:93:64:dc:0b:f1:09:26:54:d1:7e:14:15:
                    a8:e2:7a:71:8b:bf:32:e0:93:0d:41:e0:56:8e:8f:
                    ba:88:cd:51:31:b3:c5:80:c3:83:e5:46:9e:86:b5:
                    46:0f:e8:03:0e:64:2b:25:93
                Exponent: 65537 (0x10001)
        X509v3 extensions:
            X509v3 Basic Constraints: critical
                CA:FALSE
            X509v3 Key Usage: 
                Key Agreement
    Signature Algorithm: sha256WithRSAEncryption
         7f:25:a7:28:0d:44:aa:96:4a:34:0e:d4:e4:18:08:3a:c5:bf:
         d9:1f:1a:5e:4d:d7:37:25:e9:94:b8:4d:14:ff:dc:11:00:c6:
         78:1c:f7:46:25:d2:27:9d:95:6d:26:f5:24:2c:13:37:6e:1f:
         eb:6d:52:69:8c:61:9d:56:90:b6:4b:99:10:81:9b:a3:63:0d:
         d2:5e:6b:d6:3f:6c:11:8b:da:c4:b9:a2:f9:e7:da:95:1c:5b:
         1e:2c:46:a3:14:2a:d5:8d:f4:d3:79:5d:1c:47:bf:d2:53:c7:
         87:b8:f4:4e:ff:80:5e:af:f3:78:7c:0e:82:59:2b:27:82:38:
         f1:d7:da:3d:44:c1:69:ce:17:82:77:df:24:53:65:b2:4d:72:
         61:34:24:b1:4c:91:a0:70:60:fb:bb:0a:b7:51:eb:ef:e7:6d:
         ba:72:92:26:f8:2f:37:c6:3c:e5:4f:33:63:65:38:57:52:83:
         d2:96:2d:54:fa:fe:8c:2d:a9:71:5f:a4:26:62:af:9f:62:2f:
         86:46:d0:b6:aa:0f:47:ee:5d:80:17:2b:66:ec:a6:04:70:df:
         ec:54:4d:65:d2:87:2b:10:51:f9:cb:9c:71:fe:8f:02:ad:fd:
         89:5e:20:ac:4f:56:9d:36:bb:37:2a:3a:a7:37:ac:64:92:66:
         ad:57:f2:ff
-----BEGIN CERTIFICATE-----
MIIC/jCCAeagAwIBAgIBFTANBgkqhkiG9w0BAQsFADBxMQswCQYDVQQGEwJVUzET
MBEGA1UECAwKQ2FsaWZvcm5pYTEUMBIGA1UEBwwLU2FudGEgQ2xhcmExDTALBgNV
BAoMBHBrZzUxEDAOBgNVBAMMB2NoMV90YTMxFjAUBgkqhkiG9w0BCQEWB2NoMV90
YTMwHhcNMjExMTI0MDEyMjQyWhcNMjQwODIwMDEyMjQyWjB5MQswCQYDVQQGEwJV
UzETMBEGA1UECAwKQ2FsaWZvcm5pYTEUMBIGA1UEBwwLU2FudGEgQ2xhcmExDTAL
BgNVBAoMBHBrZzUxFDASBgNVBAMMC2NzNV9jaDFfdGEzMRowGAYJKoZIhvcNAQkB
FgtjczVfY2gxX3RhMzCBnzANBgkqhkiG9w0BAQEFAAOBjQAwgYkCgYEAqc6YhGaB
qgQuhbi0itCq5slamYkg6WPtoDaif1axsKJXsAr25ePTjt/okIKayu/srkU+AVc4
a+EbWHvFfqnbJLp70Skgu7/ABaHqPf6TZNwL8QkmVNF+FBWo4npxi78y4JMNQeBW
jo+6iM1RMbPFgMOD5UaehrVGD+gDDmQrJZMCAwEAAaMdMBswDAYDVR0TAQH/BAIw
ADALBgNVHQ8EBAMCAwgwDQYJKoZIhvcNAQELBQADggEBAH8lpygNRKqWSjQO1OQY
CDrFv9kfGl5N1zcl6ZS4TRT/3BEAxngc90Yl0iedlW0m9SQsEzduH+ttUmmMYZ1W
kLZLmRCBm6NjDdJea9Y/bBGL2sS5ovnn2pUcWx4sRqMUKtWN9NN5XRxHv9JTx4e4
9E7/gF6v83h8DoJZKyeCOPHX2j1EwWnOF4J33yRTZbJNcmE0JLFMkaBwYPu7CrdR
6+/nbbpykib4LzfGPOVPM2NlOFdSg9KWLVT6/owtqXFfpCZir59iL4ZG0LaqD0fu
XYAXK2bspgRw3+xUTWXShysQUfnLnHH+jwKt/YleIKxPVp02uzcqOqc3rGSSZq1X
8v8=
-----END CERTIFICATE-----
