Certificate:
    Data:
        Version: 3 (0x2)
        Serial Number: 22 (0x16)
    Signature Algorithm: sha256WithRSAEncryption
        Issuer: C=US, ST=California, L=Santa Clara, O=pkg5, CN=ch1_ta3/emailAddress=ch1_ta3
        Validity
            Not Before: Nov 24 01:22:42 2021 GMT
            Not After : Aug 20 01:22:42 2024 GMT
        Subject: C=US, ST=California, L=Santa Clara, O=pkg5, CN=cs6_ch1_ta3/emailAddress=cs6_ch1_ta3
        Subject Public Key Info:
            Public Key Algorithm: rsaEncryption
                Public-Key: (1024 bit)
                Modulus:
                    00:c1:18:d8:2c:41:1a:95:e6:3f:f6:74:08:79:13:
                    49:28:35:c5:dd:a5:52:7a:27:d6:92:bd:0c:04:01:
                    55:29:f3:ab:ea:07:53:28:05:1c:a0:24:5b:5e:f3:
                    5a:0b:f8:69:32:d4:3d:2a:9b:f3:4f:17:3a:61:a7:
                    f9:e9:09:60:86:7a:4f:9c:64:16:fd:43:40:9a:19:
                    1c:5e:f9:3e:35:20:28:96:6c:ad:29:e7:fb:8f:0c:
                    5c:e9:b7:fb:8a:7a:2d:3e:39:8d:8d:ba:55:53:1c:
                    3a:bd:cc:cb:9d:f1:1a:54:aa:2d:0a:1c:6b:1f:b6:
                    18:8d:98:ff:7f:b0:12:67:8f
                Exponent: 65537 (0x10001)
        X509v3 extensions:
            X509v3 Basic Constraints: critical
                CA:FALSE
            X509v3 Key Usage: critical
                Key Agreement, Encipher Only
    Signature Algorithm: sha256WithRSAEncryption
         18:1a:7e:ee:2b:9c:12:39:47:08:7f:d8:ba:0f:c6:98:08:f7:
         4a:0b:03:f8:78:dc:1e:79:38:08:9c:ad:15:e5:21:b3:8f:bf:
         ca:45:1b:1a:ac:98:69:55:e6:22:67:d8:8b:7e:9f:84:9d:de:
         96:2b:87:c1:cf:f1:e9:e3:d9:24:09:38:d9:66:e4:fa:e9:89:
         86:d3:aa:35:d7:42:cb:66:e5:6f:10:e2:79:9d:84:76:0c:2e:
         92:32:f8:e3:79:da:34:59:4b:5e:b9:06:73:f7:bd:ee:ae:75:
         b3:aa:7f:80:e1:92:ba:55:95:31:af:43:a7:7f:30:51:28:df:
         6c:69:79:f3:cb:94:63:6f:c6:a5:dc:3f:3c:5a:70:f8:24:dd:
         b4:92:61:13:41:42:93:57:ea:ec:1d:c2:59:1e:eb:ef:03:50:
         bd:bd:78:36:59:f1:64:b3:b3:51:ee:f8:53:2a:0a:52:7a:eb:
         e2:8e:cb:d8:09:42:21:30:28:15:23:06:2b:3a:83:13:aa:3d:
         ff:7c:ab:70:b5:bc:4a:79:0e:a7:87:33:d5:29:82:c1:f5:94:
         94:fe:0b:71:00:89:b6:44:12:db:85:d5:4f:0b:49:45:a9:80:
         bc:45:32:f3:c9:19:c7:47:e7:63:8d:4d:c2:5e:a1:12:bc:79:
         4b:df:13:23
-----BEGIN CERTIFICATE-----
MIIDATCCAemgAwIBAgIBFjANBgkqhkiG9w0BAQsFADBxMQswCQYDVQQGEwJVUzET
MBEGA1UECAwKQ2FsaWZvcm5pYTEUMBIGA1UEBwwLU2FudGEgQ2xhcmExDTALBgNV
BAoMBHBrZzUxEDAOBgNVBAMMB2NoMV90YTMxFjAUBgkqhkiG9w0BCQEWB2NoMV90
YTMwHhcNMjExMTI0MDEyMjQyWhcNMjQwODIwMDEyMjQyWjB5MQswCQYDVQQGEwJV
UzETMBEGA1UECAwKQ2FsaWZvcm5pYTEUMBIGA1UEBwwLU2FudGEgQ2xhcmExDTAL
BgNVBAoMBHBrZzUxFDASBgNVBAMMC2NzNl9jaDFfdGEzMRowGAYJKoZIhvcNAQkB
FgtjczZfY2gxX3RhMzCBnzANBgkqhkiG9w0BAQEFAAOBjQAwgYkCgYEAwRjYLEEa
leY/9nQIeRNJKDXF3aVSeifWkr0MBAFVKfOr6gdTKAUcoCRbXvNaC/hpMtQ9Kpvz
Txc6Yaf56QlghnpPnGQW/UNAmhkcXvk+NSAolmytKef7jwxc6bf7inotPjmNjbpV
Uxw6vczLnfEaVKotChxrH7YYjZj/f7ASZ48CAwEAAaMgMB4wDAYDVR0TAQH/BAIw
ADAOBgNVHQ8BAf8EBAMCAAkwDQYJKoZIhvcNAQELBQADggEBABgafu4rnBI5Rwh/
2LoPxpgI90oLA/h43B55OAicrRXlIbOPv8pFGxqsmGlV5iJn2It+n4Sd3pYrh8HP
8enj2SQJONlm5PrpiYbTqjXXQstm5W8Q4nmdhHYMLpIy+ON52jRZS165BnP3ve6u
dbOqf4DhkrpVlTGvQ6d/MFEo32xpefPLlGNvxqXcPzxacPgk3bSSYRNBQpNX6uwd
wlke6+8DUL29eDZZ8WSzs1Hu+FMqClJ66+KOy9gJQiEwKBUjBis6gxOqPf98q3C1
vEp5DqeHM9UpgsH1lJT+C3EAibZEEtuF1U8LSUWpgLxFMvPJGcdH52ONTcJeoRK8
eUvfEyM=
-----END CERTIFICATE-----
