Certificate:
    Data:
        Version: 3 (0x2)
        Serial Number: 23 (0x17)
    Signature Algorithm: sha256WithRSAEncryption
        Issuer: C=US, ST=California, L=Santa Clara, O=pkg5, CN=ch1_ta3/emailAddress=ch1_ta3
        Validity
            Not Before: Jul  3 14:14:01 2018 GMT
            Not After : Mar 29 14:14:01 2021 GMT
        Subject: C=US, ST=California, L=Santa Clara, O=pkg5, CN=cs7_ch1_ta3/emailAddress=cs7_ch1_ta3
        Subject Public Key Info:
            Public Key Algorithm: rsaEncryption
                Public-Key: (1024 bit)
                Modulus:
                    00:9f:a1:64:95:ce:b8:51:ad:78:a3:e7:d5:cf:2b:
                    c7:02:b1:00:29:dc:ea:d6:fb:7b:7d:36:2c:93:0e:
                    f3:80:40:dd:98:5b:86:f5:f2:17:bf:9c:38:e4:18:
                    52:40:cc:16:04:5e:8d:aa:dc:7f:dd:26:77:62:83:
                    8e:fa:a8:50:86:4b:fa:25:95:8a:dc:a0:e4:38:b3:
                    7d:61:3e:e1:39:62:c4:dc:ea:67:f9:53:f3:c3:23:
                    05:bd:4b:fc:c3:ea:86:f2:4c:73:65:42:3b:20:fc:
                    6f:ca:31:12:cb:5d:43:f6:92:d4:5a:31:18:83:75:
                    3b:62:c9:a7:05:34:2d:32:b7
                Exponent: 65537 (0x10001)
        X509v3 extensions:
            X509v3 Basic Constraints: critical
                CA:FALSE
    Signature Algorithm: sha256WithRSAEncryption
         ae:7d:c9:7d:06:ac:a9:5c:ad:a0:63:af:c8:c5:45:4a:99:ab:
         09:7d:a0:07:ac:92:7a:28:d1:e1:73:d4:51:c8:d2:01:c1:87:
         81:e8:e9:d3:4e:d6:3a:fb:fd:bb:8a:18:38:d3:88:a1:78:44:
         2c:da:a3:c6:ab:37:b8:07:96:c5:81:a5:0c:6a:66:e5:5b:51:
         f0:7e:fe:31:6c:9d:1e:3c:e4:51:20:75:89:2b:c4:4a:16:c8:
         b8:6a:99:8a:5f:3d:ae:a9:a5:91:fd:c8:9f:44:d8:3c:2c:7f:
         56:e2:59:85:a0:3c:ab:a1:17:3f:1e:5f:5f:aa:a3:67:a1:16:
         3c:b0:60:ba:09:bf:67:94:31:a6:25:7e:68:6f:19:b2:17:bf:
         07:fc:56:70:ac:78:a1:ab:fa:82:cc:62:8d:79:03:88:79:66:
         e7:ae:c3:32:6b:ef:9b:fa:52:e3:b4:32:3f:c6:b4:6a:f9:5f:
         05:3a:2e:46:d8:47:f3:29:63:4b:b4:b0:56:3a:46:37:8c:76:
         fb:3b:2b:c2:47:f1:8e:b2:7d:ad:86:40:44:5f:14:76:dd:69:
         d4:e4:4d:1a:94:9f:95:4e:c4:f1:73:63:93:64:b7:55:c4:fa:
         4f:97:e4:6d:b4:27:c0:2e:c1:3d:ef:ed:77:81:df:51:e3:3b:
         5a:cc:ff:6c
-----BEGIN CERTIFICATE-----
MIIC8TCCAdmgAwIBAgIBFzANBgkqhkiG9w0BAQsFADBxMQswCQYDVQQGEwJVUzET
MBEGA1UECAwKQ2FsaWZvcm5pYTEUMBIGA1UEBwwLU2FudGEgQ2xhcmExDTALBgNV
BAoMBHBrZzUxEDAOBgNVBAMMB2NoMV90YTMxFjAUBgkqhkiG9w0BCQEWB2NoMV90
YTMwHhcNMTgwNzAzMTQxNDAxWhcNMjEwMzI5MTQxNDAxWjB5MQswCQYDVQQGEwJV
UzETMBEGA1UECAwKQ2FsaWZvcm5pYTEUMBIGA1UEBwwLU2FudGEgQ2xhcmExDTAL
BgNVBAoMBHBrZzUxFDASBgNVBAMMC2NzN19jaDFfdGEzMRowGAYJKoZIhvcNAQkB
FgtjczdfY2gxX3RhMzCBnzANBgkqhkiG9w0BAQEFAAOBjQAwgYkCgYEAn6Fklc64
Ua14o+fVzyvHArEAKdzq1vt7fTYskw7zgEDdmFuG9fIXv5w45BhSQMwWBF6Nqtx/
3SZ3YoOO+qhQhkv6JZWK3KDkOLN9YT7hOWLE3Opn+VPzwyMFvUv8w+qG8kxzZUI7
IPxvyjESy11D9pLUWjEYg3U7YsmnBTQtMrcCAwEAAaMQMA4wDAYDVR0TAQH/BAIw
ADANBgkqhkiG9w0BAQsFAAOCAQEArn3JfQasqVytoGOvyMVFSpmrCX2gB6ySeijR
4XPUUcjSAcGHgejp007WOvv9u4oYONOIoXhELNqjxqs3uAeWxYGlDGpm5VtR8H7+
MWydHjzkUSB1iSvEShbIuGqZil89rqmlkf3In0TYPCx/VuJZhaA8q6EXPx5fX6qj
Z6EWPLBgugm/Z5QxpiV+aG8Zshe/B/xWcKx4oav6gsxijXkDiHlm567DMmvvm/pS
47QyP8a0avlfBTouRthH8yljS7SwVjpGN4x2+zsrwkfxjrJ9rYZARF8Udt1p1ORN
GpSflU7E8XNjk2S3VcT6T5fkbbQnwC7BPe/td4HfUeM7Wsz/bA==
-----END CERTIFICATE-----
