Certificate:
    Data:
        Version: 3 (0x2)
        Serial Number: 23 (0x17)
    Signature Algorithm: sha256WithRSAEncryption
        Issuer: C=US, ST=California, L=Santa Clara, O=pkg5, CN=ch1_ta3/emailAddress=ch1_ta3
        Validity
            Not Before: Nov 11 12:38:31 2017 GMT
            Not After : Aug  7 12:38:31 2020 GMT
        Subject: C=US, ST=California, L=Santa Clara, O=pkg5, CN=cs7_ch1_ta3/emailAddress=cs7_ch1_ta3
        Subject Public Key Info:
            Public Key Algorithm: rsaEncryption
                Public-Key: (1024 bit)
                Modulus:
                    00:c0:17:03:8c:78:3d:28:0b:76:d3:df:33:c6:c8:
                    b1:a0:85:25:a8:38:f9:c3:fd:ec:5f:66:0a:78:2f:
                    ad:86:fe:ae:39:0d:06:ba:cc:12:c9:b2:be:fc:c3:
                    53:95:f8:45:c8:88:6a:f9:36:69:38:1a:21:b8:b7:
                    45:9e:e2:86:fa:cd:84:14:03:6d:e3:f6:4e:72:30:
                    e8:12:21:86:11:07:aa:28:dc:a2:4a:c3:6b:49:c3:
                    ed:8b:02:18:d6:21:9c:e2:75:9e:25:54:57:e0:7b:
                    26:fd:92:4a:cc:2b:ff:7b:91:32:c5:74:33:42:ff:
                    7a:2a:36:fa:f4:35:16:1a:fd
                Exponent: 65537 (0x10001)
        X509v3 extensions:
            X509v3 Basic Constraints: critical
                CA:FALSE
    Signature Algorithm: sha256WithRSAEncryption
         66:24:ff:e6:f8:17:66:76:f7:2b:7a:8c:56:10:63:62:18:32:
         cf:2a:ac:56:c2:cd:30:6f:50:c7:a8:11:ce:d9:2f:f2:b6:19:
         36:04:ed:9a:b9:17:26:6b:7d:fa:7e:07:e3:22:99:a6:d0:e9:
         1d:12:76:74:59:0a:ac:47:af:e8:cc:c9:a9:65:61:4a:4e:a3:
         9c:26:f1:92:b2:3a:8d:5e:d5:a8:18:6e:5e:ed:39:ac:f0:87:
         02:f9:a7:94:00:c4:58:5a:0e:d7:e5:14:16:be:29:f6:93:da:
         48:9b:dc:f1:28:dd:74:53:16:c6:e0:ac:a3:d6:15:21:0b:12:
         e1:74:c6:c0:6f:86:9d:a4:0a:2a:9b:f8:82:14:52:fc:e0:0f:
         9e:eb:a8:fe:b5:41:b2:26:8f:b0:c2:64:cb:a1:e0:4e:77:87:
         1a:64:aa:2c:80:9d:76:3e:ce:9b:e9:44:55:db:49:cc:bb:a9:
         62:e1:48:5a:23:78:a4:31:73:a3:06:ab:85:f9:21:7c:aa:bc:
         74:b5:2b:b4:32:93:f4:47:ed:ca:66:d2:3c:43:f5:de:27:36:
         04:99:26:85:1f:3a:fb:ed:99:99:4d:76:a9:85:ba:dd:79:7c:
         b1:bd:84:ef:cf:c1:65:60:f6:b7:d2:c7:2d:26:53:4a:69:d8:
         af:97:bb:ec
-----BEGIN CERTIFICATE-----
MIIC8TCCAdmgAwIBAgIBFzANBgkqhkiG9w0BAQsFADBxMQswCQYDVQQGEwJVUzET
MBEGA1UECAwKQ2FsaWZvcm5pYTEUMBIGA1UEBwwLU2FudGEgQ2xhcmExDTALBgNV
BAoMBHBrZzUxEDAOBgNVBAMMB2NoMV90YTMxFjAUBgkqhkiG9w0BCQEWB2NoMV90
YTMwHhcNMTcxMTExMTIzODMxWhcNMjAwODA3MTIzODMxWjB5MQswCQYDVQQGEwJV
UzETMBEGA1UECAwKQ2FsaWZvcm5pYTEUMBIGA1UEBwwLU2FudGEgQ2xhcmExDTAL
BgNVBAoMBHBrZzUxFDASBgNVBAMMC2NzN19jaDFfdGEzMRowGAYJKoZIhvcNAQkB
FgtjczdfY2gxX3RhMzCBnzANBgkqhkiG9w0BAQEFAAOBjQAwgYkCgYEAwBcDjHg9
KAt2098zxsixoIUlqDj5w/3sX2YKeC+thv6uOQ0GuswSybK+/MNTlfhFyIhq+TZp
OBohuLdFnuKG+s2EFANt4/ZOcjDoEiGGEQeqKNyiSsNrScPtiwIY1iGc4nWeJVRX
4Hsm/ZJKzCv/e5EyxXQzQv96Kjb69DUWGv0CAwEAAaMQMA4wDAYDVR0TAQH/BAIw
ADANBgkqhkiG9w0BAQsFAAOCAQEAZiT/5vgXZnb3K3qMVhBjYhgyzyqsVsLNMG9Q
x6gRztkv8rYZNgTtmrkXJmt9+n4H4yKZptDpHRJ2dFkKrEev6MzJqWVhSk6jnCbx
krI6jV7VqBhuXu05rPCHAvmnlADEWFoO1+UUFr4p9pPaSJvc8SjddFMWxuCso9YV
IQsS4XTGwG+GnaQKKpv4ghRS/OAPnuuo/rVBsiaPsMJky6HgTneHGmSqLICddj7O
m+lEVdtJzLupYuFIWiN4pDFzowarhfkhfKq8dLUrtDKT9EftymbSPEP13ic2BJkm
hR86++2ZmU12qYW63Xl8sb2E78/BZWD2t9LHLSZTSmnYr5e77A==
-----END CERTIFICATE-----
