Certificate:
    Data:
        Version: 3 (0x2)
        Serial Number: 24 (0x18)
    Signature Algorithm: sha256WithRSAEncryption
        Issuer: C=US, ST=California, L=Santa Clara, O=pkg5, CN=ch1_ta3/emailAddress=ch1_ta3
        Validity
            Not Before: Nov 24 01:22:42 2021 GMT
            Not After : Aug 20 01:22:42 2024 GMT
        Subject: C=US, ST=California, L=Santa Clara, O=pkg5, CN=cs8_ch1_ta3/emailAddress=cs8_ch1_ta3
        Subject Public Key Info:
            Public Key Algorithm: rsaEncryption
                Public-Key: (1024 bit)
                Modulus:
                    00:eb:30:18:8f:f1:c3:2f:5b:e7:87:e0:6e:ca:41:
                    13:18:77:89:2d:5c:48:71:a9:ab:45:95:40:c2:c5:
                    29:ae:86:54:1e:6c:1b:9d:a4:25:13:ba:a8:ee:c2:
                    8a:96:d8:81:77:3b:20:70:d0:d2:60:03:29:1d:3c:
                    48:48:63:cc:09:e6:f2:c1:78:9c:24:a0:bd:82:ed:
                    b9:38:82:b0:be:6a:94:69:43:bf:82:2d:1b:3b:0d:
                    43:58:6c:0a:62:3b:87:92:ca:4b:75:4d:38:f5:b5:
                    18:13:b8:e7:72:1b:05:2b:09:17:8a:27:09:9f:ee:
                    84:85:99:54:d2:83:02:01:fb
                Exponent: 65537 (0x10001)
        X509v3 extensions:
            X509v3 Basic Constraints: critical
                CA:TRUE
            X509v3 Key Usage: critical
                Digital Signature
    Signature Algorithm: sha256WithRSAEncryption
         ac:aa:c5:7b:e8:3f:d2:af:14:dc:a5:0b:fd:85:75:d4:ea:0f:
         11:0e:43:98:e1:51:ce:d2:4e:40:96:db:87:35:57:a2:75:8f:
         9e:b2:6a:ba:a2:13:ca:bc:d8:20:0c:32:d6:47:f2:ed:e0:1a:
         d6:f6:79:4b:91:5d:4a:de:cf:ee:25:44:e3:54:60:ab:20:b6:
         2a:58:8a:f4:77:8d:d7:67:4d:14:f0:51:f3:62:31:33:cc:6d:
         0a:6a:cb:7c:30:b3:d6:87:4c:a3:46:89:dd:94:e5:42:35:69:
         01:75:70:d3:8c:55:9c:cf:65:cc:c7:55:9d:36:4e:3c:2b:88:
         99:b5:53:24:d2:5a:d4:f6:b5:2b:9f:78:ca:ea:bb:13:7e:74:
         2a:b1:90:de:e2:37:20:df:8a:ea:70:2f:c4:ac:81:83:8d:b6:
         03:dd:da:98:ac:c6:a1:13:c6:99:ad:9f:4d:43:b5:1d:1a:6a:
         26:81:28:8f:44:0d:fb:6b:0a:a8:83:f4:ed:7b:3b:fc:95:f3:
         51:91:91:af:4a:34:82:65:6c:91:cf:b6:53:b9:9c:1d:9f:d9:
         5c:3a:ab:53:2d:2f:b9:83:44:9d:6f:36:7b:d5:c4:4f:4d:b4:
         e2:75:54:37:85:fe:df:12:1b:3d:68:d6:f3:4c:55:57:1c:5d:
         04:01:18:a7
-----BEGIN CERTIFICATE-----
MIIDBDCCAeygAwIBAgIBGDANBgkqhkiG9w0BAQsFADBxMQswCQYDVQQGEwJVUzET
MBEGA1UECAwKQ2FsaWZvcm5pYTEUMBIGA1UEBwwLU2FudGEgQ2xhcmExDTALBgNV
BAoMBHBrZzUxEDAOBgNVBAMMB2NoMV90YTMxFjAUBgkqhkiG9w0BCQEWB2NoMV90
YTMwHhcNMjExMTI0MDEyMjQyWhcNMjQwODIwMDEyMjQyWjB5MQswCQYDVQQGEwJV
UzETMBEGA1UECAwKQ2FsaWZvcm5pYTEUMBIGA1UEBwwLU2FudGEgQ2xhcmExDTAL
BgNVBAoMBHBrZzUxFDASBgNVBAMMC2NzOF9jaDFfdGEzMRowGAYJKoZIhvcNAQkB
FgtjczhfY2gxX3RhMzCBnzANBgkqhkiG9w0BAQEFAAOBjQAwgYkCgYEA6zAYj/HD
L1vnh+BuykETGHeJLVxIcamrRZVAwsUproZUHmwbnaQlE7qo7sKKltiBdzsgcNDS
YAMpHTxISGPMCebywXicJKC9gu25OIKwvmqUaUO/gi0bOw1DWGwKYjuHkspLdU04
9bUYE7jnchsFKwkXiicJn+6EhZlU0oMCAfsCAwEAAaMjMCEwDwYDVR0TAQH/BAUw
AwEB/zAOBgNVHQ8BAf8EBAMCB4AwDQYJKoZIhvcNAQELBQADggEBAKyqxXvoP9Kv
FNylC/2FddTqDxEOQ5jhUc7STkCW24c1V6J1j56yarqiE8q82CAMMtZH8u3gGtb2
eUuRXUrez+4lRONUYKsgtipYivR3jddnTRTwUfNiMTPMbQpqy3wws9aHTKNGid2U
5UI1aQF1cNOMVZzPZczHVZ02TjwriJm1UyTSWtT2tSufeMrquxN+dCqxkN7iNyDf
iupwL8SsgYONtgPd2pisxqETxpmtn01DtR0aaiaBKI9EDftrCqiD9O17O/yV81GR
ka9KNIJlbJHPtlO5nB2f2Vw6q1MtL7mDRJ1vNnvVxE9NtOJ1VDeF/t8SGz1o1vNM
VVccXQQBGKc=
-----END CERTIFICATE-----
