Certificate:
    Data:
        Version: 3 (0x2)
        Serial Number: 25 (0x19)
    Signature Algorithm: sha256WithRSAEncryption
        Issuer: C=US, ST=California, L=Santa Clara, O=pkg5, CN=cs8_ch1_ta3/emailAddress=cs8_ch1_ta3
        Validity
            Not Before: Nov 24 01:22:42 2021 GMT
            Not After : Aug 20 01:22:42 2024 GMT
        Subject: C=US, ST=California, L=Santa Clara, O=pkg5, CN=cs1_cs8_ch1_ta3/emailAddress=cs1_cs8_ch1_ta3
        Subject Public Key Info:
            Public Key Algorithm: rsaEncryption
                Public-Key: (1024 bit)
                Modulus:
                    00:ae:91:b9:7f:16:5b:ea:3d:df:12:fa:85:44:71:
                    10:93:e5:cc:24:21:57:de:5c:01:a2:88:5b:e4:72:
                    3b:33:c4:82:f0:ad:63:c6:f4:e9:77:95:8f:55:fc:
                    ac:50:6c:c8:b8:71:80:30:6c:ba:8b:7d:fc:2f:7e:
                    f0:13:7d:9d:57:4f:98:1b:c9:36:c4:41:19:f6:7e:
                    3d:c5:a4:6a:23:d7:a9:9b:fe:ad:7a:0a:97:31:98:
                    45:50:a0:da:50:36:e3:58:a5:db:bb:f3:96:2b:05:
                    9c:f9:7d:bb:93:3f:a1:bf:33:c5:fc:86:65:44:bb:
                    ca:84:28:c9:28:53:21:8a:95
                Exponent: 65537 (0x10001)
        X509v3 extensions:
            X509v3 Basic Constraints: critical
                CA:FALSE
            X509v3 Key Usage: critical
                Digital Signature
    Signature Algorithm: sha256WithRSAEncryption
         7d:f7:a4:55:f8:da:ce:11:1b:8c:85:36:4b:3f:f2:2d:c1:57:
         86:c2:b6:1c:b3:ea:b0:bb:d5:5f:4a:52:60:15:5a:aa:98:65:
         b3:67:e5:dd:43:9b:92:a5:79:6e:84:ec:f8:78:08:3d:69:f2:
         36:fa:9e:bb:35:bc:35:02:bf:d9:60:bd:97:6a:1c:c7:06:7f:
         a2:3c:2c:52:9a:91:50:fb:51:5d:57:de:b7:ea:1a:46:79:ae:
         d9:31:57:65:82:6b:6f:30:ab:3e:7d:fb:1c:cf:0a:84:60:d2:
         e0:07:ab:20:5a:18:4e:8b:d4:05:9b:1e:77:f5:b5:16:7c:e4:
         6d:6a
-----BEGIN CERTIFICATE-----
MIICkTCCAfqgAwIBAgIBGTANBgkqhkiG9w0BAQsFADB5MQswCQYDVQQGEwJVUzET
MBEGA1UECAwKQ2FsaWZvcm5pYTEUMBIGA1UEBwwLU2FudGEgQ2xhcmExDTALBgNV
BAoMBHBrZzUxFDASBgNVBAMMC2NzOF9jaDFfdGEzMRowGAYJKoZIhvcNAQkBFgtj
czhfY2gxX3RhMzAeFw0yMTExMjQwMTIyNDJaFw0yNDA4MjAwMTIyNDJaMIGBMQsw
CQYDVQQGEwJVUzETMBEGA1UECAwKQ2FsaWZvcm5pYTEUMBIGA1UEBwwLU2FudGEg
Q2xhcmExDTALBgNVBAoMBHBrZzUxGDAWBgNVBAMMD2NzMV9jczhfY2gxX3RhMzEe
MBwGCSqGSIb3DQEJARYPY3MxX2NzOF9jaDFfdGEzMIGfMA0GCSqGSIb3DQEBAQUA
A4GNADCBiQKBgQCukbl/FlvqPd8S+oVEcRCT5cwkIVfeXAGiiFvkcjszxILwrWPG
9Ol3lY9V/KxQbMi4cYAwbLqLffwvfvATfZ1XT5gbyTbEQRn2fj3FpGoj16mb/q16
CpcxmEVQoNpQNuNYpdu785YrBZz5fbuTP6G/M8X8hmVEu8qEKMkoUyGKlQIDAQAB
oyAwHjAMBgNVHRMBAf8EAjAAMA4GA1UdDwEB/wQEAwIHgDANBgkqhkiG9w0BAQsF
AAOBgQB996RV+NrOERuMhTZLP/ItwVeGwrYcs+qwu9VfSlJgFVqqmGWzZ+XdQ5uS
pXluhOz4eAg9afI2+p67Nbw1Ar/ZYL2XahzHBn+iPCxSmpFQ+1FdV9636hpGea7Z
MVdlgmtvMKs+ffsczwqEYNLgB6sgWhhOi9QFmx539bUWfORtag==
-----END CERTIFICATE-----
