Certificate:
    Data:
        Version: 3 (0x2)
        Serial Number: 25 (0x19)
    Signature Algorithm: sha256WithRSAEncryption
        Issuer: C=US, ST=California, L=Santa Clara, O=pkg5, CN=cs8_ch1_ta3/emailAddress=cs8_ch1_ta3
        Validity
            Not Before: Nov 11 12:38:31 2017 GMT
            Not After : Aug  7 12:38:31 2020 GMT
        Subject: C=US, ST=California, L=Santa Clara, O=pkg5, CN=cs1_cs8_ch1_ta3/emailAddress=cs1_cs8_ch1_ta3
        Subject Public Key Info:
            Public Key Algorithm: rsaEncryption
                Public-Key: (1024 bit)
                Modulus:
                    00:c6:a9:68:6f:30:ba:0e:fc:1d:f5:e4:b1:c2:5f:
                    7c:42:b1:f8:d3:0b:c6:42:bd:b5:b9:0c:0b:a3:5d:
                    ae:ff:5f:95:eb:96:bc:81:55:a9:27:80:82:08:dc:
                    18:60:5d:7b:85:fc:b7:d9:91:2d:4b:dc:4f:7b:4d:
                    29:5d:9a:f7:34:84:bf:79:bd:45:f0:23:7f:ab:96:
                    e0:9b:e4:de:0a:11:ed:65:61:06:cf:42:fe:57:43:
                    78:ee:63:d0:b4:05:5c:f0:4e:ce:29:bd:4e:ad:b7:
                    15:d8:bf:3b:19:c4:38:bb:d6:2d:4e:64:29:be:b4:
                    80:a4:95:b0:01:ab:0c:0d:e3
                Exponent: 65537 (0x10001)
        X509v3 extensions:
            X509v3 Basic Constraints: critical
                CA:FALSE
            X509v3 Key Usage: critical
                Digital Signature
    Signature Algorithm: sha256WithRSAEncryption
         ac:9e:4b:d2:24:97:35:cb:e7:be:af:f3:a5:2b:05:82:f7:eb:
         bb:97:00:da:1e:45:c6:02:a7:44:0a:ab:71:c2:01:3a:5b:b4:
         c6:7d:52:07:fb:db:da:c5:41:07:72:ab:bc:6d:fc:fd:5a:42:
         f3:8f:00:3d:82:f1:49:24:a4:e4:da:b1:dd:d3:61:b7:08:7a:
         2d:4e:27:94:31:09:8a:a7:72:80:52:fb:04:06:dd:b5:43:8b:
         ab:3e:ed:27:ab:25:c6:07:1b:75:fb:4b:a0:ba:4a:6e:5e:18:
         ca:16:6c:d1:e1:53:2d:97:d6:35:9a:58:1d:7e:51:5b:46:75:
         d1:f7
-----BEGIN CERTIFICATE-----
MIICkTCCAfqgAwIBAgIBGTANBgkqhkiG9w0BAQsFADB5MQswCQYDVQQGEwJVUzET
MBEGA1UECAwKQ2FsaWZvcm5pYTEUMBIGA1UEBwwLU2FudGEgQ2xhcmExDTALBgNV
BAoMBHBrZzUxFDASBgNVBAMMC2NzOF9jaDFfdGEzMRowGAYJKoZIhvcNAQkBFgtj
czhfY2gxX3RhMzAeFw0xNzExMTExMjM4MzFaFw0yMDA4MDcxMjM4MzFaMIGBMQsw
CQYDVQQGEwJVUzETMBEGA1UECAwKQ2FsaWZvcm5pYTEUMBIGA1UEBwwLU2FudGEg
Q2xhcmExDTALBgNVBAoMBHBrZzUxGDAWBgNVBAMMD2NzMV9jczhfY2gxX3RhMzEe
MBwGCSqGSIb3DQEJARYPY3MxX2NzOF9jaDFfdGEzMIGfMA0GCSqGSIb3DQEBAQUA
A4GNADCBiQKBgQDGqWhvMLoO/B315LHCX3xCsfjTC8ZCvbW5DAujXa7/X5XrlryB
VakngIII3BhgXXuF/LfZkS1L3E97TSldmvc0hL95vUXwI3+rluCb5N4KEe1lYQbP
Qv5XQ3juY9C0BVzwTs4pvU6ttxXYvzsZxDi71i1OZCm+tICklbABqwwN4wIDAQAB
oyAwHjAMBgNVHRMBAf8EAjAAMA4GA1UdDwEB/wQEAwIHgDANBgkqhkiG9w0BAQsF
AAOBgQCsnkvSJJc1y+e+r/OlKwWC9+u7lwDaHkXGAqdECqtxwgE6W7TGfVIH+9va
xUEHcqu8bfz9WkLzjwA9gvFJJKTk2rHd02G3CHotTieUMQmKp3KAUvsEBt21Q4ur
Pu0nqyXGBxt1+0ugukpuXhjKFmzR4VMtl9Y1mlgdflFbRnXR9w==
-----END CERTIFICATE-----
