Certificate:
    Data:
        Version: 3 (0x2)
        Serial Number: 26 (0x1a)
    Signature Algorithm: sha256WithRSAEncryption
        Issuer: C=US, ST=California, L=Santa Clara, O=pkg5, CN=ch1_ta3/emailAddress=ch1_ta3
        Validity
            Not Before: Jul  3 14:14:01 2018 GMT
            Not After : Mar 29 14:14:01 2021 GMT
        Subject: C=US, ST=California, L=Santa Clara, O=pkg5, CN=cs9_ch1_ta3/emailAddress=cs9_ch1_ta3
        Subject Public Key Info:
            Public Key Algorithm: rsaEncryption
                Public-Key: (1024 bit)
                Modulus:
                    00:b7:7b:1d:9f:b2:9d:4b:90:c0:39:49:c0:68:d7:
                    77:12:1e:98:3c:0e:61:ee:48:7f:18:28:37:42:b0:
                    e5:99:b8:82:e0:03:10:51:4b:9d:ec:fa:b3:4c:ec:
                    be:4e:c7:af:e1:86:2c:70:d1:2f:35:a9:20:2e:bd:
                    77:f3:e0:66:30:57:af:ae:5d:61:fe:50:98:04:69:
                    17:57:e1:cf:a2:f6:df:9d:d4:d9:3f:fc:38:ff:d4:
                    46:90:09:e4:83:3e:42:e0:bc:40:b7:5e:8f:d2:b1:
                    c7:94:36:56:e4:fc:a6:bc:ef:7e:54:09:4c:2c:d9:
                    24:b2:e0:61:a7:be:50:ce:c5
                Exponent: 65537 (0x10001)
        X509v3 extensions:
            X509v3 Basic Constraints: critical
                CA:FALSE
            X509v3 Key Usage: 
                Encipher Only
    Signature Algorithm: sha256WithRSAEncryption
         52:2b:c0:4a:a9:6f:c7:f5:4a:5f:0c:18:d5:47:9c:5f:39:04:
         0b:08:72:23:36:0f:50:bb:f9:1f:7e:77:bf:fb:82:8e:37:21:
         52:7f:75:96:40:68:30:96:2f:35:b2:3a:d1:b6:2e:7e:ff:18:
         88:16:00:f5:78:ba:ce:b0:db:5e:ee:26:dc:af:66:50:12:45:
         d7:e1:64:e1:cf:b9:01:be:1d:8c:1d:4f:ea:6c:af:3d:81:0a:
         84:ab:05:69:b4:7a:7c:29:c0:c1:59:db:86:cd:3d:d8:f5:c8:
         10:2c:6d:2e:c3:c0:14:1e:13:75:20:43:5a:4b:5a:8e:c4:1c:
         75:2c:33:14:63:b1:6c:16:06:9d:61:c5:88:3e:63:1d:e1:ab:
         cb:0f:54:ab:dc:be:a8:e8:47:d6:88:66:68:16:bb:32:0c:64:
         23:ae:57:36:f2:cc:c4:48:f3:aa:0f:33:4b:21:ca:61:aa:1d:
         c0:ae:e6:ef:fc:ca:27:5e:34:9c:22:2e:c8:dd:36:79:61:38:
         30:f9:e6:b4:53:bb:9c:17:c3:b3:9d:de:70:ed:3d:54:b2:3f:
         4d:0e:29:c5:8c:5f:9b:b1:f0:e0:2f:5a:15:b1:9d:84:72:dd:
         29:79:1f:4a:ea:44:c0:79:f7:f5:f9:98:5e:7c:d5:46:fa:6a:
         79:80:ab:93
-----BEGIN CERTIFICATE-----
MIIC/jCCAeagAwIBAgIBGjANBgkqhkiG9w0BAQsFADBxMQswCQYDVQQGEwJVUzET
MBEGA1UECAwKQ2FsaWZvcm5pYTEUMBIGA1UEBwwLU2FudGEgQ2xhcmExDTALBgNV
BAoMBHBrZzUxEDAOBgNVBAMMB2NoMV90YTMxFjAUBgkqhkiG9w0BCQEWB2NoMV90
YTMwHhcNMTgwNzAzMTQxNDAxWhcNMjEwMzI5MTQxNDAxWjB5MQswCQYDVQQGEwJV
UzETMBEGA1UECAwKQ2FsaWZvcm5pYTEUMBIGA1UEBwwLU2FudGEgQ2xhcmExDTAL
BgNVBAoMBHBrZzUxFDASBgNVBAMMC2NzOV9jaDFfdGEzMRowGAYJKoZIhvcNAQkB
FgtjczlfY2gxX3RhMzCBnzANBgkqhkiG9w0BAQEFAAOBjQAwgYkCgYEAt3sdn7Kd
S5DAOUnAaNd3Eh6YPA5h7kh/GCg3QrDlmbiC4AMQUUud7PqzTOy+Tsev4YYscNEv
NakgLr138+BmMFevrl1h/lCYBGkXV+HPovbfndTZP/w4/9RGkAnkgz5C4LxAt16P
0rHHlDZW5PymvO9+VAlMLNkksuBhp75QzsUCAwEAAaMdMBswDAYDVR0TAQH/BAIw
ADALBgNVHQ8EBAMCAAEwDQYJKoZIhvcNAQELBQADggEBAFIrwEqpb8f1Sl8MGNVH
nF85BAsIciM2D1C7+R9+d7/7go43IVJ/dZZAaDCWLzWyOtG2Ln7/GIgWAPV4us6w
217uJtyvZlASRdfhZOHPuQG+HYwdT+psrz2BCoSrBWm0enwpwMFZ24bNPdj1yBAs
bS7DwBQeE3UgQ1pLWo7EHHUsMxRjsWwWBp1hxYg+Yx3hq8sPVKvcvqjoR9aIZmgW
uzIMZCOuVzbyzMRI86oPM0shymGqHcCu5u/8yideNJwiLsjdNnlhODD55rRTu5wX
w7Od3nDtPVSyP00OKcWMX5ux8OAvWhWxnYRy3Sl5H0rqRMB59/X5mF581Ub6anmA
q5M=
-----END CERTIFICATE-----
