Certificate:
    Data:
        Version: 3 (0x2)
        Serial Number: 26 (0x1a)
    Signature Algorithm: sha256WithRSAEncryption
        Issuer: C=US, ST=California, L=Santa Clara, O=pkg5, CN=ch1_ta3/emailAddress=ch1_ta3
        Validity
            Not Before: Nov 24 01:22:42 2021 GMT
            Not After : Aug 20 01:22:42 2024 GMT
        Subject: C=US, ST=California, L=Santa Clara, O=pkg5, CN=cs9_ch1_ta3/emailAddress=cs9_ch1_ta3
        Subject Public Key Info:
            Public Key Algorithm: rsaEncryption
                Public-Key: (1024 bit)
                Modulus:
                    00:fa:42:b2:fa:0d:13:e7:47:9d:53:ba:9d:d9:fe:
                    ec:4f:cd:0f:a0:af:6a:f0:92:58:34:bf:20:39:b9:
                    f0:dd:71:7b:e8:df:a5:53:42:2c:91:44:78:c3:b2:
                    45:ef:ba:9b:73:47:e1:bd:54:6c:7f:a2:dc:92:91:
                    c5:aa:48:6e:d5:88:5f:d6:6b:0a:b5:80:b8:9a:e6:
                    a6:10:9a:d0:84:a8:36:0b:0b:93:2e:93:f9:2d:cc:
                    46:55:13:12:ef:c4:6f:57:66:cd:68:af:90:5c:5c:
                    bb:58:de:7f:a5:9d:70:34:24:b4:87:94:a8:24:58:
                    31:96:b2:c3:ff:fa:7c:5c:c1
                Exponent: 65537 (0x10001)
        X509v3 extensions:
            X509v3 Basic Constraints: critical
                CA:FALSE
            X509v3 Key Usage: 
                Encipher Only
    Signature Algorithm: sha256WithRSAEncryption
         16:68:c0:bf:e3:63:7d:c7:f4:0a:99:89:e6:a9:c8:c4:ff:bc:
         6c:db:26:75:2e:51:4c:64:a7:95:54:46:31:78:d9:be:fb:46:
         4e:ac:6a:c7:fe:62:44:da:8a:f4:c0:18:d7:aa:f5:f9:73:95:
         27:ce:14:7c:70:80:50:a5:64:2b:ff:23:01:07:cf:6c:ce:e3:
         f8:6d:5d:97:a2:d6:98:7d:6f:61:af:3f:98:00:99:90:a7:d0:
         2d:c8:bf:79:9b:db:28:ad:33:69:b2:a4:09:a6:28:80:45:43:
         58:3c:25:14:f4:e1:ff:0d:b2:e7:2a:1c:77:fe:1b:b4:41:3c:
         46:9d:1f:f7:5a:51:f5:b2:c4:f2:6a:f4:77:fc:f8:e7:1c:46:
         e5:0d:86:e2:34:ce:a9:49:0f:c4:64:a4:60:61:98:a3:f7:8c:
         e1:5b:9a:71:fa:56:a6:dc:65:5a:a9:43:9c:cb:e9:cc:66:08:
         f3:36:b6:76:3c:a2:18:7a:26:7e:38:76:a5:2e:86:7c:0b:98:
         d2:fe:f6:0b:93:38:53:26:b4:96:cb:f2:79:5d:d2:c1:d2:82:
         bf:0d:ee:f5:8c:28:ef:ac:7a:76:05:ec:8e:93:af:35:46:c2:
         73:87:67:07:f7:6e:4f:86:77:5a:e0:b0:97:d5:db:fb:ef:9a:
         b9:76:e7:c6
-----BEGIN CERTIFICATE-----
MIIC/jCCAeagAwIBAgIBGjANBgkqhkiG9w0BAQsFADBxMQswCQYDVQQGEwJVUzET
MBEGA1UECAwKQ2FsaWZvcm5pYTEUMBIGA1UEBwwLU2FudGEgQ2xhcmExDTALBgNV
BAoMBHBrZzUxEDAOBgNVBAMMB2NoMV90YTMxFjAUBgkqhkiG9w0BCQEWB2NoMV90
YTMwHhcNMjExMTI0MDEyMjQyWhcNMjQwODIwMDEyMjQyWjB5MQswCQYDVQQGEwJV
UzETMBEGA1UECAwKQ2FsaWZvcm5pYTEUMBIGA1UEBwwLU2FudGEgQ2xhcmExDTAL
BgNVBAoMBHBrZzUxFDASBgNVBAMMC2NzOV9jaDFfdGEzMRowGAYJKoZIhvcNAQkB
FgtjczlfY2gxX3RhMzCBnzANBgkqhkiG9w0BAQEFAAOBjQAwgYkCgYEA+kKy+g0T
50edU7qd2f7sT80PoK9q8JJYNL8gObnw3XF76N+lU0IskUR4w7JF77qbc0fhvVRs
f6LckpHFqkhu1Yhf1msKtYC4muamEJrQhKg2CwuTLpP5LcxGVRMS78RvV2bNaK+Q
XFy7WN5/pZ1wNCS0h5SoJFgxlrLD//p8XMECAwEAAaMdMBswDAYDVR0TAQH/BAIw
ADALBgNVHQ8EBAMCAAEwDQYJKoZIhvcNAQELBQADggEBABZowL/jY33H9AqZieap
yMT/vGzbJnUuUUxkp5VURjF42b77Rk6sasf+YkTaivTAGNeq9flzlSfOFHxwgFCl
ZCv/IwEHz2zO4/htXZei1ph9b2GvP5gAmZCn0C3Iv3mb2yitM2mypAmmKIBFQ1g8
JRT04f8NsucqHHf+G7RBPEadH/daUfWyxPJq9Hf8+OccRuUNhuI0zqlJD8RkpGBh
mKP3jOFbmnH6VqbcZVqpQ5zL6cxmCPM2tnY8ohh6Jn44dqUuhnwLmNL+9guTOFMm
tJbL8nld0sHSgr8N7vWMKO+senYF7I6TrzVGwnOHZwf3bk+Gd1rgsJfV2/vvmrl2
58Y=
-----END CERTIFICATE-----
