Certificate:
    Data:
        Version: 3 (0x2)
        Serial Number: 28 (0x1c)
    Signature Algorithm: sha256WithRSAEncryption
        Issuer: C=US, ST=California, L=Santa Clara, O=pkg5, CN=ch1.1_ta3/emailAddress=ch1.1_ta3
        Validity
            Not Before: Jul  3 14:14:01 2018 GMT
            Not After : Mar 29 14:14:01 2021 GMT
        Subject: C=US, ST=California, L=Santa Clara, O=pkg5, CN=cs1_ch1.1_ta3/emailAddress=cs1_ch1.1_ta3
        Subject Public Key Info:
            Public Key Algorithm: rsaEncryption
                Public-Key: (1024 bit)
                Modulus:
                    00:b9:eb:3f:13:60:46:58:8b:63:fe:d6:42:a1:f7:
                    ee:49:42:35:3f:99:77:34:45:03:cb:d2:77:25:fa:
                    d1:ef:b2:69:7f:70:db:5a:83:20:fa:6c:f9:f0:ce:
                    e7:83:62:88:bb:12:88:08:e6:25:47:b6:a4:e9:d2:
                    43:00:f0:4e:df:55:c4:0f:da:05:c3:52:77:a6:12:
                    da:0c:b5:f3:f2:64:3e:27:f1:28:5a:6f:03:8c:f0:
                    ad:38:dc:83:53:7c:7b:e8:b3:cd:5a:d4:50:3d:d6:
                    35:3c:52:53:fa:42:92:4a:84:5f:1f:13:be:9d:0e:
                    b5:62:9e:e3:8a:68:62:41:67
                Exponent: 65537 (0x10001)
        X509v3 extensions:
            X509v3 Basic Constraints: critical
                CA:FALSE
            X509v3 Key Usage: critical
                Digital Signature
    Signature Algorithm: sha256WithRSAEncryption
         7c:b2:d3:10:2b:27:fc:c1:f5:fc:fd:56:c0:fa:55:b2:f1:ce:
         35:3e:46:cb:d3:23:15:49:94:12:6d:2a:25:15:18:3c:ce:00:
         82:d7:c4:13:63:6c:97:4e:1c:29:df:47:bb:27:d6:c1:2e:c9:
         cf:41:80:e5:39:c7:7a:14:21:5c:ed:ac:f3:9c:37:7a:9e:dd:
         a5:21:d1:ff:7b:12:ea:a8:04:1a:af:be:8b:ed:dd:8c:7c:66:
         d6:01:46:ea:ea:ee:88:a9:ed:26:26:e3:16:46:d8:71:ea:6c:
         d6:f2:c4:a5:ce:19:f5:98:46:d6:51:e3:ed:46:87:80:39:6b:
         2a:e6:88:d9:b3:af:4d:11:93:c1:b5:64:57:c3:b6:6f:5c:1e:
         27:31:68:9c:9a:23:c2:63:f4:35:5b:3c:65:69:02:5b:53:63:
         f7:09:86:53:94:f3:d5:ed:0e:4b:8e:f9:18:0b:2c:3d:c2:52:
         6c:14:02:2c:57:8b:1e:91:4a:4f:2a:c7:82:e5:42:ba:4f:db:
         31:bd:04:60:e8:db:c8:ec:90:25:c2:9b:73:23:bc:4d:4d:fb:
         3e:c2:7d:d0:d7:d2:f2:77:11:2e:4e:bf:50:70:8b:e8:7e:c7:
         b3:f7:e1:5a:01:9c:ce:4a:2f:ab:ed:16:91:38:9e:1b:f4:32:
         4a:12:f9:9c
-----BEGIN CERTIFICATE-----
MIIDCTCCAfGgAwIBAgIBHDANBgkqhkiG9w0BAQsFADB1MQswCQYDVQQGEwJVUzET
MBEGA1UECAwKQ2FsaWZvcm5pYTEUMBIGA1UEBwwLU2FudGEgQ2xhcmExDTALBgNV
BAoMBHBrZzUxEjAQBgNVBAMMCWNoMS4xX3RhMzEYMBYGCSqGSIb3DQEJARYJY2gx
LjFfdGEzMB4XDTE4MDcwMzE0MTQwMVoXDTIxMDMyOTE0MTQwMVowfTELMAkGA1UE
BhMCVVMxEzARBgNVBAgMCkNhbGlmb3JuaWExFDASBgNVBAcMC1NhbnRhIENsYXJh
MQ0wCwYDVQQKDARwa2c1MRYwFAYDVQQDDA1jczFfY2gxLjFfdGEzMRwwGgYJKoZI
hvcNAQkBFg1jczFfY2gxLjFfdGEzMIGfMA0GCSqGSIb3DQEBAQUAA4GNADCBiQKB
gQC56z8TYEZYi2P+1kKh9+5JQjU/mXc0RQPL0ncl+tHvsml/cNtagyD6bPnwzueD
Yoi7EogI5iVHtqTp0kMA8E7fVcQP2gXDUnemEtoMtfPyZD4n8ShabwOM8K043INT
fHvos81a1FA91jU8UlP6QpJKhF8fE76dDrVinuOKaGJBZwIDAQABoyAwHjAMBgNV
HRMBAf8EAjAAMA4GA1UdDwEB/wQEAwIHgDANBgkqhkiG9w0BAQsFAAOCAQEAfLLT
ECsn/MH1/P1WwPpVsvHONT5Gy9MjFUmUEm0qJRUYPM4AgtfEE2Nsl04cKd9HuyfW
wS7Jz0GA5TnHehQhXO2s85w3ep7dpSHR/3sS6qgEGq++i+3djHxm1gFG6uruiKnt
JibjFkbYceps1vLEpc4Z9ZhG1lHj7UaHgDlrKuaI2bOvTRGTwbVkV8O2b1weJzFo
nJojwmP0NVs8ZWkCW1Nj9wmGU5Tz1e0OS475GAssPcJSbBQCLFeLHpFKTyrHguVC
uk/bMb0EYOjbyOyQJcKbcyO8TU37PsJ90NfS8ncRLk6/UHCL6H7Hs/fhWgGczkov
q+0WkTieG/QyShL5nA==
-----END CERTIFICATE-----
