Certificate:
    Data:
        Version: 3 (0x2)
        Serial Number: 30 (0x1e)
    Signature Algorithm: sha256WithRSAEncryption
        Issuer: C=US, ST=California, L=Santa Clara, O=pkg5, CN=ch1.2_ta3/emailAddress=ch1.2_ta3
        Validity
            Not Before: Jul  3 14:14:01 2018 GMT
            Not After : Mar 29 14:14:01 2021 GMT
        Subject: C=US, ST=California, L=Santa Clara, O=pkg5, CN=cs1_ch1.2_ta3/emailAddress=cs1_ch1.2_ta3
        Subject Public Key Info:
            Public Key Algorithm: rsaEncryption
                Public-Key: (1024 bit)
                Modulus:
                    00:dc:88:1a:2c:e3:de:18:5e:6f:77:6c:a6:10:e2:
                    04:23:b3:52:2e:9d:0d:29:99:ba:8e:a1:5c:08:a8:
                    7f:9a:e9:68:81:5f:d8:84:7f:14:a1:9a:4e:86:12:
                    69:18:69:17:ff:5c:be:40:9a:73:c0:d3:83:ec:39:
                    42:f7:e2:de:a6:c9:dd:8a:31:d7:df:29:56:30:61:
                    de:58:8f:96:3f:ca:af:cb:8a:3b:45:7b:27:38:69:
                    c3:f8:70:32:30:40:b4:5d:2f:ba:fd:9b:b0:a4:87:
                    a2:d2:4d:f2:42:4b:dc:9d:ae:ea:2a:cc:15:49:a1:
                    07:a2:07:10:6a:64:4f:84:7d
                Exponent: 65537 (0x10001)
        X509v3 extensions:
            X509v3 Basic Constraints: critical
                CA:FALSE
            X509v3 Key Usage: critical
                Digital Signature
    Signature Algorithm: sha256WithRSAEncryption
         a2:c8:6d:8c:ae:75:a1:70:c7:39:50:8b:77:48:12:d5:af:f4:
         c7:7e:c2:f3:01:70:98:90:e6:7a:6a:d3:f1:41:7f:5c:2f:5a:
         11:ba:35:3e:63:37:54:99:97:4b:84:be:9e:65:1f:27:aa:c3:
         ee:13:76:3a:e3:e4:c6:50:a0:8a:6c:5c:4f:ea:ab:1f:e6:16:
         a9:e3:e0:77:2a:f8:8c:a5:7c:3e:72:41:bf:1a:4e:b4:36:9b:
         9c:17:9c:be:15:ef:52:fe:8b:20:bb:d9:2f:5f:10:48:25:86:
         17:2c:7f:a6:c9:d9:cd:17:f3:bf:6c:70:75:ac:9f:52:7b:f3:
         8a:1e:55:3c:bf:8c:ab:28:62:df:f0:a0:d0:c1:52:bc:21:77:
         53:29:30:fd:be:10:8a:e4:7a:1d:e3:50:8a:71:4c:a8:71:a7:
         8a:e7:51:9c:a7:ae:e5:9b:f9:23:18:2f:80:9f:ba:a7:49:c3:
         a4:db:25:cc:65:b2:f1:0e:f1:40:b4:26:3c:9e:a5:e3:9e:5b:
         37:5e:b3:9b:ef:3b:ee:61:7d:49:3d:70:a4:b2:0c:43:31:cd:
         66:48:4f:8d:eb:f2:3e:93:a8:1a:cd:bf:72:62:43:da:c1:08:
         c9:5c:10:be:80:cc:c1:0c:69:89:56:ed:f7:7c:74:6d:5b:28:
         8c:4b:92:1a
-----BEGIN CERTIFICATE-----
MIIDCTCCAfGgAwIBAgIBHjANBgkqhkiG9w0BAQsFADB1MQswCQYDVQQGEwJVUzET
MBEGA1UECAwKQ2FsaWZvcm5pYTEUMBIGA1UEBwwLU2FudGEgQ2xhcmExDTALBgNV
BAoMBHBrZzUxEjAQBgNVBAMMCWNoMS4yX3RhMzEYMBYGCSqGSIb3DQEJARYJY2gx
LjJfdGEzMB4XDTE4MDcwMzE0MTQwMVoXDTIxMDMyOTE0MTQwMVowfTELMAkGA1UE
BhMCVVMxEzARBgNVBAgMCkNhbGlmb3JuaWExFDASBgNVBAcMC1NhbnRhIENsYXJh
MQ0wCwYDVQQKDARwa2c1MRYwFAYDVQQDDA1jczFfY2gxLjJfdGEzMRwwGgYJKoZI
hvcNAQkBFg1jczFfY2gxLjJfdGEzMIGfMA0GCSqGSIb3DQEBAQUAA4GNADCBiQKB
gQDciBos494YXm93bKYQ4gQjs1IunQ0pmbqOoVwIqH+a6WiBX9iEfxShmk6GEmkY
aRf/XL5AmnPA04PsOUL34t6myd2KMdffKVYwYd5Yj5Y/yq/LijtFeyc4acP4cDIw
QLRdL7r9m7Ckh6LSTfJCS9ydruoqzBVJoQeiBxBqZE+EfQIDAQABoyAwHjAMBgNV
HRMBAf8EAjAAMA4GA1UdDwEB/wQEAwIHgDANBgkqhkiG9w0BAQsFAAOCAQEAosht
jK51oXDHOVCLd0gS1a/0x37C8wFwmJDmemrT8UF/XC9aEbo1PmM3VJmXS4S+nmUf
J6rD7hN2OuPkxlCgimxcT+qrH+YWqePgdyr4jKV8PnJBvxpOtDabnBecvhXvUv6L
ILvZL18QSCWGFyx/psnZzRfzv2xwdayfUnvzih5VPL+Mqyhi3/Cg0MFSvCF3Uykw
/b4QiuR6HeNQinFMqHGniudRnKeu5Zv5IxgvgJ+6p0nDpNslzGWy8Q7xQLQmPJ6l
455bN16zm+877mF9ST1wpLIMQzHNZkhPjevyPpOoGs2/cmJD2sEIyVwQvoDMwQxp
iVbt93x0bVsojEuSGg==
-----END CERTIFICATE-----
