Certificate:
    Data:
        Version: 3 (0x2)
        Serial Number: 30 (0x1e)
    Signature Algorithm: sha256WithRSAEncryption
        Issuer: C=US, ST=California, L=Santa Clara, O=pkg5, CN=ch1.2_ta3/emailAddress=ch1.2_ta3
        Validity
            Not Before: Nov 24 01:22:42 2021 GMT
            Not After : Aug 20 01:22:42 2024 GMT
        Subject: C=US, ST=California, L=Santa Clara, O=pkg5, CN=cs1_ch1.2_ta3/emailAddress=cs1_ch1.2_ta3
        Subject Public Key Info:
            Public Key Algorithm: rsaEncryption
                Public-Key: (1024 bit)
                Modulus:
                    00:e5:f9:b9:22:f4:76:bd:16:a1:7f:c3:f2:47:23:
                    87:72:12:cd:39:e6:ee:00:b0:8f:10:8c:d3:eb:59:
                    16:7e:f7:e8:5b:17:d3:93:3f:61:9d:ce:f4:f9:f6:
                    5d:a5:91:32:50:9d:8e:68:8e:78:b9:98:4e:bd:cf:
                    79:e2:25:28:28:cd:d6:f2:47:b7:d7:f3:87:8b:e5:
                    97:68:2d:48:60:37:47:69:67:ea:d1:04:15:7c:db:
                    08:05:d9:e4:c8:03:81:ab:ea:75:9a:ff:8b:15:88:
                    33:da:3a:b4:b2:65:63:ac:53:4a:85:9f:a3:53:f4:
                    4d:70:51:de:f8:cd:60:27:bd
                Exponent: 65537 (0x10001)
        X509v3 extensions:
            X509v3 Basic Constraints: critical
                CA:FALSE
            X509v3 Key Usage: critical
                Digital Signature
    Signature Algorithm: sha256WithRSAEncryption
         76:73:ba:f6:06:c5:84:33:7a:f4:7d:3a:bb:fc:e6:9d:ec:2a:
         14:b2:07:db:9a:39:9c:ec:a5:64:9a:5e:64:d2:71:e4:21:bb:
         0d:7d:91:94:39:43:f5:aa:8f:85:87:2f:13:a3:6c:10:f1:43:
         3b:d1:94:0a:7d:e4:f0:c9:73:12:4f:2a:7a:f6:d5:b3:3b:d3:
         aa:44:9b:fe:f7:d5:40:c8:d9:c1:72:7f:ee:e3:e7:1f:8c:8f:
         0e:4a:ac:ca:1c:83:45:ce:6a:89:11:1e:a5:6a:cc:ca:67:ec:
         54:d8:af:9c:51:08:bd:d0:01:d1:85:5c:20:2c:b9:4b:56:5f:
         ce:7e:10:82:94:45:97:4b:72:3a:eb:81:d0:20:0d:75:ba:21:
         89:fa:16:06:d5:40:b9:fb:79:fe:e3:02:5b:39:e0:e7:60:1d:
         33:33:f3:97:3b:a4:10:bc:e1:e0:e3:87:8c:53:cc:2e:13:a0:
         0e:8e:04:5f:84:69:be:47:cb:07:33:c2:7a:53:45:ed:a6:ee:
         06:59:89:38:a4:d1:97:6d:73:2d:13:e8:46:71:63:71:b5:51:
         2b:8b:91:60:9f:77:70:d7:e0:ea:e5:11:b2:06:6a:cc:bb:a2:
         1d:7e:90:95:44:e6:d2:fb:15:e9:01:ca:1b:05:07:87:7e:54:
         75:c6:a2:d2
-----BEGIN CERTIFICATE-----
MIIDCTCCAfGgAwIBAgIBHjANBgkqhkiG9w0BAQsFADB1MQswCQYDVQQGEwJVUzET
MBEGA1UECAwKQ2FsaWZvcm5pYTEUMBIGA1UEBwwLU2FudGEgQ2xhcmExDTALBgNV
BAoMBHBrZzUxEjAQBgNVBAMMCWNoMS4yX3RhMzEYMBYGCSqGSIb3DQEJARYJY2gx
LjJfdGEzMB4XDTIxMTEyNDAxMjI0MloXDTI0MDgyMDAxMjI0MlowfTELMAkGA1UE
BhMCVVMxEzARBgNVBAgMCkNhbGlmb3JuaWExFDASBgNVBAcMC1NhbnRhIENsYXJh
MQ0wCwYDVQQKDARwa2c1MRYwFAYDVQQDDA1jczFfY2gxLjJfdGEzMRwwGgYJKoZI
hvcNAQkBFg1jczFfY2gxLjJfdGEzMIGfMA0GCSqGSIb3DQEBAQUAA4GNADCBiQKB
gQDl+bki9Ha9FqF/w/JHI4dyEs055u4AsI8QjNPrWRZ+9+hbF9OTP2GdzvT59l2l
kTJQnY5ojni5mE69z3niJSgozdbyR7fX84eL5ZdoLUhgN0dpZ+rRBBV82wgF2eTI
A4Gr6nWa/4sViDPaOrSyZWOsU0qFn6NT9E1wUd74zWAnvQIDAQABoyAwHjAMBgNV
HRMBAf8EAjAAMA4GA1UdDwEB/wQEAwIHgDANBgkqhkiG9w0BAQsFAAOCAQEAdnO6
9gbFhDN69H06u/zmnewqFLIH25o5nOylZJpeZNJx5CG7DX2RlDlD9aqPhYcvE6Ns
EPFDO9GUCn3k8MlzEk8qevbVszvTqkSb/vfVQMjZwXJ/7uPnH4yPDkqsyhyDRc5q
iREepWrMymfsVNivnFEIvdAB0YVcICy5S1Zfzn4QgpRFl0tyOuuB0CANdbohifoW
BtVAuft5/uMCWzng52AdMzPzlzukELzh4OOHjFPMLhOgDo4EX4RpvkfLBzPCelNF
7abuBlmJOKTRl21zLRPoRnFjcbVRK4uRYJ93cNfg6uURsgZqzLuiHX6QlUTm0vsV
6QHKGwUHh35Udcai0g==
-----END CERTIFICATE-----
