Certificate:
    Data:
        Version: 3 (0x2)
        Serial Number: 31 (0x1f)
    Signature Algorithm: sha256WithRSAEncryption
        Issuer: C=US, ST=California, L=Santa Clara, O=pkg5, CN=ch1.3_ta3/emailAddress=ch1.3_ta3
        Validity
            Not Before: Nov 11 12:38:32 2017 GMT
            Not After : Aug  7 12:38:32 2020 GMT
        Subject: C=US, ST=California, L=Santa Clara, O=pkg5, CN=cs1_ch1.3_ta3/emailAddress=cs1_ch1.3_ta3
        Subject Public Key Info:
            Public Key Algorithm: rsaEncryption
                Public-Key: (1024 bit)
                Modulus:
                    00:de:0c:ad:9f:c7:0c:07:8f:32:a9:ac:ab:7a:f1:
                    dd:6a:96:57:06:ae:ee:75:52:5b:8b:40:84:5b:e5:
                    e5:e6:69:a7:81:1d:bb:fa:9f:78:a4:e1:6e:da:15:
                    cd:7f:65:ba:cd:5d:05:6c:27:00:08:c6:9e:fc:c9:
                    57:85:7d:2a:19:5a:ff:3c:1d:67:2b:ef:06:40:3c:
                    8e:89:69:73:2c:aa:50:70:19:92:45:80:f2:74:72:
                    60:91:88:44:93:fd:6e:66:14:f5:83:84:a0:2d:c8:
                    70:a7:52:fe:24:c8:26:42:37:f5:90:54:ae:6e:27:
                    21:88:83:84:7c:10:28:e8:99
                Exponent: 65537 (0x10001)
        X509v3 extensions:
            X509v3 Basic Constraints: critical
                CA:FALSE
            X509v3 Key Usage: critical
                Digital Signature
    Signature Algorithm: sha256WithRSAEncryption
         59:d3:35:5a:0d:8f:5e:b8:92:f3:7e:3e:54:fa:c3:72:e4:9d:
         85:e9:4f:fe:4d:aa:dc:4f:27:c4:24:a0:77:ae:5e:4d:3b:03:
         7e:0b:03:7d:c5:df:c5:91:6f:4b:e6:7e:d3:e9:a5:87:ed:ea:
         20:8f:11:66:dd:b2:f8:bf:96:c3:fb:30:50:6f:44:ab:3a:ae:
         36:aa:ec:c1:d2:29:ab:e4:be:ff:6a:48:a5:56:ae:d6:78:20:
         32:4f:a0:f8:ea:1c:0d:3f:2f:86:ee:c0:5b:d2:ef:d5:7a:9c:
         8a:03:1c:3f:b1:ce:a4:fa:33:9e:e9:a9:20:41:0f:12:2d:e7:
         a9:5d:9b:f6:72:c3:f1:ac:94:ed:e3:0b:23:64:ea:be:c4:1b:
         30:04:9d:89:e9:a2:34:78:4f:f7:a2:58:91:80:f4:4e:18:b6:
         8b:ec:04:1c:5b:03:e0:88:d4:07:db:53:d8:80:55:ce:43:8e:
         3d:3d:17:17:b0:7e:da:01:07:ae:62:2a:b9:c1:da:61:30:0d:
         31:d8:94:50:8f:22:61:1a:f9:ae:95:74:b8:06:e6:ec:50:01:
         37:fc:d6:d4:b6:9a:7c:3b:32:1a:4d:7a:ab:f2:ed:fb:64:17:
         4a:a1:ea:b9:db:8f:ea:eb:d7:8d:98:5c:1f:11:90:e2:13:ae:
         78:c4:05:86
-----BEGIN CERTIFICATE-----
MIIDCTCCAfGgAwIBAgIBHzANBgkqhkiG9w0BAQsFADB1MQswCQYDVQQGEwJVUzET
MBEGA1UECAwKQ2FsaWZvcm5pYTEUMBIGA1UEBwwLU2FudGEgQ2xhcmExDTALBgNV
BAoMBHBrZzUxEjAQBgNVBAMMCWNoMS4zX3RhMzEYMBYGCSqGSIb3DQEJARYJY2gx
LjNfdGEzMB4XDTE3MTExMTEyMzgzMloXDTIwMDgwNzEyMzgzMlowfTELMAkGA1UE
BhMCVVMxEzARBgNVBAgMCkNhbGlmb3JuaWExFDASBgNVBAcMC1NhbnRhIENsYXJh
MQ0wCwYDVQQKDARwa2c1MRYwFAYDVQQDDA1jczFfY2gxLjNfdGEzMRwwGgYJKoZI
hvcNAQkBFg1jczFfY2gxLjNfdGEzMIGfMA0GCSqGSIb3DQEBAQUAA4GNADCBiQKB
gQDeDK2fxwwHjzKprKt68d1qllcGru51UluLQIRb5eXmaaeBHbv6n3ik4W7aFc1/
ZbrNXQVsJwAIxp78yVeFfSoZWv88HWcr7wZAPI6JaXMsqlBwGZJFgPJ0cmCRiEST
/W5mFPWDhKAtyHCnUv4kyCZCN/WQVK5uJyGIg4R8ECjomQIDAQABoyAwHjAMBgNV
HRMBAf8EAjAAMA4GA1UdDwEB/wQEAwIHgDANBgkqhkiG9w0BAQsFAAOCAQEAWdM1
Wg2PXriS834+VPrDcuSdhelP/k2q3E8nxCSgd65eTTsDfgsDfcXfxZFvS+Z+0+ml
h+3qII8RZt2y+L+Ww/swUG9EqzquNqrswdIpq+S+/2pIpVau1nggMk+g+OocDT8v
hu7AW9Lv1XqcigMcP7HOpPoznumpIEEPEi3nqV2b9nLD8ayU7eMLI2TqvsQbMASd
iemiNHhP96JYkYD0Thi2i+wEHFsD4IjUB9tT2IBVzkOOPT0XF7B+2gEHrmIqucHa
YTANMdiUUI8iYRr5rpV0uAbm7FABN/zW1LaafDsyGk16q/Lt+2QXSqHquduP6uvX
jZhcHxGQ4hOueMQFhg==
-----END CERTIFICATE-----
