Certificate:
    Data:
        Version: 3 (0x2)
        Serial Number: 32 (0x20)
    Signature Algorithm: sha256WithRSAEncryption
        Issuer: C=US, ST=California, L=Santa Clara, O=pkg5, CN=ch1.3_ta3/emailAddress=ch1.3_ta3
        Validity
            Not Before: Jul  3 14:14:02 2018 GMT
            Not After : Mar 29 14:14:02 2021 GMT
        Subject: C=US, ST=California, L=Santa Clara, O=pkg5, CN=cs1_ch1.3_ta3/emailAddress=cs1_ch1.3_ta3
        Subject Public Key Info:
            Public Key Algorithm: rsaEncryption
                Public-Key: (1024 bit)
                Modulus:
                    00:be:ea:75:f0:44:6b:48:b1:0c:2d:7e:18:3c:f6:
                    06:86:2f:69:e1:f4:9d:62:5c:e9:37:0c:34:ff:86:
                    1d:33:0a:99:21:b8:4a:58:fa:d1:a0:f0:fa:90:ef:
                    8f:d2:93:4e:6a:ad:b0:53:f3:41:88:38:3d:4c:96:
                    be:08:ff:84:1c:9e:82:b4:ae:12:80:e2:94:bb:83:
                    01:bd:34:38:b2:3d:14:77:9a:d1:df:ce:5f:96:c3:
                    41:22:b3:1b:fc:11:33:2c:d8:c7:66:4b:7c:fa:e2:
                    8d:fe:d1:4a:29:34:7f:35:0f:69:47:be:4f:47:7a:
                    6d:9a:29:8a:87:98:ce:1f:c5
                Exponent: 65537 (0x10001)
        X509v3 extensions:
            X509v3 Basic Constraints: critical
                CA:FALSE
            X509v3 Key Usage: critical
                Digital Signature
    Signature Algorithm: sha256WithRSAEncryption
         0a:fa:9a:a1:5b:a9:99:d8:a6:92:63:7b:ae:a0:b6:6d:2f:5f:
         2a:e9:4c:39:fd:51:67:9e:ed:a5:c6:6d:cb:e5:f0:4f:28:ed:
         1f:eb:f2:c7:83:cc:74:2d:63:4a:97:86:93:d0:ea:e8:8b:bb:
         cd:19:ba:a4:2c:d4:70:aa:b1:fe:6c:0c:f4:55:b6:79:84:36:
         ab:28:5c:8c:63:74:09:e1:23:83:05:44:1a:0e:93:a3:e1:2e:
         da:8c:fd:39:08:66:5c:b6:57:82:41:ed:b8:39:dc:31:a7:fa:
         c7:3a:ab:cb:44:36:34:e8:58:99:01:5d:f9:1f:91:cc:4d:7f:
         10:27:1c:13:73:80:e4:18:af:ea:f4:79:3d:0e:e8:99:2f:e7:
         61:e8:9d:7d:15:eb:53:fe:79:f1:59:79:a4:ef:d4:92:20:ab:
         b2:c1:28:31:c4:1f:a8:32:17:13:94:63:dd:7f:2f:e6:29:e3:
         eb:da:b5:7e:3e:c0:ca:79:14:d3:07:25:69:5e:0d:18:64:b5:
         eb:e8:a3:84:88:5e:7d:d4:69:54:f2:90:5d:99:50:99:cd:4a:
         63:88:8f:0a:34:15:da:11:71:d2:aa:79:3a:3c:74:bd:93:7f:
         7c:40:e4:c6:fa:2b:a2:92:fa:31:60:82:fa:0c:82:7c:5e:99:
         18:14:e9:26
-----BEGIN CERTIFICATE-----
MIIDCTCCAfGgAwIBAgIBIDANBgkqhkiG9w0BAQsFADB1MQswCQYDVQQGEwJVUzET
MBEGA1UECAwKQ2FsaWZvcm5pYTEUMBIGA1UEBwwLU2FudGEgQ2xhcmExDTALBgNV
BAoMBHBrZzUxEjAQBgNVBAMMCWNoMS4zX3RhMzEYMBYGCSqGSIb3DQEJARYJY2gx
LjNfdGEzMB4XDTE4MDcwMzE0MTQwMloXDTIxMDMyOTE0MTQwMlowfTELMAkGA1UE
BhMCVVMxEzARBgNVBAgMCkNhbGlmb3JuaWExFDASBgNVBAcMC1NhbnRhIENsYXJh
MQ0wCwYDVQQKDARwa2c1MRYwFAYDVQQDDA1jczFfY2gxLjNfdGEzMRwwGgYJKoZI
hvcNAQkBFg1jczFfY2gxLjNfdGEzMIGfMA0GCSqGSIb3DQEBAQUAA4GNADCBiQKB
gQC+6nXwRGtIsQwtfhg89gaGL2nh9J1iXOk3DDT/hh0zCpkhuEpY+tGg8PqQ74/S
k05qrbBT80GIOD1Mlr4I/4QcnoK0rhKA4pS7gwG9NDiyPRR3mtHfzl+Ww0Eisxv8
ETMs2MdmS3z64o3+0UopNH81D2lHvk9Hem2aKYqHmM4fxQIDAQABoyAwHjAMBgNV
HRMBAf8EAjAAMA4GA1UdDwEB/wQEAwIHgDANBgkqhkiG9w0BAQsFAAOCAQEACvqa
oVupmdimkmN7rqC2bS9fKulMOf1RZ57tpcZty+XwTyjtH+vyx4PMdC1jSpeGk9Dq
6Iu7zRm6pCzUcKqx/mwM9FW2eYQ2qyhcjGN0CeEjgwVEGg6To+Eu2oz9OQhmXLZX
gkHtuDncMaf6xzqry0Q2NOhYmQFd+R+RzE1/ECccE3OA5Biv6vR5PQ7omS/nYeid
fRXrU/558Vl5pO/UkiCrssEoMcQfqDIXE5Rj3X8v5inj69q1fj7AynkU0wclaV4N
GGS16+ijhIhefdRpVPKQXZlQmc1KY4iPCjQV2hFx0qp5Ojx0vZN/fEDkxvoropL6
MWCC+gyCfF6ZGBTpJg==
-----END CERTIFICATE-----
