Certificate:
    Data:
        Version: 3 (0x2)
        Serial Number: 34 (0x22)
    Signature Algorithm: sha256WithRSAEncryption
        Issuer: C=US, ST=California, L=Santa Clara, O=pkg5, CN=ch1.4_ta3/emailAddress=ch1.4_ta3
        Validity
            Not Before: Jul  3 14:14:02 2018 GMT
            Not After : Mar 29 14:14:02 2021 GMT
        Subject: C=US, ST=California, L=Santa Clara, O=pkg5, CN=cs1_ch1.4_ta3/emailAddress=cs1_ch1.4_ta3
        Subject Public Key Info:
            Public Key Algorithm: rsaEncryption
                Public-Key: (1024 bit)
                Modulus:
                    00:ae:f0:db:0b:08:4d:38:64:67:01:5d:f1:15:b9:
                    77:67:93:2d:22:79:40:8f:51:b2:5a:12:c7:70:d8:
                    64:49:b3:70:57:9a:ea:e5:76:6c:d5:05:d6:19:19:
                    b3:c9:54:32:b1:dc:a1:74:01:ed:d0:d9:3e:c6:24:
                    a6:8d:f3:eb:c3:3b:84:65:1b:06:d6:ab:eb:a9:b7:
                    da:2e:c3:f8:f4:c5:5f:ef:d0:35:26:9a:24:5d:ba:
                    37:f3:66:90:c0:89:e5:ab:5e:c6:68:5f:6c:f6:d1:
                    5e:39:e6:68:b5:d5:66:e0:f6:38:b8:76:b6:1e:33:
                    a1:3d:39:43:94:80:aa:87:3b
                Exponent: 65537 (0x10001)
        X509v3 extensions:
            X509v3 Basic Constraints: critical
                CA:FALSE
            X509v3 Key Usage: critical
                Digital Signature
    Signature Algorithm: sha256WithRSAEncryption
         18:35:35:9d:99:be:48:4c:65:50:c2:ba:05:bd:c5:76:0c:9c:
         b5:88:a5:a1:02:b2:7c:a5:55:f2:63:ed:6d:7d:c2:9e:0b:e6:
         e7:4c:0c:45:07:0f:8a:ff:92:6d:e1:c9:18:7d:b9:38:27:d0:
         5e:f0:60:62:17:a0:17:14:c7:78:34:5f:49:32:33:6c:6c:c5:
         1a:a0:16:d6:36:3f:50:f7:6a:b1:9a:a9:36:85:56:b0:a4:13:
         5a:20:8f:2b:ea:2e:66:4c:f5:31:3f:44:60:76:a6:46:ca:fd:
         3c:f9:a5:26:01:6b:60:e5:df:8f:c8:97:81:63:75:e1:ff:9f:
         88:50:4a:df:3e:37:66:6e:23:f3:af:d7:2d:c6:dc:5d:5a:9e:
         c3:a1:d2:90:42:59:4c:8f:76:2e:e6:a1:75:d8:3e:29:9e:0d:
         c3:76:a0:73:3a:fd:eb:0f:31:f5:2f:14:51:78:6c:8d:6b:8b:
         f7:ef:a1:d5:7f:66:f9:dd:04:9d:66:59:a1:05:87:26:22:78:
         94:e0:17:1e:db:59:85:2c:91:36:f5:1e:96:12:f3:44:45:c3:
         09:f6:c1:b6:e8:4b:21:d2:16:49:ac:9f:ee:c7:87:5e:97:f5:
         30:d9:4c:cc:ac:19:3e:36:7e:60:5a:6a:f3:64:4a:81:70:a5:
         b0:52:8d:27
-----BEGIN CERTIFICATE-----
MIIDCTCCAfGgAwIBAgIBIjANBgkqhkiG9w0BAQsFADB1MQswCQYDVQQGEwJVUzET
MBEGA1UECAwKQ2FsaWZvcm5pYTEUMBIGA1UEBwwLU2FudGEgQ2xhcmExDTALBgNV
BAoMBHBrZzUxEjAQBgNVBAMMCWNoMS40X3RhMzEYMBYGCSqGSIb3DQEJARYJY2gx
LjRfdGEzMB4XDTE4MDcwMzE0MTQwMloXDTIxMDMyOTE0MTQwMlowfTELMAkGA1UE
BhMCVVMxEzARBgNVBAgMCkNhbGlmb3JuaWExFDASBgNVBAcMC1NhbnRhIENsYXJh
MQ0wCwYDVQQKDARwa2c1MRYwFAYDVQQDDA1jczFfY2gxLjRfdGEzMRwwGgYJKoZI
hvcNAQkBFg1jczFfY2gxLjRfdGEzMIGfMA0GCSqGSIb3DQEBAQUAA4GNADCBiQKB
gQCu8NsLCE04ZGcBXfEVuXdnky0ieUCPUbJaEsdw2GRJs3BXmurldmzVBdYZGbPJ
VDKx3KF0Ae3Q2T7GJKaN8+vDO4RlGwbWq+upt9ouw/j0xV/v0DUmmiRdujfzZpDA
ieWrXsZoX2z20V455mi11Wbg9ji4drYeM6E9OUOUgKqHOwIDAQABoyAwHjAMBgNV
HRMBAf8EAjAAMA4GA1UdDwEB/wQEAwIHgDANBgkqhkiG9w0BAQsFAAOCAQEAGDU1
nZm+SExlUMK6Bb3FdgyctYiloQKyfKVV8mPtbX3Cngvm50wMRQcPiv+SbeHJGH25
OCfQXvBgYhegFxTHeDRfSTIzbGzFGqAW1jY/UPdqsZqpNoVWsKQTWiCPK+ouZkz1
MT9EYHamRsr9PPmlJgFrYOXfj8iXgWN14f+fiFBK3z43Zm4j86/XLcbcXVqew6HS
kEJZTI92Luahddg+KZ4Nw3agczr96w8x9S8UUXhsjWuL9++h1X9m+d0EnWZZoQWH
JiJ4lOAXHttZhSyRNvUelhLzREXDCfbBtuhLIdIWSayf7seHXpf1MNlMzKwZPjZ+
YFpq82RKgXClsFKNJw==
-----END CERTIFICATE-----
