Certificate:
    Data:
        Version: 3 (0x2)
        Serial Number: 34 (0x22)
    Signature Algorithm: sha256WithRSAEncryption
        Issuer: C=US, ST=California, L=Santa Clara, O=pkg5, CN=ch1.4_ta3/emailAddress=ch1.4_ta3
        Validity
            Not Before: Nov 24 01:22:43 2021 GMT
            Not After : Aug 20 01:22:43 2024 GMT
        Subject: C=US, ST=California, L=Santa Clara, O=pkg5, CN=cs1_ch1.4_ta3/emailAddress=cs1_ch1.4_ta3
        Subject Public Key Info:
            Public Key Algorithm: rsaEncryption
                Public-Key: (1024 bit)
                Modulus:
                    00:b7:23:94:80:d1:d5:57:49:41:49:9e:d0:48:e9:
                    3b:2b:e8:5c:8c:51:88:31:6e:d4:52:63:7f:6f:08:
                    8a:5a:86:45:29:03:24:ae:67:1a:a7:3a:a9:35:a3:
                    e2:05:9f:35:27:9b:34:cf:8b:d3:16:2a:76:7a:49:
                    ed:4c:38:86:f4:00:b1:a2:a7:ba:14:94:ac:82:7e:
                    65:ee:99:e5:aa:8c:e1:34:71:99:dc:cf:e3:5f:58:
                    6b:f6:2b:1f:c5:95:e7:c9:52:ed:74:1a:c8:7e:2a:
                    fc:d3:7b:60:45:b5:56:eb:36:ad:1a:52:d3:fc:07:
                    d4:76:0a:a9:c9:b7:d9:53:35
                Exponent: 65537 (0x10001)
        X509v3 extensions:
            X509v3 Basic Constraints: critical
                CA:FALSE
            X509v3 Key Usage: critical
                Digital Signature
    Signature Algorithm: sha256WithRSAEncryption
         20:37:3f:86:4e:13:a4:b3:14:d6:bf:af:5b:5c:e3:76:60:3d:
         01:b6:02:5a:6d:4f:93:4e:2e:84:8d:86:8b:b2:1d:59:da:71:
         a5:32:02:d2:da:a8:3e:4d:a2:b8:6d:9e:17:2f:a8:46:37:71:
         43:16:2f:22:27:11:36:9f:fd:32:4b:e2:db:2f:60:ee:55:f9:
         21:a3:52:76:fd:3e:80:60:03:3b:64:d8:d5:70:41:a3:ef:28:
         1a:32:e0:89:0b:d2:b4:1a:34:14:d5:a9:9c:ea:be:27:1f:27:
         00:cb:da:d8:de:e8:5f:15:05:81:2e:f0:e6:ce:f3:86:88:1b:
         17:01:f8:6a:3e:b6:63:7d:27:19:1c:04:5f:87:dc:2f:12:af:
         74:7a:f5:39:f1:d3:04:6f:2f:5a:ee:96:af:87:b8:b0:98:79:
         44:1d:2a:0b:8a:ad:11:ce:af:97:cb:8d:a8:a3:2b:75:4d:23:
         9a:8a:fc:d4:5e:32:33:6e:5f:45:e0:a1:c9:f2:84:51:90:97:
         43:18:80:19:aa:e0:3d:b1:d7:0e:bf:65:94:57:ba:26:a7:33:
         a3:df:3d:de:dd:bb:46:b0:ed:85:ba:55:b9:03:06:c2:cb:11:
         8a:dc:65:1b:92:49:0a:a7:90:96:9c:80:58:13:f7:5a:63:cd:
         bd:5f:10:5f
-----BEGIN CERTIFICATE-----
MIIDCTCCAfGgAwIBAgIBIjANBgkqhkiG9w0BAQsFADB1MQswCQYDVQQGEwJVUzET
MBEGA1UECAwKQ2FsaWZvcm5pYTEUMBIGA1UEBwwLU2FudGEgQ2xhcmExDTALBgNV
BAoMBHBrZzUxEjAQBgNVBAMMCWNoMS40X3RhMzEYMBYGCSqGSIb3DQEJARYJY2gx
LjRfdGEzMB4XDTIxMTEyNDAxMjI0M1oXDTI0MDgyMDAxMjI0M1owfTELMAkGA1UE
BhMCVVMxEzARBgNVBAgMCkNhbGlmb3JuaWExFDASBgNVBAcMC1NhbnRhIENsYXJh
MQ0wCwYDVQQKDARwa2c1MRYwFAYDVQQDDA1jczFfY2gxLjRfdGEzMRwwGgYJKoZI
hvcNAQkBFg1jczFfY2gxLjRfdGEzMIGfMA0GCSqGSIb3DQEBAQUAA4GNADCBiQKB
gQC3I5SA0dVXSUFJntBI6Tsr6FyMUYgxbtRSY39vCIpahkUpAySuZxqnOqk1o+IF
nzUnmzTPi9MWKnZ6Se1MOIb0ALGip7oUlKyCfmXumeWqjOE0cZncz+NfWGv2Kx/F
lefJUu10Gsh+KvzTe2BFtVbrNq0aUtP8B9R2CqnJt9lTNQIDAQABoyAwHjAMBgNV
HRMBAf8EAjAAMA4GA1UdDwEB/wQEAwIHgDANBgkqhkiG9w0BAQsFAAOCAQEAIDc/
hk4TpLMU1r+vW1zjdmA9AbYCWm1Pk04uhI2Gi7IdWdpxpTIC0tqoPk2iuG2eFy+o
RjdxQxYvIicRNp/9Mkvi2y9g7lX5IaNSdv0+gGADO2TY1XBBo+8oGjLgiQvStBo0
FNWpnOq+Jx8nAMva2N7oXxUFgS7w5s7zhogbFwH4aj62Y30nGRwEX4fcLxKvdHr1
OfHTBG8vWu6Wr4e4sJh5RB0qC4qtEc6vl8uNqKMrdU0jmor81F4yM25fReChyfKE
UZCXQxiAGargPbHXDr9llFe6Jqczo9893t27RrDthbpVuQMGwssRitxlG5JJCqeQ
lpyAWBP3WmPNvV8QXw==
-----END CERTIFICATE-----
