Certificate:
    Data:
        Version: 3 (0x2)
        Serial Number: 35 (0x23)
    Signature Algorithm: sha256WithRSAEncryption
        Issuer: C=US, ST=California, L=Santa Clara, O=pkg5, CN=ch1_ta4/emailAddress=ch1_ta4
        Validity
            Not Before: Nov 11 12:38:33 2017 GMT
            Not After : Aug  7 12:38:33 2020 GMT
        Subject: C=US, ST=California, L=Santa Clara, O=pkg5, CN=cs1_ch1_ta4/emailAddress=cs1_ch1_ta4
        Subject Public Key Info:
            Public Key Algorithm: rsaEncryption
                Public-Key: (1024 bit)
                Modulus:
                    00:ce:db:14:57:9d:24:ac:d2:01:7a:50:da:04:d8:
                    8c:73:bf:15:2c:ed:29:60:e3:22:4b:bc:ae:92:e9:
                    e8:e6:d6:6a:ae:13:fa:c4:06:9d:99:08:aa:7b:a7:
                    99:e3:6e:ad:37:9e:74:61:e1:54:f6:76:b8:df:65:
                    88:a9:65:23:21:0a:ff:d6:d5:eb:d6:f2:a9:34:21:
                    4d:06:d6:94:75:7c:d9:d4:bf:8b:58:cb:1c:03:b5:
                    23:ed:6a:28:fd:9f:7b:29:e6:cc:1c:33:d9:47:20:
                    eb:fa:f8:aa:42:62:c5:37:b4:44:d6:a1:47:6a:4c:
                    f0:30:52:13:cb:f7:6b:1a:4f
                Exponent: 65537 (0x10001)
        X509v3 extensions:
            X509v3 Basic Constraints: critical
                CA:FALSE
            X509v3 CRL Distribution Points: 

                Full Name:
                  URI:http://localhost:12001/file/0/ch1_ta4_crl.pem

    Signature Algorithm: sha256WithRSAEncryption
         37:a4:06:03:05:bf:ff:6d:02:47:35:f4:de:57:b7:04:3f:54:
         d6:67:9d:e9:b1:79:7e:af:12:df:78:ac:21:7d:e1:ec:a6:83:
         01:1b:44:3c:71:48:6d:b3:87:bf:dc:fc:6a:15:c5:4c:91:2d:
         2c:dd:87:a2:6f:cc:95:ed:16:03:d6:66:c2:dd:15:47:5d:86:
         b0:f3:b3:ec:2f:cc:80:e0:16:16:a6:ff:fa:95:4e:1c:93:de:
         6b:b8:03:12:18:53:14:5f:6a:3b:b3:ae:20:df:34:f8:06:58:
         1c:45:ef:a3:79:5a:61:7c:fc:77:98:91:fd:a2:93:66:3a:32:
         3d:ae:d6:ea:cc:d0:73:1f:b9:73:15:ae:9c:07:a3:98:8e:59:
         f0:37:05:e1:16:4d:52:46:82:78:fd:67:ca:75:07:81:8b:e4:
         f1:c9:a9:17:3d:9b:3c:60:01:34:cb:af:64:fb:2c:36:92:0e:
         57:22:9f:9c:e7:33:47:bf:17:6c:d2:ab:de:0a:e5:b8:5e:83:
         bc:31:c8:b2:84:27:d7:e2:cf:29:cc:79:26:79:3a:48:34:51:
         d8:b0:81:0a:a6:33:a6:78:fc:e9:86:5d:fd:8c:b7:f3:a1:a4:
         38:c1:be:ff:1f:61:7c:23:f6:db:78:c8:ea:c6:23:b7:ce:03:
         08:60:17:05
-----BEGIN CERTIFICATE-----
MIIDMTCCAhmgAwIBAgIBIzANBgkqhkiG9w0BAQsFADBxMQswCQYDVQQGEwJVUzET
MBEGA1UECAwKQ2FsaWZvcm5pYTEUMBIGA1UEBwwLU2FudGEgQ2xhcmExDTALBgNV
BAoMBHBrZzUxEDAOBgNVBAMMB2NoMV90YTQxFjAUBgkqhkiG9w0BCQEWB2NoMV90
YTQwHhcNMTcxMTExMTIzODMzWhcNMjAwODA3MTIzODMzWjB5MQswCQYDVQQGEwJV
UzETMBEGA1UECAwKQ2FsaWZvcm5pYTEUMBIGA1UEBwwLU2FudGEgQ2xhcmExDTAL
BgNVBAoMBHBrZzUxFDASBgNVBAMMC2NzMV9jaDFfdGE0MRowGAYJKoZIhvcNAQkB
FgtjczFfY2gxX3RhNDCBnzANBgkqhkiG9w0BAQEFAAOBjQAwgYkCgYEAztsUV50k
rNIBelDaBNiMc78VLO0pYOMiS7yukuno5tZqrhP6xAadmQiqe6eZ426tN550YeFU
9na432WIqWUjIQr/1tXr1vKpNCFNBtaUdXzZ1L+LWMscA7Uj7Woo/Z97KebMHDPZ
RyDr+viqQmLFN7RE1qFHakzwMFITy/drGk8CAwEAAaNQME4wDAYDVR0TAQH/BAIw
ADA+BgNVHR8ENzA1MDOgMaAvhi1odHRwOi8vbG9jYWxob3N0OjEyMDAxL2ZpbGUv
MC9jaDFfdGE0X2NybC5wZW0wDQYJKoZIhvcNAQELBQADggEBADekBgMFv/9tAkc1
9N5XtwQ/VNZnnemxeX6vEt94rCF94eymgwEbRDxxSG2zh7/c/GoVxUyRLSzdh6Jv
zJXtFgPWZsLdFUddhrDzs+wvzIDgFham//qVThyT3mu4AxIYUxRfajuzriDfNPgG
WBxF76N5WmF8/HeYkf2ik2Y6Mj2u1urM0HMfuXMVrpwHo5iOWfA3BeEWTVJGgnj9
Z8p1B4GL5PHJqRc9mzxgATTLr2T7LDaSDlcin5znM0e/F2zSq94K5bheg7wxyLKE
J9fizynMeSZ5Okg0UdiwgQqmM6Z4/OmGXf2Mt/OhpDjBvv8fYXwj9tt4yOrGI7fO
AwhgFwU=
-----END CERTIFICATE-----
