Certificate:
    Data:
        Version: 3 (0x2)
        Serial Number: 36 (0x24)
    Signature Algorithm: sha256WithRSAEncryption
        Issuer: C=US, ST=California, L=Santa Clara, O=pkg5, CN=ch1_ta4/emailAddress=ch1_ta4
        Validity
            Not Before: Nov 11 12:38:33 2017 GMT
            Not After : Aug  7 12:38:33 2020 GMT
        Subject: C=US, ST=California, L=Santa Clara, O=pkg5, CN=cs2_ch1_ta4/emailAddress=cs2_ch1_ta4
        Subject Public Key Info:
            Public Key Algorithm: rsaEncryption
                Public-Key: (1024 bit)
                Modulus:
                    00:db:09:f6:e0:8e:8c:8d:9a:84:ff:62:d8:c4:71:
                    f3:92:c9:f5:a3:73:01:3d:70:f0:b6:6f:80:c1:98:
                    0f:0d:25:00:01:75:d5:96:10:23:9a:34:9b:f0:00:
                    91:b9:cb:de:dc:20:99:90:9e:fa:37:11:f4:f3:33:
                    d5:af:19:6b:b2:9a:f2:03:98:bd:ba:50:76:11:6a:
                    69:bf:29:f8:59:67:d8:aa:c2:e1:13:69:ff:a4:49:
                    c7:97:11:9d:57:f9:56:ee:b6:1e:95:f7:f2:10:a0:
                    3c:08:4a:de:3b:46:75:53:65:77:9b:f7:a8:83:ae:
                    1a:4c:18:07:b7:38:a8:c3:af
                Exponent: 65537 (0x10001)
        X509v3 extensions:
            X509v3 Subject Key Identifier: 
                6C:32:8B:31:B7:CE:A3:C3:BF:8A:3F:C2:E9:C0:F2:21:12:E7:0E:9C
            X509v3 Authority Key Identifier: 
                keyid:B1:1B:0F:57:F9:CC:13:12:DD:27:D6:EC:96:08:A4:A6:6C:27:24:08
                DirName:/C=US/ST=California/L=Santa Clara/O=pkg5/CN=ta4/emailAddress=ta4
                serial:22

            X509v3 Basic Constraints: critical
                CA:FALSE
            X509v3 CRL Distribution Points: 

                Full Name:
                  URI:http://localhost:12001/file/0/example_file

    Signature Algorithm: sha256WithRSAEncryption
         b6:be:0b:87:a1:8e:d6:82:98:a9:c2:42:f9:96:12:1b:c1:e5:
         73:74:8a:ad:51:d4:a1:a9:51:03:a9:74:2e:3b:2b:70:c1:8d:
         9a:88:04:29:52:e2:0d:96:6f:20:44:af:f5:47:ce:47:3f:39:
         12:15:54:2c:88:55:6c:2c:eb:b6:b0:20:9f:11:2f:b5:7a:ae:
         c1:38:d5:48:5e:45:e8:b8:36:fd:27:ee:63:b2:5d:a0:b6:37:
         7c:53:56:7c:eb:7b:93:a5:b9:ae:d8:b1:99:15:35:3c:74:d5:
         22:d3:27:c4:12:0e:99:28:06:45:ba:6d:27:e4:69:a5:07:6c:
         0e:fe:05:00:51:3b:12:72:02:22:28:0e:bc:85:6d:ee:8a:70:
         14:98:78:9e:9d:91:7a:09:34:6d:92:04:91:43:0f:a8:6d:09:
         70:06:20:0b:8f:e2:13:47:ca:00:c6:4d:c9:11:90:c7:3c:23:
         6d:8d:44:70:28:40:8c:9f:20:8e:af:a5:ed:e2:be:f0:9f:b5:
         02:79:12:74:f2:13:29:49:6b:e8:7b:b9:16:5a:5b:c0:60:05:
         ec:d5:af:ae:59:8d:be:b8:a9:45:8f:84:a4:91:f4:ab:79:97:
         5d:c8:1c:c0:93:46:f0:91:a0:d9:03:be:80:0c:1d:b0:ea:76:
         02:10:e6:b5
-----BEGIN CERTIFICATE-----
MIID5zCCAs+gAwIBAgIBJDANBgkqhkiG9w0BAQsFADBxMQswCQYDVQQGEwJVUzET
MBEGA1UECAwKQ2FsaWZvcm5pYTEUMBIGA1UEBwwLU2FudGEgQ2xhcmExDTALBgNV
BAoMBHBrZzUxEDAOBgNVBAMMB2NoMV90YTQxFjAUBgkqhkiG9w0BCQEWB2NoMV90
YTQwHhcNMTcxMTExMTIzODMzWhcNMjAwODA3MTIzODMzWjB5MQswCQYDVQQGEwJV
UzETMBEGA1UECAwKQ2FsaWZvcm5pYTEUMBIGA1UEBwwLU2FudGEgQ2xhcmExDTAL
BgNVBAoMBHBrZzUxFDASBgNVBAMMC2NzMl9jaDFfdGE0MRowGAYJKoZIhvcNAQkB
FgtjczJfY2gxX3RhNDCBnzANBgkqhkiG9w0BAQEFAAOBjQAwgYkCgYEA2wn24I6M
jZqE/2LYxHHzksn1o3MBPXDwtm+AwZgPDSUAAXXVlhAjmjSb8ACRucve3CCZkJ76
NxH08zPVrxlrspryA5i9ulB2EWppvyn4WWfYqsLhE2n/pEnHlxGdV/lW7rYelffy
EKA8CEreO0Z1U2V3m/eog64aTBgHtziow68CAwEAAaOCAQQwggEAMB0GA1UdDgQW
BBRsMosxt86jw7+KP8LpwPIhEucOnDCBkwYDVR0jBIGLMIGIgBSxGw9X+cwTEt0n
1uyWCKSmbCckCKFtpGswaTELMAkGA1UEBhMCVVMxEzARBgNVBAgMCkNhbGlmb3Ju
aWExFDASBgNVBAcMC1NhbnRhIENsYXJhMQ0wCwYDVQQKDARwa2c1MQwwCgYDVQQD
DAN0YTQxEjAQBgkqhkiG9w0BCQEWA3RhNIIBIjAMBgNVHRMBAf8EAjAAMDsGA1Ud
HwQ0MDIwMKAuoCyGKmh0dHA6Ly9sb2NhbGhvc3Q6MTIwMDEvZmlsZS8wL2V4YW1w
bGVfZmlsZTANBgkqhkiG9w0BAQsFAAOCAQEAtr4Lh6GO1oKYqcJC+ZYSG8Hlc3SK
rVHUoalRA6l0LjsrcMGNmogEKVLiDZZvIESv9UfORz85EhVULIhVbCzrtrAgnxEv
tXquwTjVSF5F6Lg2/SfuY7JdoLY3fFNWfOt7k6W5rtixmRU1PHTVItMnxBIOmSgG
RbptJ+RppQdsDv4FAFE7EnICIigOvIVt7opwFJh4np2Regk0bZIEkUMPqG0JcAYg
C4/iE0fKAMZNyRGQxzwjbY1EcChAjJ8gjq+l7eK+8J+1AnkSdPITKUlr6Hu5Flpb
wGAF7NWvrlmNvripRY+EpJH0q3mXXcgcwJNG8JGg2QO+gAwdsOp2AhDmtQ==
-----END CERTIFICATE-----
