Certificate:
    Data:
        Version: 3 (0x2)
        Serial Number: 36 (0x24)
    Signature Algorithm: sha256WithRSAEncryption
        Issuer: C=US, ST=California, L=Santa Clara, O=pkg5, CN=ch1_ta4/emailAddress=ch1_ta4
        Validity
            Not Before: Nov 24 01:22:43 2021 GMT
            Not After : Aug 20 01:22:43 2024 GMT
        Subject: C=US, ST=California, L=Santa Clara, O=pkg5, CN=cs1_ch1_ta4/emailAddress=cs1_ch1_ta4
        Subject Public Key Info:
            Public Key Algorithm: rsaEncryption
                Public-Key: (1024 bit)
                Modulus:
                    00:ba:d1:f8:c6:09:8a:f9:93:3a:73:83:5c:2f:65:
                    27:48:f1:77:17:d7:48:d7:09:b7:eb:0f:0c:1e:93:
                    d5:21:4e:44:ab:95:89:eb:fb:5e:61:65:62:6d:35:
                    6e:a2:0c:1f:6a:8f:ef:e1:33:16:87:0c:5b:c7:aa:
                    99:e0:19:99:5c:62:61:ab:86:b7:75:a3:cd:44:53:
                    ae:65:94:32:14:27:e8:17:ee:18:18:cb:24:f2:16:
                    63:89:d6:10:e4:a6:80:3f:92:8e:70:ba:d0:57:56:
                    15:72:73:aa:bc:56:83:df:b4:5f:01:54:14:c1:01:
                    c2:67:94:0c:b6:39:8b:94:2b
                Exponent: 65537 (0x10001)
        X509v3 extensions:
            X509v3 Basic Constraints: critical
                CA:FALSE
            X509v3 CRL Distribution Points: 

                Full Name:
                  URI:http://localhost:12001/file/0/ch1_ta4_crl.pem

    Signature Algorithm: sha256WithRSAEncryption
         4f:fe:3a:85:51:af:d4:07:b7:ec:4c:6f:92:a1:ed:d0:20:25:
         12:23:0d:56:78:cf:47:8e:f9:69:be:bf:d2:4f:0c:e3:c0:96:
         5c:12:20:d1:ca:8d:b3:84:ae:62:73:a2:05:5b:11:51:01:02:
         4a:d9:30:4f:2b:03:8c:34:5a:91:2e:6f:d5:77:5b:a2:2d:5a:
         a3:83:8d:90:1f:b1:17:ff:33:86:ee:fc:c8:6b:b4:4e:e2:85:
         e7:77:0f:24:32:dc:ac:09:0a:0a:60:97:23:7d:1c:65:71:9b:
         93:70:6b:79:d0:b4:f2:0d:71:c2:7f:e5:9e:13:fd:3f:e1:fe:
         f1:c1:74:4c:65:b8:44:02:f8:09:da:bb:36:7a:45:bd:97:33:
         da:4e:2d:d9:87:81:f6:2b:35:3c:2f:67:87:4f:06:43:84:8f:
         72:83:bd:23:9c:28:2f:f8:6f:5a:4e:f9:ce:0b:62:bc:cd:72:
         71:f5:9e:24:e5:19:e1:89:c3:87:84:df:8f:92:32:38:f5:9a:
         da:e4:6c:c0:41:60:ae:64:22:27:8b:4a:2b:0c:4c:d2:f5:62:
         c2:47:a2:b7:ba:c6:f4:d1:c7:49:f2:06:38:03:a5:94:99:6f:
         cd:39:22:1b:65:43:f9:4b:80:d9:1a:c1:44:3d:72:9a:ad:58:
         51:20:69:ec
-----BEGIN CERTIFICATE-----
MIIDMTCCAhmgAwIBAgIBJDANBgkqhkiG9w0BAQsFADBxMQswCQYDVQQGEwJVUzET
MBEGA1UECAwKQ2FsaWZvcm5pYTEUMBIGA1UEBwwLU2FudGEgQ2xhcmExDTALBgNV
BAoMBHBrZzUxEDAOBgNVBAMMB2NoMV90YTQxFjAUBgkqhkiG9w0BCQEWB2NoMV90
YTQwHhcNMjExMTI0MDEyMjQzWhcNMjQwODIwMDEyMjQzWjB5MQswCQYDVQQGEwJV
UzETMBEGA1UECAwKQ2FsaWZvcm5pYTEUMBIGA1UEBwwLU2FudGEgQ2xhcmExDTAL
BgNVBAoMBHBrZzUxFDASBgNVBAMMC2NzMV9jaDFfdGE0MRowGAYJKoZIhvcNAQkB
FgtjczFfY2gxX3RhNDCBnzANBgkqhkiG9w0BAQEFAAOBjQAwgYkCgYEAutH4xgmK
+ZM6c4NcL2UnSPF3F9dI1wm36w8MHpPVIU5Eq5WJ6/teYWVibTVuogwfao/v4TMW
hwxbx6qZ4BmZXGJhq4a3daPNRFOuZZQyFCfoF+4YGMsk8hZjidYQ5KaAP5KOcLrQ
V1YVcnOqvFaD37RfAVQUwQHCZ5QMtjmLlCsCAwEAAaNQME4wDAYDVR0TAQH/BAIw
ADA+BgNVHR8ENzA1MDOgMaAvhi1odHRwOi8vbG9jYWxob3N0OjEyMDAxL2ZpbGUv
MC9jaDFfdGE0X2NybC5wZW0wDQYJKoZIhvcNAQELBQADggEBAE/+OoVRr9QHt+xM
b5Kh7dAgJRIjDVZ4z0eO+Wm+v9JPDOPAllwSINHKjbOErmJzogVbEVEBAkrZME8r
A4w0WpEub9V3W6ItWqODjZAfsRf/M4bu/MhrtE7ihed3DyQy3KwJCgpglyN9HGVx
m5Nwa3nQtPINccJ/5Z4T/T/h/vHBdExluEQC+AnauzZ6Rb2XM9pOLdmHgfYrNTwv
Z4dPBkOEj3KDvSOcKC/4b1pO+c4LYrzNcnH1niTlGeGJw4eE34+SMjj1mtrkbMBB
YK5kIieLSisMTNL1YsJHore6xvTRx0nyBjgDpZSZb805IhtlQ/lLgNkawUQ9cpqt
WFEgaew=
-----END CERTIFICATE-----
