Certificate:
    Data:
        Version: 3 (0x2)
        Serial Number: 38 (0x26)
    Signature Algorithm: sha256WithRSAEncryption
        Issuer: C=US, ST=California, L=Santa Clara, O=pkg5, CN=ch1_ta4/emailAddress=ch1_ta4
        Validity
            Not Before: Jul  3 14:14:03 2018 GMT
            Not After : Mar 29 14:14:03 2021 GMT
        Subject: C=US, ST=California, L=Santa Clara, O=pkg5, CN=cs3_ch1_ta4/emailAddress=cs3_ch1_ta4
        Subject Public Key Info:
            Public Key Algorithm: rsaEncryption
                Public-Key: (1024 bit)
                Modulus:
                    00:b7:a6:5e:15:a9:c6:8c:09:e3:4b:2b:b0:61:b7:
                    97:26:bf:f2:95:a6:b7:5d:2c:89:52:cf:5f:e8:46:
                    dc:67:7d:db:17:c8:2e:8d:db:65:df:5f:d0:ba:09:
                    7c:5a:44:85:90:20:6c:8c:0d:e9:25:ab:2f:ad:c6:
                    91:a6:88:33:da:d5:22:15:e0:11:d4:54:4c:92:9a:
                    73:75:7b:41:bd:0c:68:1c:96:db:eb:5b:a6:bc:49:
                    f7:ba:b0:c0:43:77:79:e8:a4:4a:70:39:5d:b5:ff:
                    c9:b1:c2:a9:59:e8:45:ac:56:63:c1:fd:ab:b1:09:
                    a7:a2:71:c9:88:2c:84:50:85
                Exponent: 65537 (0x10001)
        X509v3 extensions:
            X509v3 Subject Key Identifier: 
                52:D7:1F:3E:54:8D:92:E9:70:99:4A:70:1C:B9:87:9A:C9:5F:01:AE
            X509v3 Authority Key Identifier: 
                keyid:AF:51:12:88:C2:0B:00:D2:AB:12:6E:1B:39:A6:3F:63:13:91:96:2D
                DirName:/C=US/ST=California/L=Santa Clara/O=pkg5/CN=ta4/emailAddress=ta4
                serial:23

            X509v3 Basic Constraints: critical
                CA:FALSE
            X509v3 CRL Distribution Points: 

                Full Name:
                  URI:foo://bar/baz

    Signature Algorithm: sha256WithRSAEncryption
         24:d8:80:8a:10:bc:25:40:71:15:35:6e:cf:f4:2b:1d:c1:af:
         67:6f:dc:ec:b4:46:9c:75:23:23:7c:5e:3b:75:3f:1a:31:de:
         63:fd:7c:f2:1c:3f:22:32:23:d5:2a:9d:f5:c5:e3:3a:1f:8a:
         7b:cc:b9:d3:32:8c:ae:60:35:25:29:07:43:c3:ac:89:cd:d6:
         e7:af:48:1a:73:5a:12:a5:6f:17:b2:2b:e1:e5:98:e3:d8:3f:
         0b:c5:38:90:ed:68:0c:77:76:3f:e4:94:fb:1e:1d:e9:01:36:
         4b:da:02:ee:a0:84:f6:32:57:d7:50:b8:7d:a2:9f:d0:a5:4f:
         89:13:6b:27:7c:7c:c4:d3:b7:90:9c:76:a4:e7:7d:c1:8e:06:
         c1:cf:80:86:60:00:82:3c:de:2c:ca:87:7d:25:8a:66:ef:7c:
         06:32:a4:d1:e1:d3:cc:72:80:6d:2d:ad:ce:ff:29:3e:04:c7:
         87:ea:04:82:da:c3:1e:2d:4a:68:af:f9:56:4b:b0:b9:6d:b5:
         a4:4d:3b:2b:7b:1f:75:e7:df:ab:63:07:8e:81:81:b3:52:6c:
         ac:02:9d:97:68:1c:87:de:32:2a:9f:e3:6e:6c:a4:5f:0b:7e:
         04:40:d4:01:c1:f5:c2:4f:77:57:73:84:76:89:d3:c0:4d:2f:
         8e:ba:41:20
-----BEGIN CERTIFICATE-----
MIIDyDCCArCgAwIBAgIBJjANBgkqhkiG9w0BAQsFADBxMQswCQYDVQQGEwJVUzET
MBEGA1UECAwKQ2FsaWZvcm5pYTEUMBIGA1UEBwwLU2FudGEgQ2xhcmExDTALBgNV
BAoMBHBrZzUxEDAOBgNVBAMMB2NoMV90YTQxFjAUBgkqhkiG9w0BCQEWB2NoMV90
YTQwHhcNMTgwNzAzMTQxNDAzWhcNMjEwMzI5MTQxNDAzWjB5MQswCQYDVQQGEwJV
UzETMBEGA1UECAwKQ2FsaWZvcm5pYTEUMBIGA1UEBwwLU2FudGEgQ2xhcmExDTAL
BgNVBAoMBHBrZzUxFDASBgNVBAMMC2NzM19jaDFfdGE0MRowGAYJKoZIhvcNAQkB
FgtjczNfY2gxX3RhNDCBnzANBgkqhkiG9w0BAQEFAAOBjQAwgYkCgYEAt6ZeFanG
jAnjSyuwYbeXJr/ylaa3XSyJUs9f6EbcZ33bF8gujdtl31/Qugl8WkSFkCBsjA3p
JasvrcaRpogz2tUiFeAR1FRMkppzdXtBvQxoHJbb61umvEn3urDAQ3d56KRKcDld
tf/JscKpWehFrFZjwf2rsQmnonHJiCyEUIUCAwEAAaOB5jCB4zAdBgNVHQ4EFgQU
UtcfPlSNkulwmUpwHLmHmslfAa4wgZMGA1UdIwSBizCBiIAUr1ESiMILANKrEm4b
OaY/YxORli2hbaRrMGkxCzAJBgNVBAYTAlVTMRMwEQYDVQQIDApDYWxpZm9ybmlh
MRQwEgYDVQQHDAtTYW50YSBDbGFyYTENMAsGA1UECgwEcGtnNTEMMAoGA1UEAwwD
dGE0MRIwEAYJKoZIhvcNAQkBFgN0YTSCASMwDAYDVR0TAQH/BAIwADAeBgNVHR8E
FzAVMBOgEaAPhg1mb286Ly9iYXIvYmF6MA0GCSqGSIb3DQEBCwUAA4IBAQAk2ICK
ELwlQHEVNW7P9Csdwa9nb9zstEacdSMjfF47dT8aMd5j/XzyHD8iMiPVKp31xeM6
H4p7zLnTMoyuYDUlKQdDw6yJzdbnr0gac1oSpW8Xsivh5Zjj2D8LxTiQ7WgMd3Y/
5JT7Hh3pATZL2gLuoIT2MlfXULh9op/QpU+JE2snfHzE07eQnHak533BjgbBz4CG
YACCPN4syod9JYpm73wGMqTR4dPMcoBtLa3O/yk+BMeH6gSC2sMeLUpor/lWS7C5
bbWkTTsrex9159+rYweOgYGzUmysAp2XaByH3jIqn+NubKRfC34EQNQBwfXCT3dX
c4R2idPATS+OukEg
-----END CERTIFICATE-----
