Certificate:
    Data:
        Version: 3 (0x2)
        Serial Number: 40 (0x28)
    Signature Algorithm: sha256WithRSAEncryption
        Issuer: C=US, ST=California, L=Santa Clara, O=pkg5, CN=ch1.1_ta4/emailAddress=ch1.1_ta4
        Validity
            Not Before: Jul  3 14:14:03 2018 GMT
            Not After : Mar 29 14:14:03 2021 GMT
        Subject: C=US, ST=California, L=Santa Clara, O=pkg5, CN=cs1_ch1.1_ta4/emailAddress=cs1_ch1.1_ta4
        Subject Public Key Info:
            Public Key Algorithm: rsaEncryption
                Public-Key: (1024 bit)
                Modulus:
                    00:cc:43:43:61:48:4a:fc:5a:8f:39:71:a8:3c:3f:
                    50:f2:b5:b2:ee:6a:dc:81:6f:b3:0c:16:a5:7a:cd:
                    a5:53:7c:ac:8c:43:dd:ea:5c:2e:d8:bb:ee:88:80:
                    3f:99:d8:89:15:16:21:df:df:70:94:7b:69:fa:e7:
                    44:e9:c6:fd:8a:6c:e1:c0:ba:20:86:52:4f:0e:62:
                    e7:91:26:ea:de:86:10:7c:09:8c:ac:1f:89:e4:eb:
                    79:fb:5a:f0:d8:9a:38:8a:0b:56:ef:72:d7:62:6c:
                    f9:4c:42:d1:b0:12:ea:01:6f:3b:67:9b:92:55:77:
                    85:eb:ff:69:ca:b1:e4:e0:3f
                Exponent: 65537 (0x10001)
        X509v3 extensions:
            X509v3 Basic Constraints: critical
                CA:FALSE
            X509v3 CRL Distribution Points: 

                Full Name:
                  URI:http://localhost:12001/file/0/ch1.1_ta4_crl.pem

    Signature Algorithm: sha256WithRSAEncryption
         6f:91:9c:a1:7a:bd:eb:79:97:12:60:58:a9:9b:bd:cf:a8:14:
         4a:ec:f5:51:d6:90:14:cf:49:ce:b8:1b:7d:7e:23:53:3b:1e:
         e5:0c:29:35:6f:ea:51:66:4d:b0:0b:20:62:26:b9:07:ea:1a:
         2a:89:ec:34:df:c4:a0:f2:99:a4:14:e3:25:84:20:48:c6:4e:
         c6:3c:23:cd:b8:3b:68:11:02:aa:82:c3:93:e1:aa:7c:24:b4:
         06:9c:6f:c4:8a:f5:e2:c4:41:94:3f:71:a7:71:17:97:b8:75:
         a8:41:0b:cd:3c:c4:a9:68:32:3b:a5:78:9f:74:c7:d1:f8:44:
         e8:29:36:21:53:87:13:54:f6:23:f6:17:a9:92:d7:aa:f1:52:
         cc:ee:57:18:d1:b7:7f:0d:aa:e5:16:42:14:ff:c0:07:32:75:
         c7:58:46:23:7b:97:5d:c0:37:71:02:9f:69:f3:d0:76:a6:5c:
         d0:aa:dd:59:44:b8:9d:ee:05:e3:ec:bf:b9:0c:52:67:a5:53:
         93:44:1c:d3:e2:d9:90:f4:90:f6:af:ee:37:60:98:db:ed:5b:
         53:0c:fb:c1:7f:b7:fd:02:ac:59:85:10:2f:54:af:93:a3:d3:
         12:84:d1:d2:b3:dc:bc:af:09:e7:d5:df:18:da:13:2a:8a:34:
         53:5b:ef:c6
-----BEGIN CERTIFICATE-----
MIIDOzCCAiOgAwIBAgIBKDANBgkqhkiG9w0BAQsFADB1MQswCQYDVQQGEwJVUzET
MBEGA1UECAwKQ2FsaWZvcm5pYTEUMBIGA1UEBwwLU2FudGEgQ2xhcmExDTALBgNV
BAoMBHBrZzUxEjAQBgNVBAMMCWNoMS4xX3RhNDEYMBYGCSqGSIb3DQEJARYJY2gx
LjFfdGE0MB4XDTE4MDcwMzE0MTQwM1oXDTIxMDMyOTE0MTQwM1owfTELMAkGA1UE
BhMCVVMxEzARBgNVBAgMCkNhbGlmb3JuaWExFDASBgNVBAcMC1NhbnRhIENsYXJh
MQ0wCwYDVQQKDARwa2c1MRYwFAYDVQQDDA1jczFfY2gxLjFfdGE0MRwwGgYJKoZI
hvcNAQkBFg1jczFfY2gxLjFfdGE0MIGfMA0GCSqGSIb3DQEBAQUAA4GNADCBiQKB
gQDMQ0NhSEr8Wo85cag8P1DytbLuatyBb7MMFqV6zaVTfKyMQ93qXC7Yu+6IgD+Z
2IkVFiHf33CUe2n650Tpxv2KbOHAuiCGUk8OYueRJurehhB8CYysH4nk63n7WvDY
mjiKC1bvctdibPlMQtGwEuoBbztnm5JVd4Xr/2nKseTgPwIDAQABo1IwUDAMBgNV
HRMBAf8EAjAAMEAGA1UdHwQ5MDcwNaAzoDGGL2h0dHA6Ly9sb2NhbGhvc3Q6MTIw
MDEvZmlsZS8wL2NoMS4xX3RhNF9jcmwucGVtMA0GCSqGSIb3DQEBCwUAA4IBAQBv
kZyher3reZcSYFipm73PqBRK7PVR1pAUz0nOuBt9fiNTOx7lDCk1b+pRZk2wCyBi
JrkH6hoqiew038Sg8pmkFOMlhCBIxk7GPCPNuDtoEQKqgsOT4ap8JLQGnG/EivXi
xEGUP3GncReXuHWoQQvNPMSpaDI7pXifdMfR+EToKTYhU4cTVPYj9hepkteq8VLM
7lcY0bd/DarlFkIU/8AHMnXHWEYje5ddwDdxAp9p89B2plzQqt1ZRLid7gXj7L+5
DFJnpVOTRBzT4tmQ9JD2r+43YJjb7VtTDPvBf7f9AqxZhRAvVK+To9MShNHSs9y8
rwnn1d8Y2hMqijRTW+/G
-----END CERTIFICATE-----
