Certificate:
    Data:
        Version: 3 (0x2)
        Serial Number: 40 (0x28)
    Signature Algorithm: sha256WithRSAEncryption
        Issuer: C=US, ST=California, L=Santa Clara, O=pkg5, CN=ch1.1_ta4/emailAddress=ch1.1_ta4
        Validity
            Not Before: Nov 24 01:22:43 2021 GMT
            Not After : Aug 20 01:22:43 2024 GMT
        Subject: C=US, ST=California, L=Santa Clara, O=pkg5, CN=cs1_ch1.1_ta4/emailAddress=cs1_ch1.1_ta4
        Subject Public Key Info:
            Public Key Algorithm: rsaEncryption
                Public-Key: (1024 bit)
                Modulus:
                    00:da:ce:c7:d4:f0:e2:ac:88:9a:f5:65:11:38:68:
                    4b:7e:71:33:bf:54:96:1c:18:d8:ad:3d:35:e7:d9:
                    b3:b2:9c:4a:9d:32:7f:65:4b:6b:aa:8b:ce:40:ba:
                    f2:31:e5:40:4b:40:d5:29:98:20:8b:a0:e5:80:a7:
                    7f:e1:11:e6:be:b1:e2:5a:23:34:9b:56:7f:5f:3a:
                    97:d6:f8:f9:85:6a:26:04:ed:48:eb:b0:84:5a:fe:
                    0e:de:a6:db:50:96:51:06:19:32:ee:7f:ee:d9:ad:
                    61:74:f9:91:6e:72:f5:6e:26:7e:89:a7:d8:39:f4:
                    cb:77:39:51:39:79:e3:98:33
                Exponent: 65537 (0x10001)
        X509v3 extensions:
            X509v3 Basic Constraints: critical
                CA:FALSE
            X509v3 CRL Distribution Points: 

                Full Name:
                  URI:http://localhost:12001/file/0/ch1.1_ta4_crl.pem

    Signature Algorithm: sha256WithRSAEncryption
         96:db:7e:7f:03:fc:65:7c:2a:22:d2:73:d0:57:19:21:d5:46:
         dd:24:cd:3d:7b:d1:3c:ab:9d:e2:5d:75:06:41:62:aa:dc:06:
         7d:9e:b0:09:cf:4f:4a:ce:dc:fb:17:59:7a:a1:c4:36:78:e7:
         48:09:91:5a:5a:15:59:bf:2a:22:ce:35:29:97:48:99:fb:5b:
         b3:fb:b0:b5:32:9b:fa:30:7b:dc:3c:86:7e:71:12:9a:39:e9:
         d5:6c:e7:f6:07:88:f8:fc:80:70:90:9d:7b:99:4e:1a:23:4c:
         c1:3e:7d:d3:8d:0a:89:a4:27:6f:37:5d:ae:f2:01:48:9b:0e:
         b8:5f:79:6d:fb:b8:85:5a:aa:05:5c:de:48:78:33:77:ed:8d:
         4a:41:26:78:86:71:26:ec:c8:03:03:39:d4:5e:82:fd:e0:48:
         0c:67:94:50:a0:29:65:43:d2:4f:e7:8e:e0:83:91:80:ee:0e:
         71:5a:64:44:2f:9c:3d:21:58:ea:4f:1b:3e:81:84:37:b0:8b:
         4a:bd:34:7b:6c:65:d4:fc:77:b8:f7:42:96:6a:1b:df:63:9e:
         6f:1c:25:8a:32:40:c7:e4:41:19:c5:71:05:25:ca:68:bd:e0:
         36:45:c8:68:66:f0:e2:58:31:24:0f:fa:10:45:59:fb:82:f8:
         3b:7f:24:55
-----BEGIN CERTIFICATE-----
MIIDOzCCAiOgAwIBAgIBKDANBgkqhkiG9w0BAQsFADB1MQswCQYDVQQGEwJVUzET
MBEGA1UECAwKQ2FsaWZvcm5pYTEUMBIGA1UEBwwLU2FudGEgQ2xhcmExDTALBgNV
BAoMBHBrZzUxEjAQBgNVBAMMCWNoMS4xX3RhNDEYMBYGCSqGSIb3DQEJARYJY2gx
LjFfdGE0MB4XDTIxMTEyNDAxMjI0M1oXDTI0MDgyMDAxMjI0M1owfTELMAkGA1UE
BhMCVVMxEzARBgNVBAgMCkNhbGlmb3JuaWExFDASBgNVBAcMC1NhbnRhIENsYXJh
MQ0wCwYDVQQKDARwa2c1MRYwFAYDVQQDDA1jczFfY2gxLjFfdGE0MRwwGgYJKoZI
hvcNAQkBFg1jczFfY2gxLjFfdGE0MIGfMA0GCSqGSIb3DQEBAQUAA4GNADCBiQKB
gQDazsfU8OKsiJr1ZRE4aEt+cTO/VJYcGNitPTXn2bOynEqdMn9lS2uqi85AuvIx
5UBLQNUpmCCLoOWAp3/hEea+seJaIzSbVn9fOpfW+PmFaiYE7UjrsIRa/g7epttQ
llEGGTLuf+7ZrWF0+ZFucvVuJn6Jp9g59Mt3OVE5eeOYMwIDAQABo1IwUDAMBgNV
HRMBAf8EAjAAMEAGA1UdHwQ5MDcwNaAzoDGGL2h0dHA6Ly9sb2NhbGhvc3Q6MTIw
MDEvZmlsZS8wL2NoMS4xX3RhNF9jcmwucGVtMA0GCSqGSIb3DQEBCwUAA4IBAQCW
235/A/xlfCoi0nPQVxkh1UbdJM09e9E8q53iXXUGQWKq3AZ9nrAJz09Kztz7F1l6
ocQ2eOdICZFaWhVZvyoizjUpl0iZ+1uz+7C1Mpv6MHvcPIZ+cRKaOenVbOf2B4j4
/IBwkJ17mU4aI0zBPn3TjQqJpCdvN12u8gFImw64X3lt+7iFWqoFXN5IeDN37Y1K
QSZ4hnEm7MgDAznUXoL94EgMZ5RQoCllQ9JP547gg5GA7g5xWmREL5w9IVjqTxs+
gYQ3sItKvTR7bGXU/He490KWahvfY55vHCWKMkDH5EEZxXEFJcpoveA2RchoZvDi
WDEkD/oQRVn7gvg7fyRV
-----END CERTIFICATE-----
