Certificate:
    Data:
        Version: 3 (0x2)
        Serial Number: 42 (0x2a)
    Signature Algorithm: sha256WithRSAEncryption
        Issuer: C=US, ST=California, L=Santa Clara, O=pkg5, CN=ch1_ta5/emailAddress=ch1_ta5
        Validity
            Not Before: Jul  3 14:14:04 2018 GMT
            Not After : Mar 29 14:14:04 2021 GMT
        Subject: C=US, ST=California, L=Santa Clara, O=pkg5, CN=cs1_ch1_ta5/emailAddress=cs1_ch1_ta5
        Subject Public Key Info:
            Public Key Algorithm: rsaEncryption
                Public-Key: (1024 bit)
                Modulus:
                    00:b9:cc:0b:86:25:fd:88:de:c1:bf:6c:5b:fc:6e:
                    d7:84:0e:2c:7e:07:79:30:c0:b6:a9:c9:34:a2:20:
                    49:08:15:a5:9f:2c:38:73:84:18:00:b8:04:98:73:
                    11:4f:23:07:ef:a4:56:9b:6b:1e:e5:a4:04:d7:e4:
                    6d:78:53:7f:9a:77:e8:22:6e:f4:80:05:ea:7c:99:
                    be:e9:47:6a:02:3c:0a:c5:4b:f0:e4:aa:87:f3:b1:
                    2d:0e:6f:12:e1:d0:b7:af:4a:83:6c:c7:d0:57:ca:
                    12:ce:09:ab:64:1f:7c:27:ab:38:ad:79:3c:74:99:
                    c2:a9:fc:62:4c:78:cc:3b:2f
                Exponent: 65537 (0x10001)
        X509v3 extensions:
            X509v3 Basic Constraints: critical
                CA:FALSE
            X509v3 Key Usage: critical
                Digital Signature
    Signature Algorithm: sha256WithRSAEncryption
         25:63:bb:55:68:d7:bc:da:1c:6f:02:66:20:e7:02:b1:04:74:
         9a:b8:b0:e4:18:4d:a3:97:d3:16:be:4c:5c:15:a1:e6:66:f1:
         2f:31:b8:b5:ae:2a:c6:1e:dc:e1:b6:7e:3e:68:ba:17:93:d2:
         4a:19:ef:1f:7e:b1:b5:dc:37:ce:26:ba:bc:d1:f9:56:f8:df:
         2e:52:91:31:56:18:7f:3f:ac:9c:5f:32:52:39:c1:80:e4:a5:
         f6:28:61:50:98:aa:13:81:65:b2:d5:91:df:47:15:cf:0d:75:
         40:fc:3f:c9:02:ba:6f:be:02:85:67:05:b5:c4:e2:77:3c:1f:
         91:27:bb:2c:15:be:cb:5f:ac:15:7d:d7:90:88:21:9c:40:35:
         3f:d4:1e:4a:91:47:70:41:7d:57:0b:d4:88:80:35:8b:53:85:
         cf:3b:a5:5b:ac:50:4d:38:de:d1:d0:4c:a5:ab:a7:38:dd:8d:
         a2:61:35:50:93:45:2b:ba:0c:c6:a0:d1:b8:e6:e6:f3:44:33:
         d8:70:cb:83:82:97:ae:12:73:dd:c8:9e:1b:25:dc:cb:75:47:
         d0:8c:76:9f:6e:fb:d2:4f:35:29:8a:ff:ac:98:94:d8:83:84:
         de:9e:c3:34:ee:26:a3:5e:0a:48:20:c4:65:39:0a:04:25:58:
         0d:d9:34:ce
-----BEGIN CERTIFICATE-----
MIIDATCCAemgAwIBAgIBKjANBgkqhkiG9w0BAQsFADBxMQswCQYDVQQGEwJVUzET
MBEGA1UECAwKQ2FsaWZvcm5pYTEUMBIGA1UEBwwLU2FudGEgQ2xhcmExDTALBgNV
BAoMBHBrZzUxEDAOBgNVBAMMB2NoMV90YTUxFjAUBgkqhkiG9w0BCQEWB2NoMV90
YTUwHhcNMTgwNzAzMTQxNDA0WhcNMjEwMzI5MTQxNDA0WjB5MQswCQYDVQQGEwJV
UzETMBEGA1UECAwKQ2FsaWZvcm5pYTEUMBIGA1UEBwwLU2FudGEgQ2xhcmExDTAL
BgNVBAoMBHBrZzUxFDASBgNVBAMMC2NzMV9jaDFfdGE1MRowGAYJKoZIhvcNAQkB
FgtjczFfY2gxX3RhNTCBnzANBgkqhkiG9w0BAQEFAAOBjQAwgYkCgYEAucwLhiX9
iN7Bv2xb/G7XhA4sfgd5MMC2qck0oiBJCBWlnyw4c4QYALgEmHMRTyMH76RWm2se
5aQE1+RteFN/mnfoIm70gAXqfJm+6UdqAjwKxUvw5KqH87EtDm8S4dC3r0qDbMfQ
V8oSzgmrZB98J6s4rXk8dJnCqfxiTHjMOy8CAwEAAaMgMB4wDAYDVR0TAQH/BAIw
ADAOBgNVHQ8BAf8EBAMCB4AwDQYJKoZIhvcNAQELBQADggEBACVju1Vo17zaHG8C
ZiDnArEEdJq4sOQYTaOX0xa+TFwVoeZm8S8xuLWuKsYe3OG2fj5ouheT0koZ7x9+
sbXcN84murzR+Vb43y5SkTFWGH8/rJxfMlI5wYDkpfYoYVCYqhOBZbLVkd9HFc8N
dUD8P8kCum++AoVnBbXE4nc8H5EnuywVvstfrBV915CIIZxANT/UHkqRR3BBfVcL
1IiANYtThc87pVusUE043tHQTKWrpzjdjaJhNVCTRSu6DMag0bjm5vNEM9hwy4OC
l64Sc93Inhsl3Mt1R9CMdp9u+9JPNSmK/6yYlNiDhN6ewzTuJqNeCkggxGU5CgQl
WA3ZNM4=
-----END CERTIFICATE-----
