Certificate:
    Data:
        Version: 3 (0x2)
        Serial Number: 44 (0x2c)
    Signature Algorithm: sha256WithRSAEncryption
        Issuer: C=US, ST=California, L=Santa Clara, O=pkg5, OU=ta8, CN=localhost/emailAddress=ta8
        Validity
            Not Before: Nov 11 12:38:34 2017 GMT
            Not After : Aug  7 12:38:34 2020 GMT
        Subject: C=US, ST=California, L=Santa Clara, O=pkg5, OU=cs1_ta8, CN=localhost/emailAddress=cs1_ta8
        Subject Public Key Info:
            Public Key Algorithm: rsaEncryption
                Public-Key: (1024 bit)
                Modulus:
                    00:ba:a6:4a:ea:f6:3a:01:be:bf:7e:d1:db:d7:22:
                    33:66:27:9c:5c:49:35:65:a9:77:32:a5:75:cd:96:
                    01:9c:ab:8e:9b:16:32:7e:71:c1:b9:9b:29:d8:96:
                    f9:2f:86:d9:55:db:46:2c:d2:4d:90:f9:10:f5:78:
                    25:f2:ad:ad:50:03:09:40:df:ea:12:c5:fb:23:63:
                    64:a6:bd:df:9f:72:2d:95:94:60:71:72:10:08:10:
                    86:a0:a6:23:ea:30:77:77:a8:ea:52:7f:1d:ef:f3:
                    50:a8:46:d6:1e:89:73:f7:cf:11:e7:12:24:5c:d4:
                    97:d3:db:8c:e1:94:4a:ad:39
                Exponent: 65537 (0x10001)
        X509v3 extensions:
            X509v3 Basic Constraints: critical
                CA:FALSE
            X509v3 Key Usage: critical
                Digital Signature
    Signature Algorithm: sha256WithRSAEncryption
         b7:38:38:9a:f6:1e:19:45:41:50:c5:c9:fe:72:8d:4b:f1:97:
         e3:14:9d:78:ef:a4:87:11:20:cf:65:60:de:24:f8:e4:73:b1:
         c7:4d:b0:34:9e:3e:a1:f0:87:e2:bd:0f:3d:53:24:0a:a3:59:
         43:03:c3:c6:f7:42:56:fd:df:ca:be:ef:94:0b:da:f5:bb:73:
         ae:7f:7d:b7:bf:08:97:2d:68:04:8c:ac:5d:92:af:cc:8a:6b:
         95:ce:7d:a1:9f:20:b0:12:c8:30:c4:d8:ee:5c:29:bb:e3:3b:
         33:76:6e:6f:bc:06:b2:b0:1c:29:25:4e:01:a5:d5:e7:1f:a1:
         aa:6d:32:e0:ae:52:8e:f5:d6:fa:46:da:22:a8:bb:8b:23:5c:
         ac:96:20:c3:51:cb:35:b3:87:f9:63:7f:12:6e:a5:5b:3e:5e:
         5e:f2:61:90:7c:e4:a8:18:2c:12:14:49:69:cd:0e:74:08:c8:
         43:2c:41:06:d7:93:70:71:2e:83:14:78:c7:45:af:10:a6:9e:
         ba:39:08:4a:ab:8f:2d:db:28:c6:ec:8b:4a:17:16:90:91:39:
         a3:73:37:48:80:bb:46:d3:8f:8a:5a:d0:73:09:3d:8c:55:38:
         25:b9:62:83:9a:ce:54:32:7a:47:41:66:83:ed:48:4d:d5:8f:
         8c:df:cd:65
-----BEGIN CERTIFICATE-----
MIIDGjCCAgKgAwIBAgIBLDANBgkqhkiG9w0BAQsFADB9MQswCQYDVQQGEwJVUzET
MBEGA1UECAwKQ2FsaWZvcm5pYTEUMBIGA1UEBwwLU2FudGEgQ2xhcmExDTALBgNV
BAoMBHBrZzUxDDAKBgNVBAsMA3RhODESMBAGA1UEAwwJbG9jYWxob3N0MRIwEAYJ
KoZIhvcNAQkBFgN0YTgwHhcNMTcxMTExMTIzODM0WhcNMjAwODA3MTIzODM0WjCB
hTELMAkGA1UEBhMCVVMxEzARBgNVBAgMCkNhbGlmb3JuaWExFDASBgNVBAcMC1Nh
bnRhIENsYXJhMQ0wCwYDVQQKDARwa2c1MRAwDgYDVQQLDAdjczFfdGE4MRIwEAYD
VQQDDAlsb2NhbGhvc3QxFjAUBgkqhkiG9w0BCQEWB2NzMV90YTgwgZ8wDQYJKoZI
hvcNAQEBBQADgY0AMIGJAoGBALqmSur2OgG+v37R29ciM2YnnFxJNWWpdzKldc2W
AZyrjpsWMn5xwbmbKdiW+S+G2VXbRizSTZD5EPV4JfKtrVADCUDf6hLF+yNjZKa9
359yLZWUYHFyEAgQhqCmI+owd3eo6lJ/He/zUKhG1h6Jc/fPEecSJFzUl9PbjOGU
Sq05AgMBAAGjIDAeMAwGA1UdEwEB/wQCMAAwDgYDVR0PAQH/BAQDAgeAMA0GCSqG
SIb3DQEBCwUAA4IBAQC3ODia9h4ZRUFQxcn+co1L8ZfjFJ1476SHESDPZWDeJPjk
c7HHTbA0nj6h8IfivQ89UyQKo1lDA8PG90JW/d/Kvu+UC9r1u3Ouf323vwiXLWgE
jKxdkq/MimuVzn2hnyCwEsgwxNjuXCm74zszdm5vvAaysBwpJU4BpdXnH6GqbTLg
rlKO9db6RtoiqLuLI1ysliDDUcs1s4f5Y38SbqVbPl5e8mGQfOSoGCwSFElpzQ50
CMhDLEEG15NwcS6DFHjHRa8Qpp66OQhKq48t2yjG7ItKFxaQkTmjczdIgLtG04+K
WtBzCT2MVTgluWKDms5UMnpHQWaD7UhN1Y+M381l
-----END CERTIFICATE-----
