Certificate:
    Data:
        Version: 3 (0x2)
        Serial Number: 45 (0x2d)
    Signature Algorithm: sha256WithRSAEncryption
        Issuer: C=US, ST=California, L=Santa Clara, O=pkg5, OU=ta8, CN=localhost/emailAddress=ta8
        Validity
            Not Before: Jul  3 14:14:05 2018 GMT
            Not After : Mar 29 14:14:05 2021 GMT
        Subject: C=US, ST=California, L=Santa Clara, O=pkg5, OU=cs1_ta8, CN=localhost/emailAddress=cs1_ta8
        Subject Public Key Info:
            Public Key Algorithm: rsaEncryption
                Public-Key: (1024 bit)
                Modulus:
                    00:dc:18:0c:3c:d0:dd:6a:4a:7a:8e:0b:1e:9c:18:
                    db:f7:1d:b4:3b:51:fd:18:51:e5:dc:c7:53:ae:e2:
                    42:84:95:ef:7b:93:1f:b2:a4:e8:3f:a6:4e:2f:47:
                    a5:c6:1d:6b:87:78:0b:6d:bc:d2:5c:3e:1e:a2:d1:
                    5e:25:26:c6:e0:e3:c7:17:3c:38:de:8c:d6:0d:d5:
                    e8:70:8c:1e:e1:69:c1:a9:53:5f:67:31:a1:3d:fc:
                    89:5f:0a:b4:56:e6:b5:96:32:06:e7:27:27:94:98:
                    89:3a:aa:db:88:7a:db:60:49:83:d6:99:e6:6f:73:
                    45:76:b0:02:a4:cd:a3:bb:11
                Exponent: 65537 (0x10001)
        X509v3 extensions:
            X509v3 Basic Constraints: critical
                CA:FALSE
            X509v3 Key Usage: critical
                Digital Signature
    Signature Algorithm: sha256WithRSAEncryption
         56:17:56:8e:2d:44:16:2b:9e:3b:ef:33:16:fc:df:18:09:c6:
         a0:9c:23:01:96:5b:c8:67:8e:05:11:83:e4:ba:ed:8a:30:36:
         9f:eb:27:14:fd:f9:0e:c6:3f:9d:14:69:fe:33:3f:ed:1f:fa:
         7c:33:28:94:e8:8f:5b:08:e9:b8:04:3e:7f:38:ac:ab:13:1a:
         fd:c2:7f:3d:fc:43:51:c4:b3:47:97:85:4c:cc:8c:4d:44:06:
         a5:42:62:0c:b6:a8:0d:8a:ae:4f:08:9a:ab:9e:91:fb:d6:a3:
         65:10:67:3b:8f:61:dd:99:c3:04:1d:c1:6d:df:1a:6c:b5:9f:
         bf:54:41:c1:b6:25:57:6f:c0:85:3f:83:1d:a8:d4:dc:98:70:
         b5:af:3f:3a:c2:c0:e7:26:2f:0a:fd:eb:0c:b4:0b:62:6d:7e:
         df:ca:1b:ec:5a:60:51:93:73:5a:1a:37:6f:71:af:cf:01:f7:
         64:4a:f8:2a:e1:72:8d:83:9e:10:0f:4f:e9:c4:53:40:df:13:
         29:1a:9f:a1:40:4b:95:5e:5a:82:1f:ad:e7:d1:8e:e3:7a:4a:
         47:ee:cf:e3:75:56:37:4f:6f:d0:38:b2:8c:8b:d5:f4:e2:53:
         0a:96:4d:3a:94:1b:24:8e:19:3b:5d:99:3f:d0:11:b3:6e:2d:
         dc:6b:d5:a6
-----BEGIN CERTIFICATE-----
MIIDGjCCAgKgAwIBAgIBLTANBgkqhkiG9w0BAQsFADB9MQswCQYDVQQGEwJVUzET
MBEGA1UECAwKQ2FsaWZvcm5pYTEUMBIGA1UEBwwLU2FudGEgQ2xhcmExDTALBgNV
BAoMBHBrZzUxDDAKBgNVBAsMA3RhODESMBAGA1UEAwwJbG9jYWxob3N0MRIwEAYJ
KoZIhvcNAQkBFgN0YTgwHhcNMTgwNzAzMTQxNDA1WhcNMjEwMzI5MTQxNDA1WjCB
hTELMAkGA1UEBhMCVVMxEzARBgNVBAgMCkNhbGlmb3JuaWExFDASBgNVBAcMC1Nh
bnRhIENsYXJhMQ0wCwYDVQQKDARwa2c1MRAwDgYDVQQLDAdjczFfdGE4MRIwEAYD
VQQDDAlsb2NhbGhvc3QxFjAUBgkqhkiG9w0BCQEWB2NzMV90YTgwgZ8wDQYJKoZI
hvcNAQEBBQADgY0AMIGJAoGBANwYDDzQ3WpKeo4LHpwY2/cdtDtR/RhR5dzHU67i
QoSV73uTH7Kk6D+mTi9HpcYda4d4C2280lw+HqLRXiUmxuDjxxc8ON6M1g3V6HCM
HuFpwalTX2cxoT38iV8KtFbmtZYyBucnJ5SYiTqq24h622BJg9aZ5m9zRXawAqTN
o7sRAgMBAAGjIDAeMAwGA1UdEwEB/wQCMAAwDgYDVR0PAQH/BAQDAgeAMA0GCSqG
SIb3DQEBCwUAA4IBAQBWF1aOLUQWK5477zMW/N8YCcagnCMBllvIZ44FEYPkuu2K
MDaf6ycU/fkOxj+dFGn+Mz/tH/p8MyiU6I9bCOm4BD5/OKyrExr9wn89/ENRxLNH
l4VMzIxNRAalQmIMtqgNiq5PCJqrnpH71qNlEGc7j2HdmcMEHcFt3xpstZ+/VEHB
tiVXb8CFP4MdqNTcmHC1rz86wsDnJi8K/esMtAtibX7fyhvsWmBRk3NaGjdvca/P
AfdkSvgq4XKNg54QD0/pxFNA3xMpGp+hQEuVXlqCH63n0Y7jekpH7s/jdVY3T2/Q
OLKMi9X04lMKlk06lBskjhk7XZk/0BGzbi3ca9Wm
-----END CERTIFICATE-----
