Certificate:
    Data:
        Version: 3 (0x2)
        Serial Number: 45 (0x2d)
    Signature Algorithm: sha256WithRSAEncryption
        Issuer: C=US, ST=California, L=Santa Clara, O=pkg5, OU=ta8, CN=localhost/emailAddress=ta8
        Validity
            Not Before: Nov 24 01:22:44 2021 GMT
            Not After : Aug 20 01:22:44 2024 GMT
        Subject: C=US, ST=California, L=Santa Clara, O=pkg5, OU=cs1_ta8, CN=localhost/emailAddress=cs1_ta8
        Subject Public Key Info:
            Public Key Algorithm: rsaEncryption
                Public-Key: (1024 bit)
                Modulus:
                    00:c1:d7:1a:72:49:c8:8e:1f:9d:58:48:3e:3e:2e:
                    43:5d:ae:ca:42:d3:9b:b8:cd:00:68:e4:69:c6:77:
                    8a:61:fe:2a:14:02:a6:d8:87:cb:ae:a9:9a:a2:a7:
                    07:9c:52:10:6b:3c:c1:ff:20:1a:80:be:7c:20:5e:
                    08:e4:c7:31:54:09:01:8e:5f:61:e2:c7:d0:9f:a0:
                    50:52:66:d3:dd:1f:42:ee:8c:a9:f1:19:0a:1a:ce:
                    c7:2d:24:c8:5b:09:84:51:62:cd:4d:88:4c:bd:09:
                    11:ac:91:75:35:7e:5d:24:52:f8:0f:21:db:f8:72:
                    9f:1d:8c:07:6b:48:dd:0e:07
                Exponent: 65537 (0x10001)
        X509v3 extensions:
            X509v3 Basic Constraints: critical
                CA:FALSE
            X509v3 Key Usage: critical
                Digital Signature
    Signature Algorithm: sha256WithRSAEncryption
         55:59:6e:e2:0c:c7:02:81:c2:df:c3:39:bd:1a:ed:3b:01:a8:
         e3:00:de:21:a7:55:ba:41:09:1b:e4:7d:36:22:f6:5b:04:a4:
         94:4c:89:63:d3:10:c2:78:97:bb:6e:41:d1:ff:34:b0:4f:ca:
         b2:cd:19:27:a8:74:bf:12:e1:25:63:29:21:7b:53:27:b9:d0:
         b2:8e:e3:71:26:53:aa:32:11:cc:88:06:3d:2b:be:6d:7c:7d:
         00:61:b6:3d:01:7d:cf:b8:d2:5a:5a:95:9d:9f:9a:ec:b3:43:
         38:97:b8:51:0a:ef:83:fb:4d:30:af:ca:72:aa:2d:58:1d:29:
         9a:80:4a:64:3f:cf:99:24:78:51:e2:20:16:20:c5:5c:27:ae:
         a5:32:aa:e8:06:c7:4e:01:5e:fa:e9:72:20:bb:05:ed:db:10:
         8c:27:e0:b3:55:95:fb:79:2b:a2:c4:2b:74:9b:09:9e:4e:a8:
         ba:86:e8:aa:13:be:d8:0f:30:17:5d:5e:1d:1c:86:51:30:3f:
         27:05:3b:7f:46:89:91:0f:df:4a:5c:25:cb:45:58:18:1c:ca:
         b8:ee:35:6b:bd:04:71:3a:ce:27:7d:82:2b:55:36:d2:29:32:
         13:1b:aa:f9:ba:b1:d0:bf:ac:86:9b:da:82:68:d6:a9:12:09:
         43:33:ad:de
-----BEGIN CERTIFICATE-----
MIIDGjCCAgKgAwIBAgIBLTANBgkqhkiG9w0BAQsFADB9MQswCQYDVQQGEwJVUzET
MBEGA1UECAwKQ2FsaWZvcm5pYTEUMBIGA1UEBwwLU2FudGEgQ2xhcmExDTALBgNV
BAoMBHBrZzUxDDAKBgNVBAsMA3RhODESMBAGA1UEAwwJbG9jYWxob3N0MRIwEAYJ
KoZIhvcNAQkBFgN0YTgwHhcNMjExMTI0MDEyMjQ0WhcNMjQwODIwMDEyMjQ0WjCB
hTELMAkGA1UEBhMCVVMxEzARBgNVBAgMCkNhbGlmb3JuaWExFDASBgNVBAcMC1Nh
bnRhIENsYXJhMQ0wCwYDVQQKDARwa2c1MRAwDgYDVQQLDAdjczFfdGE4MRIwEAYD
VQQDDAlsb2NhbGhvc3QxFjAUBgkqhkiG9w0BCQEWB2NzMV90YTgwgZ8wDQYJKoZI
hvcNAQEBBQADgY0AMIGJAoGBAMHXGnJJyI4fnVhIPj4uQ12uykLTm7jNAGjkacZ3
imH+KhQCptiHy66pmqKnB5xSEGs8wf8gGoC+fCBeCOTHMVQJAY5fYeLH0J+gUFJm
090fQu6MqfEZChrOxy0kyFsJhFFizU2ITL0JEayRdTV+XSRS+A8h2/hynx2MB2tI
3Q4HAgMBAAGjIDAeMAwGA1UdEwEB/wQCMAAwDgYDVR0PAQH/BAQDAgeAMA0GCSqG
SIb3DQEBCwUAA4IBAQBVWW7iDMcCgcLfwzm9Gu07AajjAN4hp1W6QQkb5H02IvZb
BKSUTIlj0xDCeJe7bkHR/zSwT8qyzRknqHS/EuElYykhe1MnudCyjuNxJlOqMhHM
iAY9K75tfH0AYbY9AX3PuNJaWpWdn5rss0M4l7hRCu+D+00wr8pyqi1YHSmagEpk
P8+ZJHhR4iAWIMVcJ66lMqroBsdOAV766XIguwXt2xCMJ+CzVZX7eSuixCt0mwme
Tqi6huiqE77YDzAXXV4dHIZRMD8nBTt/RomRD99KXCXLRVgYHMq47jVrvQRxOs4n
fYIrVTbSKTITG6r5urHQv6yGm9qCaNapEglDM63e
-----END CERTIFICATE-----
