Certificate:
    Data:
        Version: 3 (0x2)
        Serial Number: 45 (0x2d)
    Signature Algorithm: sha256WithRSAEncryption
        Issuer: C=US, ST=California, L=Santa Clara, O=pkg5, OU=ta9, CN=localhost/emailAddress=ta9
        Validity
            Not Before: Nov 11 12:38:34 2017 GMT
            Not After : Aug  7 12:38:34 2020 GMT
        Subject: C=US, ST=California, L=Santa Clara, O=pkg5, OU=cs1_ta9, CN=localhost/emailAddress=cs1_ta9
        Subject Public Key Info:
            Public Key Algorithm: rsaEncryption
                Public-Key: (1024 bit)
                Modulus:
                    00:db:3c:01:74:86:97:75:2f:ee:a6:10:d8:bc:dc:
                    2e:0f:6f:74:b2:f9:82:55:dc:9c:e1:27:2f:36:1f:
                    cf:ea:ae:36:9b:4e:5e:dd:89:b6:04:e0:68:e7:a6:
                    56:1d:c7:5c:3b:71:c6:10:45:81:d0:36:0e:9e:b0:
                    b2:5c:65:42:ca:8b:7a:3a:16:06:97:e4:87:96:20:
                    54:12:da:f9:22:c1:f1:e0:3f:14:da:5a:71:15:f0:
                    34:96:fc:9e:5b:82:d6:f1:7d:29:4f:09:7d:e3:77:
                    8a:e9:ce:b8:f1:82:ef:7b:69:94:2a:63:7c:83:41:
                    10:04:e3:c7:b0:6c:9e:5e:fb
                Exponent: 65537 (0x10001)
        X509v3 extensions:
            X509v3 Basic Constraints: critical
                CA:FALSE
            X509v3 Key Usage: critical
                Digital Signature
    Signature Algorithm: sha256WithRSAEncryption
         b1:1f:a5:b7:e9:8b:a0:2e:0f:d1:47:d1:a6:3d:e8:03:40:0a:
         8c:c5:d2:86:2f:96:c3:26:96:87:ce:58:96:64:b8:7d:fb:72:
         21:33:34:d4:f3:93:98:84:de:6f:6a:36:46:3e:bb:70:42:b6:
         d6:a4:6a:fc:da:01:a3:00:0a:bd:80:53:0b:09:75:2c:c5:22:
         86:92:71:5e:f4:b9:5c:c6:ad:1e:84:0c:f9:87:29:a9:14:6e:
         e7:9e:ae:b5:04:b8:b0:70:1f:fa:b7:30:06:ff:67:97:98:d4:
         66:0a:20:a9:80:36:a4:2a:59:c4:1f:d8:9e:ba:c1:a0:7c:5f:
         87:cf:6b:fb:44:24:94:5d:b1:d2:01:09:94:65:6a:50:a4:15:
         78:c6:32:6a:5a:97:a0:00:70:78:07:0e:1f:88:75:7c:d6:13:
         e6:71:fc:57:f1:c4:3e:8f:06:4a:c4:f4:4a:5a:19:f6:7d:bd:
         3d:cf:e8:6d:df:1c:2e:49:7a:4e:ab:9c:81:f3:50:cb:00:ef:
         45:22:84:6e:e0:1d:6e:14:73:c7:13:28:9a:c2:4d:41:68:cd:
         43:02:30:14:78:80:7b:6b:35:b6:0e:b9:8d:aa:40:49:76:8a:
         c9:61:06:fb:49:10:ea:07:26:29:d4:fe:35:f0:ba:8b:5a:95:
         ba:3e:16:79
-----BEGIN CERTIFICATE-----
MIIDGjCCAgKgAwIBAgIBLTANBgkqhkiG9w0BAQsFADB9MQswCQYDVQQGEwJVUzET
MBEGA1UECAwKQ2FsaWZvcm5pYTEUMBIGA1UEBwwLU2FudGEgQ2xhcmExDTALBgNV
BAoMBHBrZzUxDDAKBgNVBAsMA3RhOTESMBAGA1UEAwwJbG9jYWxob3N0MRIwEAYJ
KoZIhvcNAQkBFgN0YTkwHhcNMTcxMTExMTIzODM0WhcNMjAwODA3MTIzODM0WjCB
hTELMAkGA1UEBhMCVVMxEzARBgNVBAgMCkNhbGlmb3JuaWExFDASBgNVBAcMC1Nh
bnRhIENsYXJhMQ0wCwYDVQQKDARwa2c1MRAwDgYDVQQLDAdjczFfdGE5MRIwEAYD
VQQDDAlsb2NhbGhvc3QxFjAUBgkqhkiG9w0BCQEWB2NzMV90YTkwgZ8wDQYJKoZI
hvcNAQEBBQADgY0AMIGJAoGBANs8AXSGl3Uv7qYQ2LzcLg9vdLL5glXcnOEnLzYf
z+quNptOXt2JtgTgaOemVh3HXDtxxhBFgdA2Dp6wslxlQsqLejoWBpfkh5YgVBLa
+SLB8eA/FNpacRXwNJb8nluC1vF9KU8JfeN3iunOuPGC73tplCpjfINBEATjx7Bs
nl77AgMBAAGjIDAeMAwGA1UdEwEB/wQCMAAwDgYDVR0PAQH/BAQDAgeAMA0GCSqG
SIb3DQEBCwUAA4IBAQCxH6W36YugLg/RR9GmPegDQAqMxdKGL5bDJpaHzliWZLh9
+3IhMzTU85OYhN5vajZGPrtwQrbWpGr82gGjAAq9gFMLCXUsxSKGknFe9Llcxq0e
hAz5hympFG7nnq61BLiwcB/6tzAG/2eXmNRmCiCpgDakKlnEH9ieusGgfF+Hz2v7
RCSUXbHSAQmUZWpQpBV4xjJqWpegAHB4Bw4fiHV81hPmcfxX8cQ+jwZKxPRKWhn2
fb09z+ht3xwuSXpOq5yB81DLAO9FIoRu4B1uFHPHEyiawk1BaM1DAjAUeIB7azW2
DrmNqkBJdorJYQb7SRDqByYp1P418LqLWpW6PhZ5
-----END CERTIFICATE-----
