Certificate:
    Data:
        Version: 3 (0x2)
        Serial Number: 46 (0x2e)
    Signature Algorithm: sha256WithRSAEncryption
        Issuer: C=US, ST=California, L=Santa Clara, O=pkg5, OU=ta10, CN=localhost/emailAddress=ta10
        Validity
            Not Before: Nov 11 12:38:34 2017 GMT
            Not After : Aug  7 12:38:34 2020 GMT
        Subject: C=US, ST=California, L=Santa Clara, O=pkg5, OU=cs1_ta10, CN=localhost/emailAddress=cs1_ta10
        Subject Public Key Info:
            Public Key Algorithm: rsaEncryption
                Public-Key: (1024 bit)
                Modulus:
                    00:bc:10:18:e8:b3:2e:97:91:22:9a:d2:63:31:ca:
                    09:d4:95:c8:a7:a8:35:8e:11:ba:5a:a4:32:d2:67:
                    4a:7d:ca:f3:14:21:20:ca:90:f4:0e:09:2b:23:4b:
                    79:de:de:26:9a:70:9b:68:ca:de:53:72:d3:5f:1c:
                    1f:13:1e:07:fe:c4:8e:4d:ed:da:96:d0:e0:7c:05:
                    8a:9f:40:bb:09:31:56:d4:7b:59:cf:ff:15:79:0f:
                    d3:25:75:b4:aa:2d:5d:d1:e0:b2:95:ab:90:76:5c:
                    ba:56:64:6c:f8:2e:76:f9:e5:98:9d:82:bb:d9:98:
                    e9:86:14:ba:f0:bc:12:fc:8f
                Exponent: 65537 (0x10001)
        X509v3 extensions:
            X509v3 Basic Constraints: critical
                CA:FALSE
            X509v3 Key Usage: critical
                Digital Signature
    Signature Algorithm: sha256WithRSAEncryption
         0e:fd:b3:44:55:5d:ff:c6:65:7f:4e:31:32:aa:f1:c9:86:50:
         e1:77:7d:23:2f:56:3c:58:fe:d0:b9:7e:d0:27:7e:68:17:bf:
         8f:cd:55:bd:dc:fd:c5:c3:71:d6:bd:49:a5:be:1b:19:01:65:
         4a:e6:41:ef:7b:ac:4b:35:fa:1d:38:68:0a:34:aa:f6:9c:60:
         99:54:97:3e:08:07:e4:61:cb:af:24:20:52:d2:0d:cf:b4:fa:
         93:d5:42:91:d0:8b:18:1a:d2:66:b1:24:d7:89:23:f2:d9:cc:
         fd:ff:93:ca:04:ab:9c:90:d7:7c:2d:73:a0:b9:a7:04:5f:52:
         8f:a8:d8:e5:ec:b6:49:af:c3:48:38:d7:3d:10:a7:64:a6:cb:
         79:2e:f6:cb:ad:80:2a:d6:5d:a4:b2:34:e1:81:6a:9f:66:f9:
         f1:6f:b2:52:48:79:9a:72:51:24:19:b4:16:c8:95:a2:62:dc:
         44:da:b1:51:67:4b:db:b4:be:db:90:cc:80:c8:76:95:92:df:
         9a:7d:ee:e7:d5:e7:c2:d8:60:19:ac:25:58:8f:04:81:e6:48:
         93:25:21:1b:f3:f4:6d:95:61:ad:f9:e6:d9:1b:bd:a1:eb:f4:
         58:76:23:72:d4:0c:34:45:3b:af:7d:f2:0f:9e:6a:db:9b:4f:
         bf:2a:f0:e7
-----BEGIN CERTIFICATE-----
MIIDHjCCAgagAwIBAgIBLjANBgkqhkiG9w0BAQsFADB/MQswCQYDVQQGEwJVUzET
MBEGA1UECAwKQ2FsaWZvcm5pYTEUMBIGA1UEBwwLU2FudGEgQ2xhcmExDTALBgNV
BAoMBHBrZzUxDTALBgNVBAsMBHRhMTAxEjAQBgNVBAMMCWxvY2FsaG9zdDETMBEG
CSqGSIb3DQEJARYEdGExMDAeFw0xNzExMTExMjM4MzRaFw0yMDA4MDcxMjM4MzRa
MIGHMQswCQYDVQQGEwJVUzETMBEGA1UECAwKQ2FsaWZvcm5pYTEUMBIGA1UEBwwL
U2FudGEgQ2xhcmExDTALBgNVBAoMBHBrZzUxETAPBgNVBAsMCGNzMV90YTEwMRIw
EAYDVQQDDAlsb2NhbGhvc3QxFzAVBgkqhkiG9w0BCQEWCGNzMV90YTEwMIGfMA0G
CSqGSIb3DQEBAQUAA4GNADCBiQKBgQC8EBjosy6XkSKa0mMxygnUlcinqDWOEbpa
pDLSZ0p9yvMUISDKkPQOCSsjS3ne3iaacJtoyt5TctNfHB8THgf+xI5N7dqW0OB8
BYqfQLsJMVbUe1nP/xV5D9MldbSqLV3R4LKVq5B2XLpWZGz4Lnb55ZidgrvZmOmG
FLrwvBL8jwIDAQABoyAwHjAMBgNVHRMBAf8EAjAAMA4GA1UdDwEB/wQEAwIHgDAN
BgkqhkiG9w0BAQsFAAOCAQEADv2zRFVd/8Zlf04xMqrxyYZQ4Xd9Iy9WPFj+0Ll+
0Cd+aBe/j81Vvdz9xcNx1r1Jpb4bGQFlSuZB73usSzX6HThoCjSq9pxgmVSXPggH
5GHLryQgUtINz7T6k9VCkdCLGBrSZrEk14kj8tnM/f+TygSrnJDXfC1zoLmnBF9S
j6jY5ey2Sa/DSDjXPRCnZKbLeS72y62AKtZdpLI04YFqn2b58W+yUkh5mnJRJBm0
FsiVomLcRNqxUWdL27S+25DMgMh2lZLfmn3u59XnwthgGawlWI8EgeZIkyUhG/P0
bZVhrfnm2Ru9oev0WHYjctQMNEU7r33yD55q25tPvyrw5w==
-----END CERTIFICATE-----
