Certificate:
    Data:
        Version: 3 (0x2)
        Serial Number: 47 (0x2f)
    Signature Algorithm: sha256WithRSAEncryption
        Issuer: C=US, ST=California, L=Santa Clara, O=pkg5, OU=ta11, CN=localhost/emailAddress=ta11
        Validity
            Not Before: Nov 11 12:38:35 2017 GMT
            Not After : Aug  7 12:38:35 2020 GMT
        Subject: C=US, ST=California, L=Santa Clara, O=pkg5, OU=cs1_ta11, CN=localhost/emailAddress=cs1_ta11
        Subject Public Key Info:
            Public Key Algorithm: rsaEncryption
                Public-Key: (1024 bit)
                Modulus:
                    00:c0:ca:34:26:d7:33:14:90:ca:8f:e2:38:31:2c:
                    e1:1c:3c:4c:10:8e:73:a4:71:11:76:57:1a:9c:9a:
                    64:05:49:3f:7a:ef:f8:24:47:a9:78:24:ba:0f:9a:
                    47:19:e5:71:2f:43:66:ba:62:ba:ed:9b:e8:9a:d3:
                    a8:cb:a5:37:72:17:fb:ea:5d:04:71:a1:63:33:c6:
                    86:20:a5:06:1a:88:03:52:65:4b:14:df:d0:04:04:
                    22:1f:86:43:ab:82:19:b3:f4:ea:e3:1b:91:49:de:
                    99:be:67:6f:c7:d4:67:a2:60:ec:b5:4e:94:9a:cc:
                    fd:63:4f:20:c7:27:f7:38:df
                Exponent: 65537 (0x10001)
        X509v3 extensions:
            X509v3 Basic Constraints: critical
                CA:FALSE
            X509v3 Key Usage: critical
                Digital Signature
    Signature Algorithm: sha256WithRSAEncryption
         53:3f:f9:b6:49:f4:76:57:06:87:fd:08:fd:1c:4d:c7:89:42:
         4c:6c:2d:17:5f:36:4f:13:f8:be:5d:d4:a7:5f:67:70:86:6c:
         da:e2:2e:13:07:ba:9a:84:4b:03:fb:70:26:18:f0:af:04:d6:
         70:0c:ee:37:5e:4a:24:cf:fd:81:59:40:b8:da:d2:6f:88:55:
         19:16:7c:6a:fa:1a:8f:ad:dc:88:04:61:ff:d8:70:2c:66:79:
         25:c3:af:f5:e9:e1:b8:4e:74:52:e1:02:53:f9:ab:ff:f9:5d:
         8d:1f:7f:bb:a0:5b:19:ba:5e:06:14:59:e7:d1:a0:1a:7a:e2:
         fe:da:cf:16:1d:98:a4:44:a8:d6:51:a1:4b:ae:da:6c:66:18:
         3c:77:92:58:33:73:a9:dd:27:b4:a5:3a:78:dc:ff:ac:5d:d8:
         da:a5:a7:ea:81:10:01:ea:7e:6f:d3:56:58:a7:40:dc:e7:00:
         10:cd:9c:8e:d6:fc:1e:d7:4a:f6:76:0d:b8:25:e8:88:45:6e:
         c0:f6:1f:c8:fc:2f:d4:31:d6:b4:52:ec:c7:6f:26:42:ef:72:
         5c:b8:ea:56:8b:3f:34:de:e9:07:7c:58:0d:dd:ff:14:a0:1b:
         32:4b:22:68:3e:43:e4:d7:e9:1a:19:6d:d3:a3:33:ab:c4:1b:
         76:71:40:96
-----BEGIN CERTIFICATE-----
MIIDHjCCAgagAwIBAgIBLzANBgkqhkiG9w0BAQsFADB/MQswCQYDVQQGEwJVUzET
MBEGA1UECAwKQ2FsaWZvcm5pYTEUMBIGA1UEBwwLU2FudGEgQ2xhcmExDTALBgNV
BAoMBHBrZzUxDTALBgNVBAsMBHRhMTExEjAQBgNVBAMMCWxvY2FsaG9zdDETMBEG
CSqGSIb3DQEJARYEdGExMTAeFw0xNzExMTExMjM4MzVaFw0yMDA4MDcxMjM4MzVa
MIGHMQswCQYDVQQGEwJVUzETMBEGA1UECAwKQ2FsaWZvcm5pYTEUMBIGA1UEBwwL
U2FudGEgQ2xhcmExDTALBgNVBAoMBHBrZzUxETAPBgNVBAsMCGNzMV90YTExMRIw
EAYDVQQDDAlsb2NhbGhvc3QxFzAVBgkqhkiG9w0BCQEWCGNzMV90YTExMIGfMA0G
CSqGSIb3DQEBAQUAA4GNADCBiQKBgQDAyjQm1zMUkMqP4jgxLOEcPEwQjnOkcRF2
VxqcmmQFST967/gkR6l4JLoPmkcZ5XEvQ2a6Yrrtm+ia06jLpTdyF/vqXQRxoWMz
xoYgpQYaiANSZUsU39AEBCIfhkOrghmz9OrjG5FJ3pm+Z2/H1GeiYOy1TpSazP1j
TyDHJ/c43wIDAQABoyAwHjAMBgNVHRMBAf8EAjAAMA4GA1UdDwEB/wQEAwIHgDAN
BgkqhkiG9w0BAQsFAAOCAQEAUz/5tkn0dlcGh/0I/RxNx4lCTGwtF182TxP4vl3U
p19ncIZs2uIuEwe6moRLA/twJhjwrwTWcAzuN15KJM/9gVlAuNrSb4hVGRZ8avoa
j63ciARh/9hwLGZ5JcOv9enhuE50UuECU/mr//ldjR9/u6BbGbpeBhRZ59GgGnri
/trPFh2YpESo1lGhS67abGYYPHeSWDNzqd0ntKU6eNz/rF3Y2qWn6oEQAep+b9NW
WKdA3OcAEM2cjtb8HtdK9nYNuCXoiEVuwPYfyPwv1DHWtFLsx28mQu9yXLjqVos/
NN7pB3xYDd3/FKAbMksiaD5D5NfpGhlt06Mzq8QbdnFAlg==
-----END CERTIFICATE-----
