Certificate:
    Data:
        Version: 3 (0x2)
        Serial Number: 48 (0x30)
    Signature Algorithm: sha256WithRSAEncryption
        Issuer: C=US, ST=California, L=Santa Clara, O=pkg5, OU=ta11, CN=localhost/emailAddress=ta11
        Validity
            Not Before: Jul  3 14:14:06 2018 GMT
            Not After : Mar 29 14:14:06 2021 GMT
        Subject: C=US, ST=California, L=Santa Clara, O=pkg5, OU=cs1_ta11, CN=localhost/emailAddress=cs1_ta11
        Subject Public Key Info:
            Public Key Algorithm: rsaEncryption
                Public-Key: (1024 bit)
                Modulus:
                    00:c9:f7:42:3d:28:c7:9c:2a:2b:b3:1a:22:1f:62:
                    be:66:65:36:33:60:1d:92:66:1f:0c:93:83:60:0a:
                    fa:2e:6f:a9:60:83:b2:0c:1b:58:c9:b1:60:95:e1:
                    e1:82:a3:35:7f:6f:64:61:98:cc:22:2c:0a:df:e0:
                    df:29:10:dc:70:f8:6a:5b:33:f2:05:0c:e3:78:99:
                    a1:3f:f7:7b:ab:39:ca:94:fe:d1:61:33:d6:9c:23:
                    b0:1c:21:fd:00:36:ee:72:3f:dd:48:f6:8e:04:63:
                    f5:22:83:d3:16:51:73:0a:64:4c:f9:7e:82:d8:f7:
                    f5:bd:79:f5:2f:eb:8c:dd:63
                Exponent: 65537 (0x10001)
        X509v3 extensions:
            X509v3 Basic Constraints: critical
                CA:FALSE
            X509v3 Key Usage: critical
                Digital Signature
    Signature Algorithm: sha256WithRSAEncryption
         6c:54:a4:0e:40:9a:bb:7e:6c:0d:0a:52:2f:53:4e:ac:b4:d6:
         7b:a0:cb:98:43:3b:ff:bc:e8:78:d9:69:7f:c3:5b:0b:87:6d:
         08:da:19:fd:23:d8:f3:31:df:be:ae:16:5b:0a:6f:bd:1e:43:
         47:ee:12:74:e7:4c:0d:a8:47:97:17:36:c5:e6:c4:c3:38:fd:
         08:e2:77:71:55:97:b9:2e:df:ed:97:9b:b4:b0:34:a0:09:fb:
         f6:65:57:70:50:88:a2:b9:b6:5a:37:11:9e:39:90:39:1c:d1:
         09:89:42:f8:b8:76:9b:31:24:81:b7:66:ac:a5:d6:fa:5d:aa:
         57:b1:d0:81:af:97:85:4e:32:f5:a4:b7:ae:70:c0:ea:6e:8b:
         41:20:91:4b:93:dc:1f:de:81:9b:f5:b1:d8:2a:99:22:b0:c9:
         06:b6:ee:9e:5a:ed:cc:b5:84:f6:cd:b4:a4:0c:f5:d3:c6:42:
         12:66:40:a4:f0:0f:97:f5:d4:dd:c7:c8:92:ef:39:3d:67:9f:
         96:19:b8:81:f1:ba:57:56:5b:3a:60:98:78:a7:e2:60:51:2c:
         1c:e2:43:5a:bd:7d:9e:ca:7a:89:ae:1c:6f:6f:9e:04:81:4e:
         07:df:9b:a1:7b:62:b9:93:24:40:66:73:58:78:18:56:74:ef:
         2c:fe:cc:4e
-----BEGIN CERTIFICATE-----
MIIDHjCCAgagAwIBAgIBMDANBgkqhkiG9w0BAQsFADB/MQswCQYDVQQGEwJVUzET
MBEGA1UECAwKQ2FsaWZvcm5pYTEUMBIGA1UEBwwLU2FudGEgQ2xhcmExDTALBgNV
BAoMBHBrZzUxDTALBgNVBAsMBHRhMTExEjAQBgNVBAMMCWxvY2FsaG9zdDETMBEG
CSqGSIb3DQEJARYEdGExMTAeFw0xODA3MDMxNDE0MDZaFw0yMTAzMjkxNDE0MDZa
MIGHMQswCQYDVQQGEwJVUzETMBEGA1UECAwKQ2FsaWZvcm5pYTEUMBIGA1UEBwwL
U2FudGEgQ2xhcmExDTALBgNVBAoMBHBrZzUxETAPBgNVBAsMCGNzMV90YTExMRIw
EAYDVQQDDAlsb2NhbGhvc3QxFzAVBgkqhkiG9w0BCQEWCGNzMV90YTExMIGfMA0G
CSqGSIb3DQEBAQUAA4GNADCBiQKBgQDJ90I9KMecKiuzGiIfYr5mZTYzYB2SZh8M
k4NgCvoub6lgg7IMG1jJsWCV4eGCozV/b2RhmMwiLArf4N8pENxw+GpbM/IFDON4
maE/93urOcqU/tFhM9acI7AcIf0ANu5yP91I9o4EY/Uig9MWUXMKZEz5foLY9/W9
efUv64zdYwIDAQABoyAwHjAMBgNVHRMBAf8EAjAAMA4GA1UdDwEB/wQEAwIHgDAN
BgkqhkiG9w0BAQsFAAOCAQEAbFSkDkCau35sDQpSL1NOrLTWe6DLmEM7/7zoeNlp
f8NbC4dtCNoZ/SPY8zHfvq4WWwpvvR5DR+4SdOdMDahHlxc2xebEwzj9COJ3cVWX
uS7f7ZebtLA0oAn79mVXcFCIorm2WjcRnjmQORzRCYlC+Lh2mzEkgbdmrKXW+l2q
V7HQga+XhU4y9aS3rnDA6m6LQSCRS5PcH96Bm/Wx2CqZIrDJBrbunlrtzLWE9s20
pAz108ZCEmZApPAPl/XU3cfIku85PWeflhm4gfG6V1ZbOmCYeKfiYFEsHOJDWr19
nsp6ia4cb2+eBIFOB9+boXtiuZMkQGZzWHgYVnTvLP7MTg==
-----END CERTIFICATE-----
