Certificate:
    Data:
        Version: 3 (0x2)
        Serial Number: 25 (0x19)
    Signature Algorithm: sha256WithRSAEncryption
        Issuer: C=US, ST=California, L=Santa Clara, O=pkg5, CN=cs8_ch1_ta3/emailAddress=cs8_ch1_ta3
        Validity
            Not Before: Jul  3 14:14:01 2018 GMT
            Not After : Mar 29 14:14:01 2021 GMT
        Subject: C=US, ST=California, L=Santa Clara, O=pkg5, CN=cs1_cs8_ch1_ta3/emailAddress=cs1_cs8_ch1_ta3
        Subject Public Key Info:
            Public Key Algorithm: rsaEncryption
                Public-Key: (1024 bit)
                Modulus:
                    00:c0:6c:f1:75:65:c7:6f:84:1b:62:4a:a6:89:ce:
                    62:2f:f7:98:d1:f2:ca:8f:79:cb:8f:70:cf:e1:a7:
                    5c:9c:b7:cc:c6:85:a5:fa:17:22:72:77:85:88:ce:
                    c3:f3:b3:a8:b9:55:2a:c2:80:cc:3b:b7:ea:93:ab:
                    58:1b:c3:bd:6a:3e:f6:ea:f4:c6:9d:05:4a:c9:4e:
                    a8:4b:14:00:03:44:59:c4:61:95:fe:fb:85:e7:bd:
                    7b:b5:e5:34:48:ea:49:98:75:53:d7:0c:90:d8:0c:
                    b3:92:26:f2:76:f1:71:3c:54:f3:f8:68:4a:c9:63:
                    b6:8b:68:8d:ee:96:75:d9:71
                Exponent: 65537 (0x10001)
        X509v3 extensions:
            X509v3 Basic Constraints: critical
                CA:FALSE
            X509v3 Key Usage: critical
                Digital Signature
    Signature Algorithm: sha256WithRSAEncryption
         05:d0:29:7c:ec:a4:03:9f:35:83:9a:11:52:d9:9b:07:78:b0:
         fa:44:49:97:d5:dd:42:2d:72:2b:02:e7:16:39:99:7d:6f:55:
         b8:df:be:15:c6:93:02:94:db:04:03:f8:2e:2e:37:1b:fa:c2:
         3c:9d:49:be:eb:01:27:08:df:a8:56:8e:ee:bd:d6:03:e4:8e:
         32:1a:c4:07:c9:fd:52:3f:fa:36:fa:56:3e:74:b1:6f:03:97:
         a2:3d:bb:a0:cb:b1:64:e7:0c:dd:31:b6:a1:ab:a1:28:6e:29:
         9b:91:42:0b:d1:0e:a0:34:00:56:59:47:88:f0:77:6e:0e:a2:
         b1:b8
-----BEGIN CERTIFICATE-----
MIICkTCCAfqgAwIBAgIBGTANBgkqhkiG9w0BAQsFADB5MQswCQYDVQQGEwJVUzET
MBEGA1UECAwKQ2FsaWZvcm5pYTEUMBIGA1UEBwwLU2FudGEgQ2xhcmExDTALBgNV
BAoMBHBrZzUxFDASBgNVBAMMC2NzOF9jaDFfdGEzMRowGAYJKoZIhvcNAQkBFgtj
czhfY2gxX3RhMzAeFw0xODA3MDMxNDE0MDFaFw0yMTAzMjkxNDE0MDFaMIGBMQsw
CQYDVQQGEwJVUzETMBEGA1UECAwKQ2FsaWZvcm5pYTEUMBIGA1UEBwwLU2FudGEg
Q2xhcmExDTALBgNVBAoMBHBrZzUxGDAWBgNVBAMMD2NzMV9jczhfY2gxX3RhMzEe
MBwGCSqGSIb3DQEJARYPY3MxX2NzOF9jaDFfdGEzMIGfMA0GCSqGSIb3DQEBAQUA
A4GNADCBiQKBgQDAbPF1ZcdvhBtiSqaJzmIv95jR8sqPecuPcM/hp1yct8zGhaX6
FyJyd4WIzsPzs6i5VSrCgMw7t+qTq1gbw71qPvbq9MadBUrJTqhLFAADRFnEYZX+
+4XnvXu15TRI6kmYdVPXDJDYDLOSJvJ28XE8VPP4aErJY7aLaI3ulnXZcQIDAQAB
oyAwHjAMBgNVHRMBAf8EAjAAMA4GA1UdDwEB/wQEAwIHgDANBgkqhkiG9w0BAQsF
AAOBgQAF0Cl87KQDnzWDmhFS2ZsHeLD6REmX1d1CLXIrAucWOZl9b1W4374VxpMC
lNsEA/guLjcb+sI8nUm+6wEnCN+oVo7uvdYD5I4yGsQHyf1SP/o2+lY+dLFvA5ei
Pbugy7Fk5wzdMbahq6EobimbkUIL0Q6gNABWWUeI8HduDqKxuA==
-----END CERTIFICATE-----
