Certificate:
    Data:
        Version: 3 (0x2)
        Serial Number: 44 (0x2c)
    Signature Algorithm: sha256WithRSAEncryption
        Issuer: C=US, ST=California, L=Santa Clara, O=pkg5, OU=ta7, CN=localhost/emailAddress=ta7
        Validity
            Not Before: Nov 24 01:22:44 2021 GMT
            Not After : Aug 20 01:22:44 2024 GMT
        Subject: C=US, ST=California, L=Santa Clara, O=pkg5, OU=cs1_ta7, CN=localhost/emailAddress=cs1_ta7
        Subject Public Key Info:
            Public Key Algorithm: rsaEncryption
                Public-Key: (1024 bit)
                Modulus:
                    00:bf:6b:4b:15:6b:3c:45:ce:df:f4:24:32:40:c9:
                    09:0b:19:5a:cf:00:3e:3b:43:eb:9d:cc:e4:aa:6c:
                    c6:a4:40:16:6d:dd:f6:fe:61:51:7b:35:35:43:5b:
                    a8:90:d3:e3:39:b6:bf:9c:3a:5f:ff:31:50:ef:25:
                    37:c0:79:1e:c3:7f:9c:07:c7:94:32:62:df:03:9d:
                    4c:e5:68:23:3f:ec:9c:b4:61:1a:67:60:92:2c:8b:
                    01:8b:34:a0:13:fe:c2:83:5f:9d:ce:af:16:8b:55:
                    a3:37:61:a0:ff:f0:cd:c7:78:fe:fc:28:36:38:df:
                    5d:c0:9d:33:9b:fc:19:5d:cb
                Exponent: 65537 (0x10001)
        X509v3 extensions:
            X509v3 Basic Constraints: critical
                CA:FALSE
            X509v3 Key Usage: critical
                Digital Signature
    Signature Algorithm: sha256WithRSAEncryption
         97:3f:3a:dd:bd:f8:7f:96:28:e2:96:02:e6:10:de:7a:55:c8:
         25:c5:90:80:f8:a7:e8:76:88:e2:ad:c2:45:64:5a:81:6f:59:
         88:fc:fc:23:f4:08:fb:6e:c0:7e:d9:90:84:06:24:0e:d6:64:
         ad:6b:24:3a:da:90:59:86:9b:c0:c7:ba:eb:44:34:7e:51:c2:
         ce:ac:9e:2b:83:4f:65:40:c0:10:95:63:e4:5e:86:a4:c7:58:
         68:19:96:b3:da:1e:72:aa:92:90:a6:29:ed:2b:38:88:ce:17:
         78:41:89:19:87:31:1d:e1:0e:dd:78:00:5b:04:73:04:6d:1c:
         7e:e3:0b:41:be:1d:96:26:45:6f:e0:80:6a:31:e5:51:8b:0c:
         84:ae:70:94:90:37:83:f5:ac:34:58:fd:fb:2c:b1:62:e8:40:
         05:d1:ca:27:d4:97:c7:5e:e7:8b:bd:13:73:d2:aa:d3:41:0a:
         9e:0c:27:8b:85:d6:f4:d0:d4:d6:e1:24:61:dd:21:ea:eb:48:
         24:09:78:5a:40:16:41:a0:f3:3d:53:80:b2:6d:e8:89:69:33:
         18:ef:93:bf:f3:2a:35:77:32:d0:d5:32:19:6c:f4:fd:eb:06:
         42:17:ad:23:cc:ca:ab:01:76:ea:18:59:9b:bc:7c:b9:35:88:
         95:4f:e1:c7
-----BEGIN CERTIFICATE-----
MIIDGjCCAgKgAwIBAgIBLDANBgkqhkiG9w0BAQsFADB9MQswCQYDVQQGEwJVUzET
MBEGA1UECAwKQ2FsaWZvcm5pYTEUMBIGA1UEBwwLU2FudGEgQ2xhcmExDTALBgNV
BAoMBHBrZzUxDDAKBgNVBAsMA3RhNzESMBAGA1UEAwwJbG9jYWxob3N0MRIwEAYJ
KoZIhvcNAQkBFgN0YTcwHhcNMjExMTI0MDEyMjQ0WhcNMjQwODIwMDEyMjQ0WjCB
hTELMAkGA1UEBhMCVVMxEzARBgNVBAgMCkNhbGlmb3JuaWExFDASBgNVBAcMC1Nh
bnRhIENsYXJhMQ0wCwYDVQQKDARwa2c1MRAwDgYDVQQLDAdjczFfdGE3MRIwEAYD
VQQDDAlsb2NhbGhvc3QxFjAUBgkqhkiG9w0BCQEWB2NzMV90YTcwgZ8wDQYJKoZI
hvcNAQEBBQADgY0AMIGJAoGBAL9rSxVrPEXO3/QkMkDJCQsZWs8APjtD653M5Kps
xqRAFm3d9v5hUXs1NUNbqJDT4zm2v5w6X/8xUO8lN8B5HsN/nAfHlDJi3wOdTOVo
Iz/snLRhGmdgkiyLAYs0oBP+woNfnc6vFotVozdhoP/wzcd4/vwoNjjfXcCdM5v8
GV3LAgMBAAGjIDAeMAwGA1UdEwEB/wQCMAAwDgYDVR0PAQH/BAQDAgeAMA0GCSqG
SIb3DQEBCwUAA4IBAQCXPzrdvfh/lijilgLmEN56VcglxZCA+KfodojircJFZFqB
b1mI/Pwj9Aj7bsB+2ZCEBiQO1mStayQ62pBZhpvAx7rrRDR+UcLOrJ4rg09lQMAQ
lWPkXoakx1hoGZaz2h5yqpKQpintKziIzhd4QYkZhzEd4Q7deABbBHMEbRx+4wtB
vh2WJkVv4IBqMeVRiwyErnCUkDeD9aw0WP37LLFi6EAF0con1JfHXueLvRNz0qrT
QQqeDCeLhdb00NTW4SRh3SHq60gkCXhaQBZBoPM9U4CybeiJaTMY75O/8yo1dzLQ
1TIZbPT96wZCF60jzMqrAXbqGFmbvHy5NYiVT+HH
-----END CERTIFICATE-----
