Certificate:
    Data:
        Version: 3 (0x2)
        Serial Number: 48 (0x30)
    Signature Algorithm: sha256WithRSAEncryption
        Issuer: C=US, ST=California, L=Santa Clara, O=pkg5, OU=ta11, CN=localhost/emailAddress=ta11
        Validity
            Not Before: Nov 24 01:22:45 2021 GMT
            Not After : Aug 20 01:22:45 2024 GMT
        Subject: C=US, ST=California, L=Santa Clara, O=pkg5, OU=cs1_ta11, CN=localhost/emailAddress=cs1_ta11
        Subject Public Key Info:
            Public Key Algorithm: rsaEncryption
                Public-Key: (1024 bit)
                Modulus:
                    00:d1:77:34:60:ea:e9:e7:30:39:6e:c2:81:c4:3f:
                    23:9f:6c:7c:48:de:36:fd:6f:68:b3:b6:30:3c:ea:
                    89:98:72:a1:f0:75:6b:7b:8d:8d:8d:78:b3:45:b2:
                    bd:4d:25:f9:a7:a6:32:a7:bd:62:04:e2:ef:52:14:
                    d5:e3:64:aa:b2:10:71:5b:47:aa:38:e5:c2:64:85:
                    c4:22:d9:e3:0e:cf:15:18:e8:c5:ac:90:e0:70:77:
                    13:38:77:fb:ae:bf:02:12:f2:90:bf:82:54:65:bd:
                    23:b5:29:c9:ad:17:24:e0:ac:03:e3:ef:c1:ae:2b:
                    5a:82:33:40:b8:8f:55:6b:39
                Exponent: 65537 (0x10001)
        X509v3 extensions:
            X509v3 Basic Constraints: critical
                CA:FALSE
            X509v3 Key Usage: critical
                Digital Signature
    Signature Algorithm: sha256WithRSAEncryption
         4d:d2:aa:2e:e3:e8:e8:7f:8d:ff:64:b7:69:b2:f7:c0:34:83:
         44:58:43:eb:98:eb:49:40:64:b4:2f:8b:48:d2:e2:60:b4:a9:
         d3:60:e3:5c:f4:1f:2f:5e:93:27:96:cd:44:40:dc:12:d5:09:
         be:ba:df:93:fd:db:b3:7e:b7:63:69:65:f4:cb:2a:05:a9:30:
         50:13:0b:77:84:4b:7c:49:2e:f3:d2:c6:c3:b7:a1:f6:68:ba:
         53:8a:4b:2b:16:1b:8b:dc:33:ae:8b:9a:9c:a6:db:1b:25:c6:
         30:b2:b5:ed:14:54:2f:b1:94:3e:2b:29:02:41:04:b4:e1:0f:
         5f:74:c5:72:cf:28:63:ae:a7:75:c0:8b:aa:85:b2:ac:c3:1a:
         8e:49:3b:40:cf:79:63:e7:8d:b3:cf:91:bf:fe:fb:f4:28:e3:
         c3:6e:a2:a0:b6:d9:17:be:da:12:a3:35:5e:ed:ab:a6:3f:8f:
         15:33:1a:ec:4b:46:21:79:37:f4:f7:77:0c:7b:30:8d:eb:0e:
         fc:2c:fe:a4:2e:c2:d7:f7:60:be:7b:1f:73:fe:86:1f:10:37:
         bc:89:af:78:90:19:af:9b:ee:bf:33:bc:ec:41:88:8b:7e:b2:
         c9:b9:ca:39:59:37:80:2a:99:de:c3:ab:8d:b9:68:2d:5f:ac:
         b0:28:2d:0e
-----BEGIN CERTIFICATE-----
MIIDHjCCAgagAwIBAgIBMDANBgkqhkiG9w0BAQsFADB/MQswCQYDVQQGEwJVUzET
MBEGA1UECAwKQ2FsaWZvcm5pYTEUMBIGA1UEBwwLU2FudGEgQ2xhcmExDTALBgNV
BAoMBHBrZzUxDTALBgNVBAsMBHRhMTExEjAQBgNVBAMMCWxvY2FsaG9zdDETMBEG
CSqGSIb3DQEJARYEdGExMTAeFw0yMTExMjQwMTIyNDVaFw0yNDA4MjAwMTIyNDVa
MIGHMQswCQYDVQQGEwJVUzETMBEGA1UECAwKQ2FsaWZvcm5pYTEUMBIGA1UEBwwL
U2FudGEgQ2xhcmExDTALBgNVBAoMBHBrZzUxETAPBgNVBAsMCGNzMV90YTExMRIw
EAYDVQQDDAlsb2NhbGhvc3QxFzAVBgkqhkiG9w0BCQEWCGNzMV90YTExMIGfMA0G
CSqGSIb3DQEBAQUAA4GNADCBiQKBgQDRdzRg6unnMDluwoHEPyOfbHxI3jb9b2iz
tjA86omYcqHwdWt7jY2NeLNFsr1NJfmnpjKnvWIE4u9SFNXjZKqyEHFbR6o45cJk
hcQi2eMOzxUY6MWskOBwdxM4d/uuvwIS8pC/glRlvSO1KcmtFyTgrAPj78GuK1qC
M0C4j1VrOQIDAQABoyAwHjAMBgNVHRMBAf8EAjAAMA4GA1UdDwEB/wQEAwIHgDAN
BgkqhkiG9w0BAQsFAAOCAQEATdKqLuPo6H+N/2S3abL3wDSDRFhD65jrSUBktC+L
SNLiYLSp02DjXPQfL16TJ5bNREDcEtUJvrrfk/3bs363Y2ll9MsqBakwUBMLd4RL
fEku89LGw7eh9mi6U4pLKxYbi9wzrouanKbbGyXGMLK17RRUL7GUPispAkEEtOEP
X3TFcs8oY66ndcCLqoWyrMMajkk7QM95Y+eNs8+Rv/779Cjjw26ioLbZF77aEqM1
Xu2rpj+PFTMa7EtGIXk39Pd3DHswjesO/Cz+pC7C1/dgvnsfc/6GHxA3vImveJAZ
r5vuvzO87EGIi36yybnKOVk3gCqZ3sOrjbloLV+ssCgtDg==
-----END CERTIFICATE-----
