Certificate:
    Data:
        Version: 3 (0x2)
        Serial Number: 46 (0x2e)
    Signature Algorithm: sha256WithRSAEncryption
        Issuer: C=US, ST=California, L=Santa Clara, O=pkg5, OU=ta9, CN=localhost/emailAddress=ta9
        Validity
            Not Before: Nov 24 01:22:44 2021 GMT
            Not After : Aug 20 01:22:44 2024 GMT
        Subject: C=US, ST=California, L=Santa Clara, O=pkg5, OU=cs1_ta9, CN=localhost/emailAddress=cs1_ta9
        Subject Public Key Info:
            Public Key Algorithm: rsaEncryption
                Public-Key: (1024 bit)
                Modulus:
                    00:bd:02:d1:98:4d:1a:6c:ef:65:1f:f9:85:d6:4b:
                    08:31:48:9a:1d:38:77:86:23:7f:08:e4:4e:c5:10:
                    01:2a:bf:30:9b:05:39:c6:19:56:4b:70:99:96:ad:
                    50:8c:d0:6a:8d:c3:e4:69:d5:e1:ec:5c:d8:28:d4:
                    73:08:9e:7c:ce:8a:a0:39:b7:49:fa:e5:a6:16:fc:
                    5d:b6:8c:af:9e:7e:d4:44:0c:a6:76:0a:91:f1:cd:
                    62:a2:57:8d:b6:8e:d1:aa:12:23:78:20:a3:2c:fd:
                    14:ca:a8:57:6e:67:03:66:c6:98:5c:72:32:d0:85:
                    1e:08:9b:e1:ed:dd:d8:2d:47
                Exponent: 65537 (0x10001)
        X509v3 extensions:
            X509v3 Basic Constraints: critical
                CA:FALSE
            X509v3 Key Usage: critical
                Digital Signature
    Signature Algorithm: sha256WithRSAEncryption
         6c:46:a6:91:53:39:1f:7e:4d:bc:88:16:62:fe:a6:8b:3c:28:
         c0:d8:2f:06:94:0c:ff:87:4f:75:b0:26:de:d4:be:dc:2f:2a:
         11:57:44:82:91:0e:7e:5a:25:b6:8c:c7:c5:3b:9c:ed:9d:4a:
         0a:70:db:dc:cf:62:6d:fd:1e:70:4d:9b:1b:40:41:b7:39:c2:
         60:f7:69:3b:88:c4:74:e1:fe:c0:50:a9:7b:69:4b:44:bc:f4:
         ac:a9:a1:35:b7:df:13:f4:01:18:b1:7c:06:93:20:fc:65:b5:
         e3:4a:ad:58:cf:21:12:4a:e9:cc:c7:af:0a:12:04:2e:22:73:
         dd:a9:23:12:96:e1:b0:03:c9:83:86:b1:26:1c:77:58:a7:98:
         50:9f:7b:20:dc:6d:5b:40:af:6c:72:99:b6:d8:9d:43:5a:16:
         da:cc:87:e4:d5:1e:92:ef:77:ba:9a:27:58:44:da:4c:da:cd:
         6a:e4:0e:43:9f:fd:9c:80:dd:fa:78:0d:a2:af:04:39:71:c4:
         97:15:61:e4:f2:c3:0b:50:1f:9a:6b:a6:f3:46:1c:1d:dd:93:
         ee:0b:01:18:3e:75:1f:27:cc:79:81:f3:2a:a4:e5:47:a0:37:
         36:4e:fa:d6:f1:55:db:55:cf:53:e0:48:18:94:db:84:fa:e5:
         20:1f:40:50
-----BEGIN CERTIFICATE-----
MIIDGjCCAgKgAwIBAgIBLjANBgkqhkiG9w0BAQsFADB9MQswCQYDVQQGEwJVUzET
MBEGA1UECAwKQ2FsaWZvcm5pYTEUMBIGA1UEBwwLU2FudGEgQ2xhcmExDTALBgNV
BAoMBHBrZzUxDDAKBgNVBAsMA3RhOTESMBAGA1UEAwwJbG9jYWxob3N0MRIwEAYJ
KoZIhvcNAQkBFgN0YTkwHhcNMjExMTI0MDEyMjQ0WhcNMjQwODIwMDEyMjQ0WjCB
hTELMAkGA1UEBhMCVVMxEzARBgNVBAgMCkNhbGlmb3JuaWExFDASBgNVBAcMC1Nh
bnRhIENsYXJhMQ0wCwYDVQQKDARwa2c1MRAwDgYDVQQLDAdjczFfdGE5MRIwEAYD
VQQDDAlsb2NhbGhvc3QxFjAUBgkqhkiG9w0BCQEWB2NzMV90YTkwgZ8wDQYJKoZI
hvcNAQEBBQADgY0AMIGJAoGBAL0C0ZhNGmzvZR/5hdZLCDFImh04d4YjfwjkTsUQ
ASq/MJsFOcYZVktwmZatUIzQao3D5GnV4exc2CjUcwiefM6KoDm3Sfrlphb8XbaM
r55+1EQMpnYKkfHNYqJXjbaO0aoSI3ggoyz9FMqoV25nA2bGmFxyMtCFHgib4e3d
2C1HAgMBAAGjIDAeMAwGA1UdEwEB/wQCMAAwDgYDVR0PAQH/BAQDAgeAMA0GCSqG
SIb3DQEBCwUAA4IBAQBsRqaRUzkffk28iBZi/qaLPCjA2C8GlAz/h091sCbe1L7c
LyoRV0SCkQ5+WiW2jMfFO5ztnUoKcNvcz2Jt/R5wTZsbQEG3OcJg92k7iMR04f7A
UKl7aUtEvPSsqaE1t98T9AEYsXwGkyD8ZbXjSq1YzyESSunMx68KEgQuInPdqSMS
luGwA8mDhrEmHHdYp5hQn3sg3G1bQK9scpm22J1DWhbazIfk1R6S73e6midYRNpM
2s1q5A5Dn/2cgN36eA2irwQ5ccSXFWHk8sMLUB+aa6bzRhwd3ZPuCwEYPnUfJ8x5
gfMqpOVHoDc2TvrW8VXbVc9T4EgYlNuE+uUgH0BQ
-----END CERTIFICATE-----
