Certificate:
    Data:
        Version: 3 (0x2)
        Serial Number: 11 (0xb)
    Signature Algorithm: sha256WithRSAEncryption
        Issuer: C=US, ST=California, L=Santa Clara, O=pkg5, CN=ch5.2_ta1/emailAddress=ch5.2_ta1
        Validity
            Not Before: Nov 11 12:38:30 2017 GMT
            Not After : Aug  7 12:38:30 2020 GMT
        Subject: C=US, ST=California, L=Santa Clara, O=pkg5, CN=cs1_ch5.2_ta1/emailAddress=cs1_ch5.2_ta1
        Subject Public Key Info:
            Public Key Algorithm: rsaEncryption
                Public-Key: (1024 bit)
                Modulus:
                    00:c5:6c:ef:d4:83:40:d3:0d:05:99:79:3d:9d:5f:
                    ac:fb:54:c5:db:2c:5a:94:9e:c3:aa:bf:d1:49:ee:
                    a6:6b:82:eb:be:bb:a2:48:4e:d7:49:53:88:26:75:
                    8d:8f:22:00:6d:4b:cc:bd:2f:80:f9:94:fc:5a:df:
                    b1:8a:60:c3:d5:4d:47:0a:a5:f0:e6:27:8f:fa:d8:
                    15:d5:0d:65:d4:db:47:c8:08:f5:bb:2e:7a:62:61:
                    5c:68:40:00:5e:81:1f:a8:77:98:be:78:2a:b3:3e:
                    db:47:9a:e3:ad:af:e0:4c:58:27:0b:0b:c9:62:be:
                    e3:c1:09:f5:06:38:dc:77:8d
                Exponent: 65537 (0x10001)
        X509v3 extensions:
            X509v3 Basic Constraints: critical
                CA:FALSE
            X509v3 Key Usage: critical
                Digital Signature
    Signature Algorithm: sha256WithRSAEncryption
         6e:35:dc:af:82:33:ba:dc:00:40:c6:0a:5c:f0:f2:ea:74:76:
         34:1f:84:a3:95:1d:71:7a:28:bb:ba:f8:5a:16:29:33:0b:ae:
         6e:01:ec:c9:6b:5c:51:79:39:13:6d:2e:dd:e3:dc:9d:dd:f4:
         70:e0:ac:9b:16:ff:32:4f:eb:a6:0a:ac:4c:15:8b:87:b8:e9:
         58:36:06:36:32:31:a6:a0:dc:e2:70:32:8b:9b:c9:38:36:f7:
         d2:ee:cd:27:8b:bc:0f:08:87:49:02:68:f6:da:01:51:52:f8:
         09:c9:e8:0b:50:14:8b:6f:ce:3b:5b:14:45:8d:6e:9b:4a:fc:
         0c:2a:1f:c4:14:24:c4:6c:be:a3:aa:10:a1:00:87:75:bf:a3:
         e4:97:b3:a7:0b:d1:44:93:7b:c5:b7:f6:c7:c1:ce:4c:4f:87:
         28:0b:fd:76:47:8d:d8:ad:27:17:05:d5:6e:76:f4:2a:47:66:
         9c:e5:3f:7b:6f:76:0b:08:15:54:41:58:b1:a5:11:7d:ef:f8:
         12:af:8b:d9:68:80:25:f3:5d:c2:f5:da:a1:81:7b:02:49:99:
         e5:2a:de:98:da:6d:63:4b:fa:ca:09:e7:5f:65:02:89:6f:27:
         20:40:32:9c:d1:08:0e:9a:01:f5:95:04:02:06:96:ae:98:b6:
         f5:9d:e0:f0
-----BEGIN CERTIFICATE-----
MIIDCTCCAfGgAwIBAgIBCzANBgkqhkiG9w0BAQsFADB1MQswCQYDVQQGEwJVUzET
MBEGA1UECAwKQ2FsaWZvcm5pYTEUMBIGA1UEBwwLU2FudGEgQ2xhcmExDTALBgNV
BAoMBHBrZzUxEjAQBgNVBAMMCWNoNS4yX3RhMTEYMBYGCSqGSIb3DQEJARYJY2g1
LjJfdGExMB4XDTE3MTExMTEyMzgzMFoXDTIwMDgwNzEyMzgzMFowfTELMAkGA1UE
BhMCVVMxEzARBgNVBAgMCkNhbGlmb3JuaWExFDASBgNVBAcMC1NhbnRhIENsYXJh
MQ0wCwYDVQQKDARwa2c1MRYwFAYDVQQDDA1jczFfY2g1LjJfdGExMRwwGgYJKoZI
hvcNAQkBFg1jczFfY2g1LjJfdGExMIGfMA0GCSqGSIb3DQEBAQUAA4GNADCBiQKB
gQDFbO/Ug0DTDQWZeT2dX6z7VMXbLFqUnsOqv9FJ7qZrguu+u6JITtdJU4gmdY2P
IgBtS8y9L4D5lPxa37GKYMPVTUcKpfDmJ4/62BXVDWXU20fICPW7LnpiYVxoQABe
gR+od5i+eCqzPttHmuOtr+BMWCcLC8livuPBCfUGONx3jQIDAQABoyAwHjAMBgNV
HRMBAf8EAjAAMA4GA1UdDwEB/wQEAwIHgDANBgkqhkiG9w0BAQsFAAOCAQEAbjXc
r4IzutwAQMYKXPDy6nR2NB+Eo5UdcXoou7r4WhYpMwuubgHsyWtcUXk5E20u3ePc
nd30cOCsmxb/Mk/rpgqsTBWLh7jpWDYGNjIxpqDc4nAyi5vJODb30u7NJ4u8DwiH
SQJo9toBUVL4CcnoC1AUi2/OO1sURY1um0r8DCofxBQkxGy+o6oQoQCHdb+j5Jez
pwvRRJN7xbf2x8HOTE+HKAv9dkeN2K0nFwXVbnb0KkdmnOU/e292CwgVVEFYsaUR
fe/4Eq+L2WiAJfNdwvXaoYF7AkmZ5SremNptY0v6ygnnX2UCiW8nIEAynNEIDpoB
9ZUEAgaWrpi29Z3g8A==
-----END CERTIFICATE-----
