Certificate:
    Data:
        Version: 3 (0x2)
        Serial Number: 33 (0x21)
    Signature Algorithm: sha256WithRSAEncryption
        Issuer: C=US, ST=California, L=Santa Clara, O=pkg5, CN=ch1.4_ta3/emailAddress=ch1.4_ta3
        Validity
            Not Before: Nov 11 12:38:32 2017 GMT
            Not After : Aug  7 12:38:32 2020 GMT
        Subject: C=US, ST=California, L=Santa Clara, O=pkg5, CN=cs1_ch1.4_ta3/emailAddress=cs1_ch1.4_ta3
        Subject Public Key Info:
            Public Key Algorithm: rsaEncryption
                Public-Key: (1024 bit)
                Modulus:
                    00:a0:73:07:7a:84:84:e1:c8:91:f1:e1:c8:da:3f:
                    96:72:61:8d:65:2e:dd:22:97:42:3d:c4:45:95:79:
                    b6:f2:d5:50:11:36:5d:67:3e:12:ae:b5:2f:30:65:
                    6f:48:2e:c3:8c:c1:d5:85:78:02:dc:f0:97:83:0a:
                    ec:2f:8c:2d:e7:64:32:39:c6:d0:b6:dc:99:60:97:
                    2b:52:cf:0b:e1:86:19:77:57:98:71:a1:d2:dd:ec:
                    6e:9c:d5:e2:ba:b7:bf:86:6f:78:c8:c9:61:4a:b4:
                    9d:e7:a9:cb:60:35:05:d6:5d:09:45:75:1c:45:4e:
                    44:ae:c8:e6:a3:62:3b:de:3d
                Exponent: 65537 (0x10001)
        X509v3 extensions:
            X509v3 Basic Constraints: critical
                CA:FALSE
            X509v3 Key Usage: critical
                Digital Signature
    Signature Algorithm: sha256WithRSAEncryption
         b1:0d:b1:d1:6d:62:8c:48:8a:5d:81:4b:ca:25:77:da:11:b1:
         0d:af:d6:f6:e9:85:1b:5c:8b:ed:13:bb:33:12:d3:37:5f:2e:
         10:41:43:69:0c:b0:cd:35:0a:10:fd:76:2b:16:44:0e:26:fb:
         66:bf:da:2b:af:f6:4f:a4:d3:64:d3:8a:2d:8a:52:3f:ba:2d:
         32:eb:9e:4d:0f:fa:d9:f7:c6:bd:25:d4:79:1c:55:0a:69:89:
         92:c4:06:d0:81:12:7d:e0:9d:d7:8e:67:df:c2:e8:67:fd:b6:
         98:46:c1:dd:01:ea:40:89:dd:d6:fc:05:28:13:cb:39:b1:49:
         bc:4b:89:f5:fb:7b:98:21:80:61:a5:5f:89:f2:b6:6e:5b:02:
         f5:cd:17:aa:12:34:9a:b8:42:11:0f:e3:f0:5d:b5:cb:03:f1:
         51:30:aa:86:31:2c:d1:56:1c:4f:e2:0c:00:52:4b:29:6b:2c:
         75:c6:1f:1c:bb:75:3a:e1:8b:43:b6:e4:2a:5f:b0:ce:53:cd:
         4c:ea:f0:8f:a4:31:76:7b:aa:8d:ac:49:24:4f:e6:9b:b5:1c:
         d2:21:da:a3:b2:c2:82:c7:22:a9:78:47:bd:33:14:f4:bd:73:
         81:59:89:9d:b6:ec:b5:95:ba:9d:2b:0f:8d:68:30:ff:83:07:
         63:63:c9:8b
-----BEGIN CERTIFICATE-----
MIIDCTCCAfGgAwIBAgIBITANBgkqhkiG9w0BAQsFADB1MQswCQYDVQQGEwJVUzET
MBEGA1UECAwKQ2FsaWZvcm5pYTEUMBIGA1UEBwwLU2FudGEgQ2xhcmExDTALBgNV
BAoMBHBrZzUxEjAQBgNVBAMMCWNoMS40X3RhMzEYMBYGCSqGSIb3DQEJARYJY2gx
LjRfdGEzMB4XDTE3MTExMTEyMzgzMloXDTIwMDgwNzEyMzgzMlowfTELMAkGA1UE
BhMCVVMxEzARBgNVBAgMCkNhbGlmb3JuaWExFDASBgNVBAcMC1NhbnRhIENsYXJh
MQ0wCwYDVQQKDARwa2c1MRYwFAYDVQQDDA1jczFfY2gxLjRfdGEzMRwwGgYJKoZI
hvcNAQkBFg1jczFfY2gxLjRfdGEzMIGfMA0GCSqGSIb3DQEBAQUAA4GNADCBiQKB
gQCgcwd6hIThyJHx4cjaP5ZyYY1lLt0il0I9xEWVebby1VARNl1nPhKutS8wZW9I
LsOMwdWFeALc8JeDCuwvjC3nZDI5xtC23JlglytSzwvhhhl3V5hxodLd7G6c1eK6
t7+Gb3jIyWFKtJ3nqctgNQXWXQlFdRxFTkSuyOajYjvePQIDAQABoyAwHjAMBgNV
HRMBAf8EAjAAMA4GA1UdDwEB/wQEAwIHgDANBgkqhkiG9w0BAQsFAAOCAQEAsQ2x
0W1ijEiKXYFLyiV32hGxDa/W9umFG1yL7RO7MxLTN18uEEFDaQywzTUKEP12KxZE
Dib7Zr/aK6/2T6TTZNOKLYpSP7otMuueTQ/62ffGvSXUeRxVCmmJksQG0IESfeCd
145n38LoZ/22mEbB3QHqQInd1vwFKBPLObFJvEuJ9ft7mCGAYaVfifK2blsC9c0X
qhI0mrhCEQ/j8F21ywPxUTCqhjEs0VYcT+IMAFJLKWssdcYfHLt1OuGLQ7bkKl+w
zlPNTOrwj6QxdnuqjaxJJE/mm7Uc0iHao7LCgsciqXhHvTMU9L1zgVmJnbbstZW6
nSsPjWgw/4MHY2PJiw==
-----END CERTIFICATE-----
