Certificate:
    Data:
        Version: 3 (0x2)
        Serial Number: 41 (0x29)
    Signature Algorithm: sha256WithRSAEncryption
        Issuer: C=US, ST=California, L=Santa Clara, O=pkg5, CN=ch1_ta5/emailAddress=ch1_ta5
        Validity
            Not Before: Nov 11 12:38:34 2017 GMT
            Not After : Aug  7 12:38:34 2020 GMT
        Subject: C=US, ST=California, L=Santa Clara, O=pkg5, CN=cs1_ch1_ta5/emailAddress=cs1_ch1_ta5
        Subject Public Key Info:
            Public Key Algorithm: rsaEncryption
                Public-Key: (1024 bit)
                Modulus:
                    00:b4:a1:24:39:61:bf:21:20:87:20:0a:02:ca:e5:
                    3e:52:c1:41:70:d8:af:b2:c2:e1:86:a5:60:2b:1c:
                    ea:b1:79:a5:3a:81:7b:e2:de:43:8c:d9:2e:e5:18:
                    1a:bf:a0:5b:c4:d0:b4:65:72:b7:56:3c:da:cc:83:
                    cf:da:1a:31:f4:f8:60:4a:96:37:18:50:dd:1d:15:
                    7b:70:2e:2a:24:72:11:58:9d:7a:ec:ff:6f:d7:d5:
                    ca:b0:3a:c1:05:20:43:8f:73:f6:3e:f4:8f:08:04:
                    6c:8f:32:e6:6b:31:b0:9d:4a:86:d1:ed:17:81:87:
                    cd:7f:73:5a:08:0f:e5:7c:b3
                Exponent: 65537 (0x10001)
        X509v3 extensions:
            X509v3 Basic Constraints: critical
                CA:FALSE
            X509v3 Key Usage: critical
                Digital Signature
    Signature Algorithm: sha256WithRSAEncryption
         85:99:d1:5e:8f:cc:6c:69:b0:a7:fa:a9:85:fe:bc:d6:80:d7:
         b7:2b:a7:9d:39:a5:ee:8e:c4:f4:1a:76:6b:97:95:6d:b3:af:
         cc:b5:27:ee:3c:c9:a3:7c:14:a1:87:14:97:13:2e:a8:20:9b:
         25:ee:53:08:4b:7a:b6:12:87:c8:d8:8d:84:1d:c3:5a:28:44:
         8f:02:74:9f:74:c8:5d:3a:2f:1f:eb:d4:4c:61:b1:4a:c0:54:
         f0:ee:4d:d7:ad:74:33:d8:04:a6:bd:cd:3b:55:d1:2f:6d:cf:
         4b:27:72:87:c8:e6:45:9f:8b:46:ee:03:0d:5e:0c:e5:aa:f0:
         5b:20:0a:a4:f2:8c:98:b8:b4:50:90:61:8c:52:6b:fb:61:72:
         ae:ce:6c:3f:4b:49:bb:86:e5:ac:79:86:86:0b:86:8e:a6:f4:
         63:f6:66:98:db:f5:c8:99:0e:5a:41:36:eb:e6:ef:c8:83:27:
         9e:40:aa:dc:71:52:96:8d:0a:55:a1:31:9d:da:e0:e6:5d:b7:
         8c:a5:10:b5:ba:b9:7e:5a:a3:db:62:a8:6b:4e:9b:d8:3f:75:
         3b:e9:fd:a9:e6:5d:9d:c3:d6:a5:0f:25:4b:a6:63:ce:4a:d5:
         a6:a9:ec:81:e6:49:7e:4e:c1:2f:d1:5a:4c:88:69:eb:b9:72:
         18:59:5d:80
-----BEGIN CERTIFICATE-----
MIIDATCCAemgAwIBAgIBKTANBgkqhkiG9w0BAQsFADBxMQswCQYDVQQGEwJVUzET
MBEGA1UECAwKQ2FsaWZvcm5pYTEUMBIGA1UEBwwLU2FudGEgQ2xhcmExDTALBgNV
BAoMBHBrZzUxEDAOBgNVBAMMB2NoMV90YTUxFjAUBgkqhkiG9w0BCQEWB2NoMV90
YTUwHhcNMTcxMTExMTIzODM0WhcNMjAwODA3MTIzODM0WjB5MQswCQYDVQQGEwJV
UzETMBEGA1UECAwKQ2FsaWZvcm5pYTEUMBIGA1UEBwwLU2FudGEgQ2xhcmExDTAL
BgNVBAoMBHBrZzUxFDASBgNVBAMMC2NzMV9jaDFfdGE1MRowGAYJKoZIhvcNAQkB
FgtjczFfY2gxX3RhNTCBnzANBgkqhkiG9w0BAQEFAAOBjQAwgYkCgYEAtKEkOWG/
ISCHIAoCyuU+UsFBcNivssLhhqVgKxzqsXmlOoF74t5DjNku5Rgav6BbxNC0ZXK3
VjzazIPP2hox9PhgSpY3GFDdHRV7cC4qJHIRWJ167P9v19XKsDrBBSBDj3P2PvSP
CARsjzLmazGwnUqG0e0XgYfNf3NaCA/lfLMCAwEAAaMgMB4wDAYDVR0TAQH/BAIw
ADAOBgNVHQ8BAf8EBAMCB4AwDQYJKoZIhvcNAQELBQADggEBAIWZ0V6PzGxpsKf6
qYX+vNaA17crp505pe6OxPQadmuXlW2zr8y1J+48yaN8FKGHFJcTLqggmyXuUwhL
erYSh8jYjYQdw1ooRI8CdJ90yF06Lx/r1ExhsUrAVPDuTdetdDPYBKa9zTtV0S9t
z0sncofI5kWfi0buAw1eDOWq8FsgCqTyjJi4tFCQYYxSa/thcq7ObD9LSbuG5ax5
hoYLho6m9GP2Zpjb9ciZDlpBNuvm78iDJ55AqtxxUpaNClWhMZ3a4OZdt4ylELW6
uX5ao9tiqGtOm9g/dTvp/anmXZ3D1qUPJUumY85K1aap7IHmSX5OwS/RWkyIaeu5
chhZXYA=
-----END CERTIFICATE-----
