Certificate:
    Data:
        Version: 3 (0x2)
        Serial Number: 44 (0x2c)
    Signature Algorithm: sha256WithRSAEncryption
        Issuer: C=US, ST=California, L=Santa Clara, O=pkg5, OU=ta7, CN=localhost/emailAddress=ta7
        Validity
            Not Before: Jul  3 14:14:04 2018 GMT
            Not After : Mar 29 14:14:04 2021 GMT
        Subject: C=US, ST=California, L=Santa Clara, O=pkg5, OU=cs1_ta7, CN=localhost/emailAddress=cs1_ta7
        Subject Public Key Info:
            Public Key Algorithm: rsaEncryption
                Public-Key: (1024 bit)
                Modulus:
                    00:ef:ac:b5:96:2a:e6:3d:ef:ea:f6:19:88:eb:56:
                    d1:34:50:b5:dc:3d:30:79:32:91:f1:a3:22:3b:52:
                    1f:1b:4b:e4:2f:09:29:d7:35:3f:61:06:5e:f4:20:
                    61:9d:8a:2e:7d:da:d0:6a:79:da:b3:8e:83:78:d4:
                    2f:66:75:4d:a6:ef:6a:68:df:84:36:9f:2e:cb:f8:
                    13:74:5f:f5:d4:5d:5a:ed:ed:15:e8:d2:a8:7f:78:
                    86:b3:f6:64:77:65:ee:19:eb:96:29:94:2a:ce:ba:
                    60:4e:69:e9:2b:4a:aa:cf:de:24:19:8b:a4:ab:93:
                    d7:af:1b:27:bc:73:72:3d:ed
                Exponent: 65537 (0x10001)
        X509v3 extensions:
            X509v3 Basic Constraints: critical
                CA:FALSE
            X509v3 Key Usage: critical
                Digital Signature
    Signature Algorithm: sha256WithRSAEncryption
         2b:fb:6a:d6:9f:33:97:97:18:e6:a8:04:8b:df:9a:33:64:4b:
         6f:11:67:9a:31:fd:ff:99:a5:da:f3:69:f4:21:22:34:ab:f9:
         e9:a6:10:38:44:a4:01:7e:b7:75:f6:e0:04:fb:66:a1:43:b9:
         5f:f4:c9:13:1c:96:8b:87:b7:01:84:e4:c5:2d:6d:ae:e4:54:
         c6:8d:17:f1:b6:eb:b8:73:39:97:43:84:9f:e7:79:e1:0d:75:
         d1:bc:07:f1:90:0b:3d:ec:19:68:a3:d9:c5:68:7b:73:32:d3:
         b7:23:b8:89:f4:75:bd:0c:49:81:0b:89:d9:92:19:6c:cc:62:
         dc:24:ec:a1:87:eb:c1:08:28:bd:2e:38:4b:73:a8:9f:6f:84:
         e7:a5:bf:b1:40:a0:4f:cc:39:c1:78:3f:17:f4:ef:92:22:09:
         29:62:39:43:47:96:16:57:01:55:4e:3c:fa:38:eb:18:75:e8:
         45:78:81:63:a1:c4:b3:6f:44:a0:2a:28:4c:95:28:91:c9:00:
         f7:4a:d6:e3:25:b5:dd:56:21:da:18:49:79:ec:d8:c4:82:fe:
         8a:bd:8d:cc:f4:35:0e:54:3b:d6:ce:2a:5f:90:52:24:5a:1f:
         28:ac:9a:16:96:86:8f:eb:4e:cc:05:08:d5:25:58:3a:fa:8c:
         0a:49:ae:9a
-----BEGIN CERTIFICATE-----
MIIDGjCCAgKgAwIBAgIBLDANBgkqhkiG9w0BAQsFADB9MQswCQYDVQQGEwJVUzET
MBEGA1UECAwKQ2FsaWZvcm5pYTEUMBIGA1UEBwwLU2FudGEgQ2xhcmExDTALBgNV
BAoMBHBrZzUxDDAKBgNVBAsMA3RhNzESMBAGA1UEAwwJbG9jYWxob3N0MRIwEAYJ
KoZIhvcNAQkBFgN0YTcwHhcNMTgwNzAzMTQxNDA0WhcNMjEwMzI5MTQxNDA0WjCB
hTELMAkGA1UEBhMCVVMxEzARBgNVBAgMCkNhbGlmb3JuaWExFDASBgNVBAcMC1Nh
bnRhIENsYXJhMQ0wCwYDVQQKDARwa2c1MRAwDgYDVQQLDAdjczFfdGE3MRIwEAYD
VQQDDAlsb2NhbGhvc3QxFjAUBgkqhkiG9w0BCQEWB2NzMV90YTcwgZ8wDQYJKoZI
hvcNAQEBBQADgY0AMIGJAoGBAO+stZYq5j3v6vYZiOtW0TRQtdw9MHkykfGjIjtS
HxtL5C8JKdc1P2EGXvQgYZ2KLn3a0Gp52rOOg3jUL2Z1TabvamjfhDafLsv4E3Rf
9dRdWu3tFejSqH94hrP2ZHdl7hnrlimUKs66YE5p6StKqs/eJBmLpKuT168bJ7xz
cj3tAgMBAAGjIDAeMAwGA1UdEwEB/wQCMAAwDgYDVR0PAQH/BAQDAgeAMA0GCSqG
SIb3DQEBCwUAA4IBAQAr+2rWnzOXlxjmqASL35ozZEtvEWeaMf3/maXa82n0ISI0
q/npphA4RKQBfrd19uAE+2ahQ7lf9MkTHJaLh7cBhOTFLW2u5FTGjRfxtuu4czmX
Q4Sf53nhDXXRvAfxkAs97Bloo9nFaHtzMtO3I7iJ9HW9DEmBC4nZkhlszGLcJOyh
h+vBCCi9LjhLc6ifb4Tnpb+xQKBPzDnBeD8X9O+SIgkpYjlDR5YWVwFVTjz6OOsY
dehFeIFjocSzb0SgKihMlSiRyQD3StbjJbXdViHaGEl57NjEgv6KvY3M9DUOVDvW
zipfkFIkWh8orJoWloaP607MBQjVJVg6+owKSa6a
-----END CERTIFICATE-----
