Certificate:
    Data:
        Version: 3 (0x2)
        Serial Number: 39 (0x27)
    Signature Algorithm: sha256WithRSAEncryption
        Issuer: C=US, ST=California, L=Santa Clara, O=pkg5, CN=ch1.1_ta4/emailAddress=ch1.1_ta4
        Validity
            Not Before: Nov 11 12:38:33 2017 GMT
            Not After : Aug  7 12:38:33 2020 GMT
        Subject: C=US, ST=California, L=Santa Clara, O=pkg5, CN=cs1_ch1.1_ta4/emailAddress=cs1_ch1.1_ta4
        Subject Public Key Info:
            Public Key Algorithm: rsaEncryption
                Public-Key: (1024 bit)
                Modulus:
                    00:a9:15:18:d8:2a:a1:7e:4c:38:b2:9e:7b:2a:32:
                    a4:b8:6a:1e:40:79:96:ff:c6:16:ac:ae:01:dc:48:
                    6c:7f:22:cb:9c:f7:8c:9a:1f:0a:fc:a9:73:da:8b:
                    74:1c:27:cf:97:ac:e6:3a:a9:4e:d5:ba:cb:4c:f7:
                    a5:cb:c1:fd:ce:7b:df:38:a6:ae:5e:76:75:58:e8:
                    f7:99:ce:23:69:70:16:68:da:b0:f6:1f:8c:ce:29:
                    2f:9d:c5:92:15:5e:9b:02:de:60:6b:d4:b7:59:c5:
                    10:10:a7:53:26:3a:0d:ab:18:65:c3:b5:77:3c:9c:
                    58:7f:71:1c:6e:f2:78:49:59
                Exponent: 65537 (0x10001)
        X509v3 extensions:
            X509v3 Basic Constraints: critical
                CA:FALSE
            X509v3 CRL Distribution Points: 

                Full Name:
                  URI:http://localhost:12001/file/0/ch1.1_ta4_crl.pem

    Signature Algorithm: sha256WithRSAEncryption
         53:be:85:8a:64:01:24:dd:c4:91:71:f5:0c:32:e5:b4:49:75:
         34:51:e1:6b:59:7b:63:54:18:bf:ea:2e:5d:40:1b:3f:7a:3a:
         67:f1:b1:05:24:5c:f7:b8:9a:fc:1c:ef:19:3b:bb:b0:26:1f:
         30:58:17:48:77:af:b2:9e:20:5c:86:ad:ee:d5:70:36:1f:4c:
         16:ae:6e:77:36:a2:90:bb:73:3f:4b:d8:47:ae:ba:db:3c:af:
         70:54:4c:4f:cf:da:9e:30:a1:68:9c:f6:76:b5:4b:ee:b6:86:
         29:51:7f:4d:c3:28:84:e6:33:1c:4e:3f:8d:2a:00:97:3f:06:
         ca:b8:d6:18:83:37:5f:1a:41:3b:53:7f:fa:ad:50:61:97:ca:
         d5:de:3b:c7:e4:d0:63:62:9d:03:e6:b0:fb:97:df:4f:30:da:
         e3:8e:c1:e7:f4:f0:96:2e:48:de:7d:b7:d6:88:1e:c2:5e:55:
         72:e8:ee:57:08:72:c9:77:79:04:6e:3d:ea:26:8e:ce:ae:57:
         62:06:59:ae:c9:54:95:22:ab:6e:8e:f3:2f:0a:bf:c4:24:16:
         06:5d:a4:d1:8f:c1:1c:21:00:f6:73:24:19:c0:0c:21:78:35:
         bd:f3:7a:0d:00:32:f0:c4:0d:18:b6:1a:94:b2:00:45:f9:db:
         75:f4:01:2a
-----BEGIN CERTIFICATE-----
MIIDOzCCAiOgAwIBAgIBJzANBgkqhkiG9w0BAQsFADB1MQswCQYDVQQGEwJVUzET
MBEGA1UECAwKQ2FsaWZvcm5pYTEUMBIGA1UEBwwLU2FudGEgQ2xhcmExDTALBgNV
BAoMBHBrZzUxEjAQBgNVBAMMCWNoMS4xX3RhNDEYMBYGCSqGSIb3DQEJARYJY2gx
LjFfdGE0MB4XDTE3MTExMTEyMzgzM1oXDTIwMDgwNzEyMzgzM1owfTELMAkGA1UE
BhMCVVMxEzARBgNVBAgMCkNhbGlmb3JuaWExFDASBgNVBAcMC1NhbnRhIENsYXJh
MQ0wCwYDVQQKDARwa2c1MRYwFAYDVQQDDA1jczFfY2gxLjFfdGE0MRwwGgYJKoZI
hvcNAQkBFg1jczFfY2gxLjFfdGE0MIGfMA0GCSqGSIb3DQEBAQUAA4GNADCBiQKB
gQCpFRjYKqF+TDiynnsqMqS4ah5AeZb/xhasrgHcSGx/Isuc94yaHwr8qXPai3Qc
J8+XrOY6qU7VustM96XLwf3Oe984pq5ednVY6PeZziNpcBZo2rD2H4zOKS+dxZIV
XpsC3mBr1LdZxRAQp1MmOg2rGGXDtXc8nFh/cRxu8nhJWQIDAQABo1IwUDAMBgNV
HRMBAf8EAjAAMEAGA1UdHwQ5MDcwNaAzoDGGL2h0dHA6Ly9sb2NhbGhvc3Q6MTIw
MDEvZmlsZS8wL2NoMS4xX3RhNF9jcmwucGVtMA0GCSqGSIb3DQEBCwUAA4IBAQBT
voWKZAEk3cSRcfUMMuW0SXU0UeFrWXtjVBi/6i5dQBs/ejpn8bEFJFz3uJr8HO8Z
O7uwJh8wWBdId6+yniBchq3u1XA2H0wWrm53NqKQu3M/S9hHrrrbPK9wVExPz9qe
MKFonPZ2tUvutoYpUX9NwyiE5jMcTj+NKgCXPwbKuNYYgzdfGkE7U3/6rVBhl8rV
3jvH5NBjYp0D5rD7l99PMNrjjsHn9PCWLkjefbfWiB7CXlVy6O5XCHLJd3kEbj3q
Jo7OrldiBlmuyVSVIqtujvMvCr/EJBYGXaTRj8EcIQD2cyQZwAwheDW983oNADLw
xA0YthqUsgBF+dt19AEq
-----END CERTIFICATE-----
