Certificate:
    Data:
        Version: 3 (0x2)
        Serial Number: 46 (0x2e)
    Signature Algorithm: sha256WithRSAEncryption
        Issuer: C=US, ST=California, L=Santa Clara, O=pkg5, OU=ta9, CN=localhost/emailAddress=ta9
        Validity
            Not Before: Jul  3 14:14:05 2018 GMT
            Not After : Mar 29 14:14:05 2021 GMT
        Subject: C=US, ST=California, L=Santa Clara, O=pkg5, OU=cs1_ta9, CN=localhost/emailAddress=cs1_ta9
        Subject Public Key Info:
            Public Key Algorithm: rsaEncryption
                Public-Key: (1024 bit)
                Modulus:
                    00:d0:f8:8c:c0:89:d3:a6:a5:ab:d1:21:8c:b1:db:
                    fe:f5:66:35:a8:bf:69:31:73:50:d4:9c:aa:a8:04:
                    ce:2c:93:c4:53:46:96:9e:c8:0e:3c:55:7e:99:fb:
                    86:80:3b:27:38:c3:80:7c:71:18:6f:b8:7d:6d:53:
                    15:62:ba:7c:b2:67:6c:00:e6:e1:ae:4e:f4:71:ea:
                    9d:18:85:ea:4a:df:f6:71:08:83:94:71:65:67:52:
                    b5:fc:bd:36:c3:a7:cc:62:02:85:7a:bb:e0:04:ba:
                    5e:34:b3:42:03:00:3b:8f:b9:ab:2d:9a:b6:8c:fd:
                    3f:95:d7:77:c6:f4:33:2a:e9
                Exponent: 65537 (0x10001)
        X509v3 extensions:
            X509v3 Basic Constraints: critical
                CA:FALSE
            X509v3 Key Usage: critical
                Digital Signature
    Signature Algorithm: sha256WithRSAEncryption
         7e:56:40:24:f4:ff:80:66:55:2e:f3:68:cb:b2:0d:10:c5:49:
         da:55:d3:2a:55:67:a3:72:5b:b0:5e:b0:86:c5:45:21:b0:fc:
         66:83:a4:c2:99:ba:c2:76:15:32:81:a0:af:80:23:70:84:42:
         5d:aa:33:ec:56:25:9d:c1:7a:60:2e:bb:14:09:28:4b:69:02:
         75:57:75:50:db:df:5c:e5:c7:81:ca:0e:60:f2:e2:07:f2:c1:
         bb:b6:07:e5:bf:4e:99:1e:e8:3f:a0:32:4a:81:44:09:8b:91:
         37:43:49:1c:f9:7c:92:b0:4b:3d:c5:34:06:d3:93:27:d7:fe:
         54:2c:fa:bc:a2:f0:4b:95:bf:c0:cc:21:63:8e:a4:71:f6:b3:
         b5:85:cb:28:e9:ac:34:8a:58:ee:51:5c:7b:84:93:3b:34:60:
         69:fa:d2:1c:9e:e9:be:05:8d:c2:b1:9c:76:b7:92:ec:d6:3b:
         ce:1f:0b:42:b1:f8:99:d5:d7:26:e1:6d:82:e2:49:9d:97:ff:
         67:ee:9f:85:1d:19:5c:b3:71:cb:9f:11:99:75:f8:ad:ea:f3:
         6d:f5:bb:af:4f:ff:8a:91:07:4f:40:6a:d0:32:b4:95:8c:48:
         bc:a6:c4:60:21:a4:67:6f:98:e4:1e:d9:3e:98:42:0b:5f:0f:
         5d:13:be:24
-----BEGIN CERTIFICATE-----
MIIDGjCCAgKgAwIBAgIBLjANBgkqhkiG9w0BAQsFADB9MQswCQYDVQQGEwJVUzET
MBEGA1UECAwKQ2FsaWZvcm5pYTEUMBIGA1UEBwwLU2FudGEgQ2xhcmExDTALBgNV
BAoMBHBrZzUxDDAKBgNVBAsMA3RhOTESMBAGA1UEAwwJbG9jYWxob3N0MRIwEAYJ
KoZIhvcNAQkBFgN0YTkwHhcNMTgwNzAzMTQxNDA1WhcNMjEwMzI5MTQxNDA1WjCB
hTELMAkGA1UEBhMCVVMxEzARBgNVBAgMCkNhbGlmb3JuaWExFDASBgNVBAcMC1Nh
bnRhIENsYXJhMQ0wCwYDVQQKDARwa2c1MRAwDgYDVQQLDAdjczFfdGE5MRIwEAYD
VQQDDAlsb2NhbGhvc3QxFjAUBgkqhkiG9w0BCQEWB2NzMV90YTkwgZ8wDQYJKoZI
hvcNAQEBBQADgY0AMIGJAoGBAND4jMCJ06alq9EhjLHb/vVmNai/aTFzUNScqqgE
ziyTxFNGlp7IDjxVfpn7hoA7JzjDgHxxGG+4fW1TFWK6fLJnbADm4a5O9HHqnRiF
6krf9nEIg5RxZWdStfy9NsOnzGIChXq74AS6XjSzQgMAO4+5qy2atoz9P5XXd8b0
MyrpAgMBAAGjIDAeMAwGA1UdEwEB/wQCMAAwDgYDVR0PAQH/BAQDAgeAMA0GCSqG
SIb3DQEBCwUAA4IBAQB+VkAk9P+AZlUu82jLsg0QxUnaVdMqVWejcluwXrCGxUUh
sPxmg6TCmbrCdhUygaCvgCNwhEJdqjPsViWdwXpgLrsUCShLaQJ1V3VQ299c5ceB
yg5g8uIH8sG7tgflv06ZHug/oDJKgUQJi5E3Q0kc+XySsEs9xTQG05Mn1/5ULPq8
ovBLlb/AzCFjjqRx9rO1hcso6aw0iljuUVx7hJM7NGBp+tIcnum+BY3CsZx2t5Ls
1jvOHwtCsfiZ1dcm4W2C4kmdl/9n7p+FHRlcs3HLnxGZdfit6vNt9buvT/+KkQdP
QGrQMrSVjEi8psRgIaRnb5jkHtk+mEILXw9dE74k
-----END CERTIFICATE-----
