Certificate:
    Data:
        Version: 3 (0x2)
        Serial Number: 47 (0x2f)
    Signature Algorithm: sha256WithRSAEncryption
        Issuer: C=US, ST=California, L=Santa Clara, O=pkg5, OU=ta10, CN=localhost/emailAddress=ta10
        Validity
            Not Before: Nov 24 01:22:44 2021 GMT
            Not After : Aug 20 01:22:44 2024 GMT
        Subject: C=US, ST=California, L=Santa Clara, O=pkg5, OU=cs1_ta10, CN=localhost/emailAddress=cs1_ta10
        Subject Public Key Info:
            Public Key Algorithm: rsaEncryption
                Public-Key: (1024 bit)
                Modulus:
                    00:d1:b1:77:e1:c8:b0:f8:01:24:cc:1e:b9:ce:0c:
                    10:3e:46:72:8f:29:63:6b:b3:e9:43:06:79:60:e4:
                    fc:af:06:73:99:4b:a6:61:2b:7c:91:1a:58:64:3b:
                    b3:46:21:6c:fa:ea:a9:34:1b:83:39:4c:19:a2:8d:
                    29:a6:6b:30:55:b2:96:0f:7d:8d:57:69:0e:94:4d:
                    b6:77:3c:ea:a5:0a:98:6b:fa:7a:5e:22:78:0c:c3:
                    23:79:68:ee:7c:2f:93:ab:da:8c:02:f1:5b:35:44:
                    c5:cd:64:e7:05:5a:5c:ab:45:58:a4:e0:b7:10:48:
                    30:87:f7:07:96:56:e7:c7:b9
                Exponent: 65537 (0x10001)
        X509v3 extensions:
            X509v3 Basic Constraints: critical
                CA:FALSE
            X509v3 Key Usage: critical
                Digital Signature
    Signature Algorithm: sha256WithRSAEncryption
         73:79:90:46:17:a3:bf:14:47:10:e3:4f:f6:45:72:4a:47:e9:
         a6:a8:5c:7a:5a:4f:73:eb:5d:35:d4:49:a1:eb:a7:3f:3f:d7:
         e3:4e:43:89:76:a9:f7:c0:6c:ae:9d:62:4f:04:cc:77:3c:09:
         ca:ac:79:bc:3f:6f:94:c0:db:76:39:ac:85:db:c3:ad:2f:04:
         eb:0a:b9:87:68:65:ff:8c:31:c7:a3:48:ff:bd:0b:c5:39:cc:
         fd:a1:52:45:74:1c:b5:ee:64:84:e4:c9:89:a0:0a:a8:22:72:
         14:4d:15:22:08:c7:04:a3:4c:7f:b3:0b:ca:9c:a2:14:94:9b:
         b8:28:36:7b:f3:06:d2:c1:d8:91:73:91:74:de:9a:28:3a:4e:
         7e:2c:04:66:e0:c7:bb:c3:4e:26:59:1f:d8:b1:cb:e1:3d:2f:
         d8:48:da:f1:2f:81:1b:ad:d4:cf:57:29:a5:82:80:d3:b2:5b:
         8c:c8:98:46:68:a9:92:0a:e0:3c:c0:6b:88:42:2a:c8:65:44:
         89:cb:0b:16:9e:df:14:4a:27:5b:f0:40:c3:0d:43:42:fb:bd:
         fc:79:d1:4c:55:6a:cb:59:2a:94:5c:36:df:4b:4d:b2:7f:d9:
         c6:63:06:46:1d:c1:d3:69:2c:71:21:e8:fc:f1:bf:d6:f4:7c:
         0e:09:bd:90
-----BEGIN CERTIFICATE-----
MIIDHjCCAgagAwIBAgIBLzANBgkqhkiG9w0BAQsFADB/MQswCQYDVQQGEwJVUzET
MBEGA1UECAwKQ2FsaWZvcm5pYTEUMBIGA1UEBwwLU2FudGEgQ2xhcmExDTALBgNV
BAoMBHBrZzUxDTALBgNVBAsMBHRhMTAxEjAQBgNVBAMMCWxvY2FsaG9zdDETMBEG
CSqGSIb3DQEJARYEdGExMDAeFw0yMTExMjQwMTIyNDRaFw0yNDA4MjAwMTIyNDRa
MIGHMQswCQYDVQQGEwJVUzETMBEGA1UECAwKQ2FsaWZvcm5pYTEUMBIGA1UEBwwL
U2FudGEgQ2xhcmExDTALBgNVBAoMBHBrZzUxETAPBgNVBAsMCGNzMV90YTEwMRIw
EAYDVQQDDAlsb2NhbGhvc3QxFzAVBgkqhkiG9w0BCQEWCGNzMV90YTEwMIGfMA0G
CSqGSIb3DQEBAQUAA4GNADCBiQKBgQDRsXfhyLD4ASTMHrnODBA+RnKPKWNrs+lD
Bnlg5PyvBnOZS6ZhK3yRGlhkO7NGIWz66qk0G4M5TBmijSmmazBVspYPfY1XaQ6U
TbZ3POqlCphr+npeIngMwyN5aO58L5Or2owC8Vs1RMXNZOcFWlyrRVik4LcQSDCH
9weWVufHuQIDAQABoyAwHjAMBgNVHRMBAf8EAjAAMA4GA1UdDwEB/wQEAwIHgDAN
BgkqhkiG9w0BAQsFAAOCAQEAc3mQRhejvxRHEONP9kVySkfppqhcelpPc+tdNdRJ
oeunPz/X405DiXap98Bsrp1iTwTMdzwJyqx5vD9vlMDbdjmshdvDrS8E6wq5h2hl
/4wxx6NI/70LxTnM/aFSRXQcte5khOTJiaAKqCJyFE0VIgjHBKNMf7MLypyiFJSb
uCg2e/MG0sHYkXORdN6aKDpOfiwEZuDHu8NOJlkf2LHL4T0v2Eja8S+BG63Uz1cp
pYKA07JbjMiYRmipkgrgPMBriEIqyGVEicsLFp7fFEonW/BAww1DQvu9/HnRTFVq
y1kqlFw230tNsn/ZxmMGRh3B02kscSHo/PG/1vR8Dgm9kA==
-----END CERTIFICATE-----
