Certificate:
    Data:
        Version: 3 (0x2)
        Serial Number: 43 (0x2b)
    Signature Algorithm: sha256WithRSAEncryption
        Issuer: C=US, ST=California, L=Santa Clara, O=pkg5, OU=ta6, CN=localhost/emailAddress=ta6
        Validity
            Not Before: Nov 24 01:22:44 2021 GMT
            Not After : Aug 20 01:22:44 2024 GMT
        Subject: C=US, ST=California, L=Santa Clara, O=pkg5, OU=cs1_ta6, CN=localhost/emailAddress=cs1_ta6
        Subject Public Key Info:
            Public Key Algorithm: rsaEncryption
                Public-Key: (1024 bit)
                Modulus:
                    00:af:e1:48:f5:de:3f:51:33:c3:bb:19:39:bb:1d:
                    97:6a:00:1e:e5:6f:fd:dc:94:2a:da:a1:b0:4d:c4:
                    16:f4:c4:1f:f1:43:5a:56:eb:11:6b:2d:76:3f:bc:
                    ba:18:26:0c:00:b5:f7:e8:4b:46:3a:44:be:48:9f:
                    2f:0b:3c:55:4c:ea:83:39:f0:ed:4d:6e:7d:f3:8e:
                    ef:86:e8:5a:6b:af:98:b1:d2:07:10:4b:93:be:5e:
                    81:2d:12:78:33:7c:c7:4b:3e:9e:46:30:f8:20:f8:
                    e4:0e:ca:49:6c:34:4b:2f:6c:43:1f:d9:99:a1:fe:
                    1e:b5:6c:b4:73:35:f5:43:b1
                Exponent: 65537 (0x10001)
        X509v3 extensions:
            X509v3 Basic Constraints: critical
                CA:FALSE
            X509v3 Key Usage: critical
                Digital Signature
    Signature Algorithm: sha256WithRSAEncryption
         87:57:ef:bf:06:8f:d2:9a:b5:00:1e:3d:a5:d0:b2:d8:4c:71:
         76:b1:ff:7e:13:ab:95:b6:0e:d1:53:68:81:05:7c:f5:e9:d0:
         e2:ec:8b:73:ad:8e:82:ff:cc:f3:5e:10:35:e1:1a:78:f0:ef:
         c6:c3:c7:b8:15:96:f0:0f:88:4b:05:be:ac:d6:36:c7:e8:25:
         ad:27:65:1f:f0:06:4a:ea:47:f4:bb:0e:e3:45:df:34:61:aa:
         d0:55:b3:d6:7c:4e:4b:25:fc:ca:ae:dc:ad:19:2a:58:31:d5:
         da:f6:e2:6c:7b:cf:a7:5d:0a:77:ba:ad:0f:be:ab:aa:dc:12:
         6a:23:62:83:7e:5b:61:ed:cd:10:f3:9e:80:af:a3:47:6a:f6:
         50:6a:e0:e5:35:d7:c5:63:6c:30:d6:fd:46:f7:f1:d5:3e:d1:
         6d:9a:33:de:cb:a1:24:10:2e:c0:f2:51:77:58:61:cb:47:db:
         39:a0:9d:32:de:f1:ac:00:d9:e2:24:32:2e:e3:81:9e:1c:91:
         41:e3:96:40:38:1d:05:72:d4:b3:83:bf:d3:87:fc:30:a2:91:
         33:ed:0c:d0:68:6c:a7:46:8a:3b:03:bd:a0:06:00:2c:00:32:
         f6:2c:fe:ba:fe:8e:9b:cc:fd:72:cf:39:a6:4b:ec:cf:e4:ff:
         8a:ee:61:b3
-----BEGIN CERTIFICATE-----
MIIDGjCCAgKgAwIBAgIBKzANBgkqhkiG9w0BAQsFADB9MQswCQYDVQQGEwJVUzET
MBEGA1UECAwKQ2FsaWZvcm5pYTEUMBIGA1UEBwwLU2FudGEgQ2xhcmExDTALBgNV
BAoMBHBrZzUxDDAKBgNVBAsMA3RhNjESMBAGA1UEAwwJbG9jYWxob3N0MRIwEAYJ
KoZIhvcNAQkBFgN0YTYwHhcNMjExMTI0MDEyMjQ0WhcNMjQwODIwMDEyMjQ0WjCB
hTELMAkGA1UEBhMCVVMxEzARBgNVBAgMCkNhbGlmb3JuaWExFDASBgNVBAcMC1Nh
bnRhIENsYXJhMQ0wCwYDVQQKDARwa2c1MRAwDgYDVQQLDAdjczFfdGE2MRIwEAYD
VQQDDAlsb2NhbGhvc3QxFjAUBgkqhkiG9w0BCQEWB2NzMV90YTYwgZ8wDQYJKoZI
hvcNAQEBBQADgY0AMIGJAoGBAK/hSPXeP1Ezw7sZObsdl2oAHuVv/dyUKtqhsE3E
FvTEH/FDWlbrEWstdj+8uhgmDAC19+hLRjpEvkifLws8VUzqgznw7U1uffOO74bo
WmuvmLHSBxBLk75egS0SeDN8x0s+nkYw+CD45A7KSWw0Sy9sQx/ZmaH+HrVstHM1
9UOxAgMBAAGjIDAeMAwGA1UdEwEB/wQCMAAwDgYDVR0PAQH/BAQDAgeAMA0GCSqG
SIb3DQEBCwUAA4IBAQCHV++/Bo/SmrUAHj2l0LLYTHF2sf9+E6uVtg7RU2iBBXz1
6dDi7ItzrY6C/8zzXhA14Rp48O/Gw8e4FZbwD4hLBb6s1jbH6CWtJ2Uf8AZK6kf0
uw7jRd80YarQVbPWfE5LJfzKrtytGSpYMdXa9uJse8+nXQp3uq0Pvquq3BJqI2KD
flth7c0Q856Ar6NHavZQauDlNdfFY2ww1v1G9/HVPtFtmjPey6EkEC7A8lF3WGHL
R9s5oJ0y3vGsANniJDIu44GeHJFB45ZAOB0FctSzg7/Th/wwopEz7QzQaGynRoo7
A72gBgAsADL2LP66/o6bzP1yzzmmS+zP5P+K7mGz
-----END CERTIFICATE-----
