Certificate:
    Data:
        Version: 3 (0x2)
        Serial Number: 27 (0x1b)
    Signature Algorithm: sha256WithRSAEncryption
        Issuer: C=US, ST=California, L=Santa Clara, O=pkg5, CN=ch1.1_ta3/emailAddress=ch1.1_ta3
        Validity
            Not Before: Nov 11 12:38:32 2017 GMT
            Not After : Aug  7 12:38:32 2020 GMT
        Subject: C=US, ST=California, L=Santa Clara, O=pkg5, CN=cs1_ch1.1_ta3/emailAddress=cs1_ch1.1_ta3
        Subject Public Key Info:
            Public Key Algorithm: rsaEncryption
                Public-Key: (1024 bit)
                Modulus:
                    00:d3:e1:67:8e:19:ae:48:6d:fc:69:43:c2:b5:33:
                    2f:43:04:4f:a2:64:f0:82:0b:86:7e:d2:1f:13:35:
                    01:cd:7f:b5:16:a0:6b:a9:4c:fe:d3:fa:86:cd:a6:
                    cb:00:41:1a:50:89:6a:f6:c7:98:9f:9d:07:77:27:
                    11:76:8d:17:6a:f9:81:de:d3:b2:ec:fd:35:f3:a5:
                    a1:54:4e:c7:02:e0:2b:58:f9:7b:13:5c:54:42:10:
                    e1:04:62:ca:a6:ba:32:7d:f8:ad:8c:ac:5d:14:c4:
                    6f:ed:91:9d:af:00:3a:27:11:4e:d6:9c:a6:93:df:
                    10:17:59:0a:f1:9e:e8:2f:91
                Exponent: 65537 (0x10001)
        X509v3 extensions:
            X509v3 Basic Constraints: critical
                CA:FALSE
            X509v3 Key Usage: critical
                Digital Signature
    Signature Algorithm: sha256WithRSAEncryption
         2e:70:34:25:f1:a6:69:92:22:ad:cd:26:b7:04:ca:99:47:78:
         9a:2f:6d:ea:93:89:20:89:44:22:81:8d:99:3b:c5:f5:14:fb:
         8c:b9:7e:ab:ca:07:a4:a2:5d:d8:10:09:16:c3:0f:f2:ff:67:
         c0:82:51:ca:c8:61:74:a0:b7:7b:9e:2d:b7:79:3f:dd:1d:e1:
         0d:c8:8a:43:25:53:fd:45:ce:04:5e:31:8b:1b:b8:3b:ae:e9:
         6e:38:c3:d9:4e:85:64:3c:e4:8f:73:c0:c4:ff:08:73:83:cd:
         ee:61:16:5f:5e:b9:ec:af:08:f2:99:c7:ad:fb:03:83:21:24:
         1b:50:c6:30:d9:fd:48:31:f1:be:05:5c:c1:31:f8:83:5d:65:
         bd:de:13:4c:49:fd:14:55:16:21:e3:e9:d9:42:3d:91:d9:f5:
         71:f2:7f:b9:bc:62:19:39:e5:39:a6:31:f0:48:cc:4e:50:61:
         13:19:20:51:5b:23:9c:ec:42:b9:33:f7:09:1e:41:1d:ea:5b:
         4d:22:74:5f:dc:36:a8:12:11:d3:a2:54:c4:4b:d2:24:d6:44:
         ce:cf:08:67:fd:69:7c:94:d3:67:1b:ec:a1:19:44:aa:d2:60:
         52:37:e6:5a:6d:c7:40:00:32:88:9c:f6:49:26:d5:f3:a1:ec:
         fb:2b:9c:89
-----BEGIN CERTIFICATE-----
MIIDCTCCAfGgAwIBAgIBGzANBgkqhkiG9w0BAQsFADB1MQswCQYDVQQGEwJVUzET
MBEGA1UECAwKQ2FsaWZvcm5pYTEUMBIGA1UEBwwLU2FudGEgQ2xhcmExDTALBgNV
BAoMBHBrZzUxEjAQBgNVBAMMCWNoMS4xX3RhMzEYMBYGCSqGSIb3DQEJARYJY2gx
LjFfdGEzMB4XDTE3MTExMTEyMzgzMloXDTIwMDgwNzEyMzgzMlowfTELMAkGA1UE
BhMCVVMxEzARBgNVBAgMCkNhbGlmb3JuaWExFDASBgNVBAcMC1NhbnRhIENsYXJh
MQ0wCwYDVQQKDARwa2c1MRYwFAYDVQQDDA1jczFfY2gxLjFfdGEzMRwwGgYJKoZI
hvcNAQkBFg1jczFfY2gxLjFfdGEzMIGfMA0GCSqGSIb3DQEBAQUAA4GNADCBiQKB
gQDT4WeOGa5IbfxpQ8K1My9DBE+iZPCCC4Z+0h8TNQHNf7UWoGupTP7T+obNpssA
QRpQiWr2x5ifnQd3JxF2jRdq+YHe07Ls/TXzpaFUTscC4CtY+XsTXFRCEOEEYsqm
ujJ9+K2MrF0UxG/tkZ2vADonEU7WnKaT3xAXWQrxnugvkQIDAQABoyAwHjAMBgNV
HRMBAf8EAjAAMA4GA1UdDwEB/wQEAwIHgDANBgkqhkiG9w0BAQsFAAOCAQEALnA0
JfGmaZIirc0mtwTKmUd4mi9t6pOJIIlEIoGNmTvF9RT7jLl+q8oHpKJd2BAJFsMP
8v9nwIJRyshhdKC3e54tt3k/3R3hDciKQyVT/UXOBF4xixu4O67pbjjD2U6FZDzk
j3PAxP8Ic4PN7mEWX1657K8I8pnHrfsDgyEkG1DGMNn9SDHxvgVcwTH4g11lvd4T
TEn9FFUWIePp2UI9kdn1cfJ/ubxiGTnlOaYx8EjMTlBhExkgUVsjnOxCuTP3CR5B
HepbTSJ0X9w2qBIR06JUxEvSJNZEzs8IZ/1pfJTTZxvsoRlEqtJgUjfmWm3HQAAy
iJz2SSbV86Hs+yuciQ==
-----END CERTIFICATE-----
