Certificate:
    Data:
        Version: 3 (0x2)
        Serial Number: 36 (0x24)
    Signature Algorithm: sha256WithRSAEncryption
        Issuer: C=US, ST=California, L=Santa Clara, O=pkg5, CN=ch1_ta4/emailAddress=ch1_ta4
        Validity
            Not Before: Jul  3 14:14:03 2018 GMT
            Not After : Mar 29 14:14:03 2021 GMT
        Subject: C=US, ST=California, L=Santa Clara, O=pkg5, CN=cs1_ch1_ta4/emailAddress=cs1_ch1_ta4
        Subject Public Key Info:
            Public Key Algorithm: rsaEncryption
                Public-Key: (1024 bit)
                Modulus:
                    00:99:fe:06:08:fe:1a:34:91:a4:3d:f0:3f:c0:43:
                    f7:78:14:28:80:b4:f3:3b:96:d0:18:62:8c:92:a3:
                    62:bf:f6:40:37:8c:28:b0:55:eb:42:87:01:23:b2:
                    f5:00:31:9b:f2:7a:1b:08:29:5f:1a:52:0c:9e:0f:
                    6b:ff:82:d5:f9:14:d5:a5:23:06:1f:87:d0:8b:87:
                    b3:f8:51:84:d1:e5:6c:32:15:00:85:4d:85:7e:e4:
                    7a:ca:85:58:13:68:1e:ab:12:e8:19:8f:33:af:e3:
                    bc:e5:a3:94:6c:10:81:ee:94:05:91:63:2c:14:25:
                    2f:13:f7:fd:9d:93:b7:b4:f9
                Exponent: 65537 (0x10001)
        X509v3 extensions:
            X509v3 Basic Constraints: critical
                CA:FALSE
            X509v3 CRL Distribution Points: 

                Full Name:
                  URI:http://localhost:12001/file/0/ch1_ta4_crl.pem

    Signature Algorithm: sha256WithRSAEncryption
         5b:e0:8a:c1:98:f5:53:66:74:76:08:fe:20:7a:e4:6b:16:79:
         d9:6f:f4:99:45:4b:0d:72:5d:b7:2c:94:96:2b:7c:77:73:d0:
         07:0e:c7:9a:64:00:53:3f:b8:08:19:85:45:01:ad:d4:6a:88:
         f0:37:5c:f5:12:b5:0e:49:9d:7c:f5:64:16:f7:6a:8b:61:1c:
         0f:ee:fe:db:74:27:1b:8d:6d:d7:1b:ae:dd:d4:9d:0b:14:2f:
         84:a6:85:f3:f1:e1:ad:57:d7:79:77:ee:9f:53:fa:00:8f:18:
         f1:2d:31:24:63:9c:25:6b:c2:bd:ff:5f:26:ee:2d:f8:e1:8f:
         48:1e:16:bf:48:03:55:b9:64:6d:42:17:39:77:cf:d1:c8:3d:
         0d:84:82:82:1f:9f:31:d2:86:d6:f2:a1:51:a1:a5:76:a7:82:
         56:79:53:9f:d6:92:dd:de:09:c1:a9:e9:99:d4:e6:b9:07:12:
         23:f4:66:fa:0f:34:13:53:f3:e7:03:4b:a4:18:0d:ea:89:64:
         63:89:4f:6a:ac:4d:49:d2:2e:83:58:fc:b2:be:36:96:72:c9:
         a7:a3:a9:dd:42:25:70:64:dd:14:49:d1:c3:78:e0:3b:78:63:
         c2:22:2a:3d:c7:25:84:7a:be:c7:f8:bf:a2:9b:7b:70:f8:04:
         99:ba:7f:9a
-----BEGIN CERTIFICATE-----
MIIDMTCCAhmgAwIBAgIBJDANBgkqhkiG9w0BAQsFADBxMQswCQYDVQQGEwJVUzET
MBEGA1UECAwKQ2FsaWZvcm5pYTEUMBIGA1UEBwwLU2FudGEgQ2xhcmExDTALBgNV
BAoMBHBrZzUxEDAOBgNVBAMMB2NoMV90YTQxFjAUBgkqhkiG9w0BCQEWB2NoMV90
YTQwHhcNMTgwNzAzMTQxNDAzWhcNMjEwMzI5MTQxNDAzWjB5MQswCQYDVQQGEwJV
UzETMBEGA1UECAwKQ2FsaWZvcm5pYTEUMBIGA1UEBwwLU2FudGEgQ2xhcmExDTAL
BgNVBAoMBHBrZzUxFDASBgNVBAMMC2NzMV9jaDFfdGE0MRowGAYJKoZIhvcNAQkB
FgtjczFfY2gxX3RhNDCBnzANBgkqhkiG9w0BAQEFAAOBjQAwgYkCgYEAmf4GCP4a
NJGkPfA/wEP3eBQogLTzO5bQGGKMkqNiv/ZAN4wosFXrQocBI7L1ADGb8nobCClf
GlIMng9r/4LV+RTVpSMGH4fQi4ez+FGE0eVsMhUAhU2FfuR6yoVYE2geqxLoGY8z
r+O85aOUbBCB7pQFkWMsFCUvE/f9nZO3tPkCAwEAAaNQME4wDAYDVR0TAQH/BAIw
ADA+BgNVHR8ENzA1MDOgMaAvhi1odHRwOi8vbG9jYWxob3N0OjEyMDAxL2ZpbGUv
MC9jaDFfdGE0X2NybC5wZW0wDQYJKoZIhvcNAQELBQADggEBAFvgisGY9VNmdHYI
/iB65GsWedlv9JlFSw1yXbcslJYrfHdz0AcOx5pkAFM/uAgZhUUBrdRqiPA3XPUS
tQ5JnXz1ZBb3aothHA/u/tt0JxuNbdcbrt3UnQsUL4SmhfPx4a1X13l37p9T+gCP
GPEtMSRjnCVrwr3/XybuLfjhj0geFr9IA1W5ZG1CFzl3z9HIPQ2EgoIfnzHShtby
oVGhpXanglZ5U5/Wkt3eCcGp6ZnU5rkHEiP0ZvoPNBNT8+cDS6QYDeqJZGOJT2qs
TUnSLoNY/LK+NpZyyaejqd1CJXBk3RRJ0cN44Dt4Y8IiKj3HJYR6vsf4v6Kbe3D4
BJm6f5o=
-----END CERTIFICATE-----
