Certificate:
    Data:
        Version: 3 (0x2)
        Serial Number: 43 (0x2b)
    Signature Algorithm: sha256WithRSAEncryption
        Issuer: C=US, ST=California, L=Santa Clara, O=pkg5, OU=ta7, CN=localhost/emailAddress=ta7
        Validity
            Not Before: Nov 11 12:38:34 2017 GMT
            Not After : Aug  7 12:38:34 2020 GMT
        Subject: C=US, ST=California, L=Santa Clara, O=pkg5, OU=cs1_ta7, CN=localhost/emailAddress=cs1_ta7
        Subject Public Key Info:
            Public Key Algorithm: rsaEncryption
                Public-Key: (1024 bit)
                Modulus:
                    00:b3:d9:28:0b:3b:35:e4:ed:e5:f4:5c:91:ac:72:
                    80:0a:25:2e:ef:ce:82:fd:c3:35:6e:b0:b6:68:30:
                    fe:c2:66:b7:7c:77:9d:11:eb:24:4c:c6:50:36:a0:
                    d6:46:67:0b:c0:4e:c5:bd:72:6a:b6:df:ee:98:47:
                    26:32:c6:5f:d8:ca:26:f7:e9:16:6e:96:3b:db:98:
                    a5:e9:76:61:fd:ab:a1:ea:20:a6:e4:35:de:c7:c4:
                    c8:88:80:7d:15:8f:7f:03:48:e0:47:88:83:90:23:
                    61:67:18:85:4a:b6:a1:48:71:0f:00:99:d4:88:07:
                    18:c7:64:59:71:4b:c0:8c:17
                Exponent: 65537 (0x10001)
        X509v3 extensions:
            X509v3 Basic Constraints: critical
                CA:FALSE
            X509v3 Key Usage: critical
                Digital Signature
    Signature Algorithm: sha256WithRSAEncryption
         97:6c:83:cc:d1:c6:02:30:03:a4:1f:3b:cc:e7:c2:5d:c4:a9:
         4c:b9:63:12:62:5f:39:8f:44:c1:9b:84:29:1d:ea:96:e4:41:
         f6:96:ec:bd:a0:9f:a5:57:23:24:97:04:bf:50:95:11:9a:1a:
         6d:09:c1:b5:84:62:8f:c9:8b:ea:2e:e9:b8:4b:11:78:2d:fb:
         5b:7f:9e:b1:33:40:c4:21:5a:87:d1:1f:98:ff:9e:95:96:22:
         38:f2:23:d7:67:f8:a7:62:2c:09:79:71:fa:53:b0:95:b3:85:
         12:7d:b1:a6:83:62:f7:46:74:7d:18:91:bd:9e:3f:18:2c:cc:
         e8:55:9a:db:31:cb:31:31:49:0c:1a:dd:2f:5b:1d:93:b4:dd:
         36:28:89:59:c6:7b:48:79:29:9f:8c:f0:24:33:69:f8:c2:6d:
         ff:8e:da:04:69:fb:43:6b:66:73:f5:d3:e4:38:89:a2:73:a3:
         34:10:ab:b5:8b:f0:42:bb:24:64:59:4d:d8:8d:27:9c:e2:b7:
         64:74:ee:8f:c0:7d:06:24:5c:56:da:6c:b2:d1:87:d1:1a:27:
         8d:b1:c9:6c:cd:04:04:7d:4c:c1:d9:d6:2a:ff:e3:bb:ff:b9:
         43:4d:4d:c8:58:81:a2:80:0c:1d:f9:5e:a0:07:f6:79:36:5c:
         37:0d:73:76
-----BEGIN CERTIFICATE-----
MIIDGjCCAgKgAwIBAgIBKzANBgkqhkiG9w0BAQsFADB9MQswCQYDVQQGEwJVUzET
MBEGA1UECAwKQ2FsaWZvcm5pYTEUMBIGA1UEBwwLU2FudGEgQ2xhcmExDTALBgNV
BAoMBHBrZzUxDDAKBgNVBAsMA3RhNzESMBAGA1UEAwwJbG9jYWxob3N0MRIwEAYJ
KoZIhvcNAQkBFgN0YTcwHhcNMTcxMTExMTIzODM0WhcNMjAwODA3MTIzODM0WjCB
hTELMAkGA1UEBhMCVVMxEzARBgNVBAgMCkNhbGlmb3JuaWExFDASBgNVBAcMC1Nh
bnRhIENsYXJhMQ0wCwYDVQQKDARwa2c1MRAwDgYDVQQLDAdjczFfdGE3MRIwEAYD
VQQDDAlsb2NhbGhvc3QxFjAUBgkqhkiG9w0BCQEWB2NzMV90YTcwgZ8wDQYJKoZI
hvcNAQEBBQADgY0AMIGJAoGBALPZKAs7NeTt5fRckaxygAolLu/Ogv3DNW6wtmgw
/sJmt3x3nRHrJEzGUDag1kZnC8BOxb1yarbf7phHJjLGX9jKJvfpFm6WO9uYpel2
Yf2roeogpuQ13sfEyIiAfRWPfwNI4EeIg5AjYWcYhUq2oUhxDwCZ1IgHGMdkWXFL
wIwXAgMBAAGjIDAeMAwGA1UdEwEB/wQCMAAwDgYDVR0PAQH/BAQDAgeAMA0GCSqG
SIb3DQEBCwUAA4IBAQCXbIPM0cYCMAOkHzvM58JdxKlMuWMSYl85j0TBm4QpHeqW
5EH2luy9oJ+lVyMklwS/UJURmhptCcG1hGKPyYvqLum4SxF4Lftbf56xM0DEIVqH
0R+Y/56VliI48iPXZ/inYiwJeXH6U7CVs4USfbGmg2L3RnR9GJG9nj8YLMzoVZrb
McsxMUkMGt0vWx2TtN02KIlZxntIeSmfjPAkM2n4wm3/jtoEaftDa2Zz9dPkOImi
c6M0EKu1i/BCuyRkWU3YjSec4rdkdO6PwH0GJFxW2myy0YfRGieNsclszQQEfUzB
2dYq/+O7/7lDTU3IWIGigAwd+V6gB/Z5Nlw3DXN2
-----END CERTIFICATE-----
