Certificate:
    Data:
        Version: 3 (0x2)
        Serial Number: 42 (0x2a)
    Signature Algorithm: sha256WithRSAEncryption
        Issuer: C=US, ST=California, L=Santa Clara, O=pkg5, CN=ch1_ta5/emailAddress=ch1_ta5
        Validity
            Not Before: Nov 24 01:22:44 2021 GMT
            Not After : Aug 20 01:22:44 2024 GMT
        Subject: C=US, ST=California, L=Santa Clara, O=pkg5, CN=cs1_ch1_ta5/emailAddress=cs1_ch1_ta5
        Subject Public Key Info:
            Public Key Algorithm: rsaEncryption
                Public-Key: (1024 bit)
                Modulus:
                    00:98:db:06:b3:5f:64:2b:a1:03:15:34:23:68:35:
                    e0:48:14:d9:b1:0e:11:cf:36:82:15:04:9a:73:38:
                    37:db:42:e3:55:07:44:4b:89:13:3d:26:5f:1c:e9:
                    a8:90:24:28:45:be:42:b0:0a:64:2c:90:e8:39:d6:
                    e7:15:27:af:b1:ce:a3:78:ba:ee:55:72:87:ec:c1:
                    57:a7:6f:0f:f6:22:db:db:65:b4:4a:d9:1d:2f:59:
                    6d:36:65:5f:a1:db:a5:87:7e:7c:a3:12:be:88:37:
                    fc:8d:4e:81:9b:fd:b9:2a:27:b2:13:cb:f4:c4:7b:
                    8f:0e:e8:a4:a2:9b:07:72:4d
                Exponent: 65537 (0x10001)
        X509v3 extensions:
            X509v3 Basic Constraints: critical
                CA:FALSE
            X509v3 Key Usage: critical
                Digital Signature
    Signature Algorithm: sha256WithRSAEncryption
         07:7a:46:a1:54:6f:ac:7c:69:d3:75:9c:3b:cf:85:27:ca:92:
         94:60:05:b0:a0:c8:32:aa:c8:9c:fd:56:33:5a:d2:51:65:97:
         00:f6:ee:6c:e4:ac:98:18:78:8f:84:b1:ed:97:65:0a:2c:8d:
         e8:ae:0a:8c:c1:c5:98:ab:52:fd:78:e4:7f:e5:a4:64:8e:4a:
         b1:3e:82:50:b6:9a:45:90:97:30:7f:39:28:f2:52:ab:0e:c7:
         47:12:b9:58:31:e9:c6:cf:cf:d4:9f:22:56:76:7f:a4:2b:5f:
         a5:d1:92:b1:05:d5:39:dd:03:0a:e5:7c:01:3e:02:0d:e0:b2:
         22:ed:f9:ac:db:b2:79:74:0a:14:98:af:ac:1f:09:41:c2:a8:
         30:2d:cc:f0:8e:1f:3d:19:c6:dd:23:33:87:3b:cf:64:c7:0a:
         be:eb:e8:f4:72:d1:f6:19:2d:a1:98:e8:e2:49:8b:67:3e:5d:
         80:1d:0e:1d:84:e7:a4:e9:11:f2:6b:2e:fa:a9:45:ad:1f:e7:
         97:b7:9e:ed:a9:98:ad:61:26:5b:24:dc:17:2b:da:25:28:e9:
         d0:10:84:88:f6:26:78:e2:68:3a:1d:50:7c:31:38:f2:12:18:
         c5:eb:b1:77:3a:78:4d:2c:0d:da:95:39:28:4e:e5:9a:8a:12:
         bb:73:3f:eb
-----BEGIN CERTIFICATE-----
MIIDATCCAemgAwIBAgIBKjANBgkqhkiG9w0BAQsFADBxMQswCQYDVQQGEwJVUzET
MBEGA1UECAwKQ2FsaWZvcm5pYTEUMBIGA1UEBwwLU2FudGEgQ2xhcmExDTALBgNV
BAoMBHBrZzUxEDAOBgNVBAMMB2NoMV90YTUxFjAUBgkqhkiG9w0BCQEWB2NoMV90
YTUwHhcNMjExMTI0MDEyMjQ0WhcNMjQwODIwMDEyMjQ0WjB5MQswCQYDVQQGEwJV
UzETMBEGA1UECAwKQ2FsaWZvcm5pYTEUMBIGA1UEBwwLU2FudGEgQ2xhcmExDTAL
BgNVBAoMBHBrZzUxFDASBgNVBAMMC2NzMV9jaDFfdGE1MRowGAYJKoZIhvcNAQkB
FgtjczFfY2gxX3RhNTCBnzANBgkqhkiG9w0BAQEFAAOBjQAwgYkCgYEAmNsGs19k
K6EDFTQjaDXgSBTZsQ4RzzaCFQSaczg320LjVQdES4kTPSZfHOmokCQoRb5CsApk
LJDoOdbnFSevsc6jeLruVXKH7MFXp28P9iLb22W0StkdL1ltNmVfodulh358oxK+
iDf8jU6Bm/25KieyE8v0xHuPDuikopsHck0CAwEAAaMgMB4wDAYDVR0TAQH/BAIw
ADAOBgNVHQ8BAf8EBAMCB4AwDQYJKoZIhvcNAQELBQADggEBAAd6RqFUb6x8adN1
nDvPhSfKkpRgBbCgyDKqyJz9VjNa0lFllwD27mzkrJgYeI+Ese2XZQosjeiuCozB
xZirUv145H/lpGSOSrE+glC2mkWQlzB/OSjyUqsOx0cSuVgx6cbPz9SfIlZ2f6Qr
X6XRkrEF1TndAwrlfAE+Ag3gsiLt+azbsnl0ChSYr6wfCUHCqDAtzPCOHz0Zxt0j
M4c7z2THCr7r6PRy0fYZLaGY6OJJi2c+XYAdDh2E56TpEfJrLvqpRa0f55e3nu2p
mK1hJlsk3Bcr2iUo6dAQhIj2JnjiaDodUHwxOPISGMXrsXc6eE0sDdqVOShO5ZqK
ErtzP+s=
-----END CERTIFICATE-----
