Certificate:
    Data:
        Version: 3 (0x2)
        Serial Number: 32 (0x20)
    Signature Algorithm: sha256WithRSAEncryption
        Issuer: C=US, ST=California, L=Santa Clara, O=pkg5, CN=ch1.3_ta3/emailAddress=ch1.3_ta3
        Validity
            Not Before: Nov 24 01:22:42 2021 GMT
            Not After : Aug 20 01:22:42 2024 GMT
        Subject: C=US, ST=California, L=Santa Clara, O=pkg5, CN=cs1_ch1.3_ta3/emailAddress=cs1_ch1.3_ta3
        Subject Public Key Info:
            Public Key Algorithm: rsaEncryption
                Public-Key: (1024 bit)
                Modulus:
                    00:b1:2d:99:fe:46:15:af:6a:5f:7f:7f:7d:ec:cf:
                    04:b7:a9:04:08:ac:4a:57:5f:11:f8:5f:96:a9:c4:
                    33:26:e1:97:1f:c5:13:5a:73:5b:a3:7d:40:b6:ee:
                    54:f9:45:4c:65:4a:fa:f8:d4:f0:a4:2b:0b:f3:9e:
                    2b:9b:8b:09:99:85:9b:e9:10:ea:46:24:a0:19:05:
                    e6:de:67:ae:e7:bb:14:44:4c:06:c9:7f:dd:db:54:
                    62:97:2f:c3:bc:2a:cd:61:ee:98:3e:35:eb:ea:77:
                    9a:ec:7f:57:a0:fc:90:fa:1f:99:a5:4a:72:eb:49:
                    7c:56:cb:fe:8b:60:29:10:19
                Exponent: 65537 (0x10001)
        X509v3 extensions:
            X509v3 Basic Constraints: critical
                CA:FALSE
            X509v3 Key Usage: critical
                Digital Signature
    Signature Algorithm: sha256WithRSAEncryption
         0a:f8:0d:58:a0:10:3a:a8:1c:9a:1b:df:25:79:9e:1f:90:9d:
         de:06:fe:af:e1:4c:79:eb:f0:49:89:dd:78:5f:7c:48:41:d1:
         ba:cd:10:b8:86:27:8a:e6:e8:ae:dc:41:36:59:cf:09:b5:3c:
         2a:bc:df:70:44:c2:81:cd:07:ad:c7:6a:39:dd:7d:00:a3:e5:
         af:6c:4e:3e:2f:c3:1d:94:25:24:d2:29:ad:fd:81:b8:a7:03:
         34:e8:a2:cc:1e:4d:0c:f9:f9:68:0e:57:36:a2:c2:b4:5c:5c:
         00:20:f0:c9:af:11:0a:90:3c:87:1a:85:80:f6:0f:3b:24:78:
         17:eb:fb:48:fc:4d:77:f5:4f:58:a6:d4:db:3f:b9:de:ed:a4:
         cd:a1:f8:f7:7a:0a:d3:5a:06:38:05:88:3b:7b:09:57:bb:07:
         48:f3:16:e7:6e:b8:2b:92:26:e4:df:f1:31:c1:54:8a:12:42:
         fc:17:ae:95:5f:50:c0:58:d6:fa:75:8c:d8:66:bf:3a:b2:6b:
         0b:1b:4c:75:4a:ef:2b:3d:03:f2:ef:1b:f2:07:73:8f:67:5e:
         f7:05:e1:ef:a7:58:c1:87:5d:3f:46:a9:30:fd:8a:79:e6:45:
         c9:fa:17:10:ab:22:92:fa:05:22:3d:c6:e4:c9:5e:fd:d0:47:
         96:dc:a9:5e
-----BEGIN CERTIFICATE-----
MIIDCTCCAfGgAwIBAgIBIDANBgkqhkiG9w0BAQsFADB1MQswCQYDVQQGEwJVUzET
MBEGA1UECAwKQ2FsaWZvcm5pYTEUMBIGA1UEBwwLU2FudGEgQ2xhcmExDTALBgNV
BAoMBHBrZzUxEjAQBgNVBAMMCWNoMS4zX3RhMzEYMBYGCSqGSIb3DQEJARYJY2gx
LjNfdGEzMB4XDTIxMTEyNDAxMjI0MloXDTI0MDgyMDAxMjI0MlowfTELMAkGA1UE
BhMCVVMxEzARBgNVBAgMCkNhbGlmb3JuaWExFDASBgNVBAcMC1NhbnRhIENsYXJh
MQ0wCwYDVQQKDARwa2c1MRYwFAYDVQQDDA1jczFfY2gxLjNfdGEzMRwwGgYJKoZI
hvcNAQkBFg1jczFfY2gxLjNfdGEzMIGfMA0GCSqGSIb3DQEBAQUAA4GNADCBiQKB
gQCxLZn+RhWval9/f33szwS3qQQIrEpXXxH4X5apxDMm4ZcfxRNac1ujfUC27lT5
RUxlSvr41PCkKwvzniubiwmZhZvpEOpGJKAZBebeZ67nuxRETAbJf93bVGKXL8O8
Ks1h7pg+Nevqd5rsf1eg/JD6H5mlSnLrSXxWy/6LYCkQGQIDAQABoyAwHjAMBgNV
HRMBAf8EAjAAMA4GA1UdDwEB/wQEAwIHgDANBgkqhkiG9w0BAQsFAAOCAQEACvgN
WKAQOqgcmhvfJXmeH5Cd3gb+r+FMeevwSYndeF98SEHRus0QuIYniubortxBNlnP
CbU8KrzfcETCgc0HrcdqOd19AKPlr2xOPi/DHZQlJNIprf2BuKcDNOiizB5NDPn5
aA5XNqLCtFxcACDwya8RCpA8hxqFgPYPOyR4F+v7SPxNd/VPWKbU2z+53u2kzaH4
93oK01oGOAWIO3sJV7sHSPMW5264K5Im5N/xMcFUihJC/BeulV9QwFjW+nWM2Ga/
OrJrCxtMdUrvKz0D8u8b8gdzj2de9wXh76dYwYddP0apMP2KeeZFyfoXEKsikvoF
Ij3G5Mle/dBHltypXg==
-----END CERTIFICATE-----
