Certificate:
    Data:
        Version: 3 (0x2)
        Serial Number: 42 (0x2a)
    Signature Algorithm: sha256WithRSAEncryption
        Issuer: C=US, ST=California, L=Santa Clara, O=pkg5, OU=ta6, CN=localhost/emailAddress=ta6
        Validity
            Not Before: Nov 11 12:38:34 2017 GMT
            Not After : Aug  7 12:38:34 2020 GMT
        Subject: C=US, ST=California, L=Santa Clara, O=pkg5, OU=cs1_ta6, CN=localhost/emailAddress=cs1_ta6
        Subject Public Key Info:
            Public Key Algorithm: rsaEncryption
                Public-Key: (1024 bit)
                Modulus:
                    00:aa:98:ec:52:38:e3:77:e0:a9:9e:b4:6b:0f:f9:
                    0f:d4:42:19:4a:f4:e8:b2:b9:03:9a:f6:79:1f:d4:
                    d4:a0:ba:1a:62:ba:0c:1e:9c:03:e1:d6:82:d1:9b:
                    33:8e:bc:33:4d:48:19:9a:81:85:79:11:7d:28:50:
                    07:e1:46:84:81:d5:36:28:31:48:95:6f:2f:ee:fe:
                    fb:46:c3:bd:3c:61:e3:86:6a:a7:c8:4f:94:4e:4b:
                    bf:d3:e9:f2:91:25:31:a1:53:6c:e4:47:ca:22:e1:
                    12:a3:41:83:9b:cc:09:d8:f8:d1:4c:e7:ae:a1:af:
                    5e:93:93:cd:af:f0:77:6c:17
                Exponent: 65537 (0x10001)
        X509v3 extensions:
            X509v3 Basic Constraints: critical
                CA:FALSE
            X509v3 Key Usage: critical
                Digital Signature
    Signature Algorithm: sha256WithRSAEncryption
         58:ad:d8:c0:2a:9a:aa:0c:4d:30:86:2c:27:11:17:5e:66:45:
         93:c4:7e:26:17:05:7d:02:fd:b8:5b:23:68:6c:f0:ef:9d:1f:
         4d:11:07:56:d4:b7:20:98:ff:c6:bd:8b:b8:6d:b8:a0:1f:b9:
         ca:d4:4a:cd:3b:3a:e5:2c:1f:72:0d:ed:b7:61:82:93:4c:1d:
         3f:ee:c8:9a:21:24:6e:fa:45:ea:d1:3f:eb:1a:08:de:79:8b:
         cf:37:3a:5b:32:4a:cc:12:b2:b6:85:66:55:9b:e3:5c:85:04:
         90:e5:b6:91:3e:d2:97:e0:2f:4c:d7:fa:1c:b8:52:5c:5e:1e:
         86:25:52:21:54:b2:00:ec:12:9b:13:7f:58:a5:65:7a:7a:be:
         87:d1:03:4c:5c:54:61:95:ff:19:29:13:51:52:c3:28:b4:e1:
         4e:50:8c:6c:97:25:66:66:f5:7a:62:28:4b:d8:8f:42:6a:03:
         25:f8:0e:a3:b5:1d:24:03:7b:bd:3d:cf:59:00:a5:a2:cf:13:
         33:84:e3:04:b5:43:d9:55:6f:36:c5:f3:4f:04:8b:84:c1:fc:
         99:2a:50:47:5c:32:f1:13:e0:19:10:4b:ba:79:eb:38:a7:95:
         89:f2:f3:ab:43:4c:a0:d3:c6:96:6c:7c:5b:17:a0:94:a7:0d:
         20:e6:d6:d4
-----BEGIN CERTIFICATE-----
MIIDGjCCAgKgAwIBAgIBKjANBgkqhkiG9w0BAQsFADB9MQswCQYDVQQGEwJVUzET
MBEGA1UECAwKQ2FsaWZvcm5pYTEUMBIGA1UEBwwLU2FudGEgQ2xhcmExDTALBgNV
BAoMBHBrZzUxDDAKBgNVBAsMA3RhNjESMBAGA1UEAwwJbG9jYWxob3N0MRIwEAYJ
KoZIhvcNAQkBFgN0YTYwHhcNMTcxMTExMTIzODM0WhcNMjAwODA3MTIzODM0WjCB
hTELMAkGA1UEBhMCVVMxEzARBgNVBAgMCkNhbGlmb3JuaWExFDASBgNVBAcMC1Nh
bnRhIENsYXJhMQ0wCwYDVQQKDARwa2c1MRAwDgYDVQQLDAdjczFfdGE2MRIwEAYD
VQQDDAlsb2NhbGhvc3QxFjAUBgkqhkiG9w0BCQEWB2NzMV90YTYwgZ8wDQYJKoZI
hvcNAQEBBQADgY0AMIGJAoGBAKqY7FI443fgqZ60aw/5D9RCGUr06LK5A5r2eR/U
1KC6GmK6DB6cA+HWgtGbM468M01IGZqBhXkRfShQB+FGhIHVNigxSJVvL+7++0bD
vTxh44Zqp8hPlE5Lv9Pp8pElMaFTbORHyiLhEqNBg5vMCdj40UznrqGvXpOTza/w
d2wXAgMBAAGjIDAeMAwGA1UdEwEB/wQCMAAwDgYDVR0PAQH/BAQDAgeAMA0GCSqG
SIb3DQEBCwUAA4IBAQBYrdjAKpqqDE0whiwnERdeZkWTxH4mFwV9Av24WyNobPDv
nR9NEQdW1LcgmP/GvYu4bbigH7nK1ErNOzrlLB9yDe23YYKTTB0/7siaISRu+kXq
0T/rGgjeeYvPNzpbMkrMErK2hWZVm+NchQSQ5baRPtKX4C9M1/ocuFJcXh6GJVIh
VLIA7BKbE39YpWV6er6H0QNMXFRhlf8ZKRNRUsMotOFOUIxslyVmZvV6YihL2I9C
agMl+A6jtR0kA3u9Pc9ZAKWizxMzhOMEtUPZVW82xfNPBIuEwfyZKlBHXDLxE+AZ
EEu6ees4p5WJ8vOrQ0yg08aWbHxbF6CUpw0g5tbU
-----END CERTIFICATE-----
