Certificate:
    Data:
        Version: 3 (0x2)
        Serial Number: 17 (0x11)
    Signature Algorithm: sha256WithRSAEncryption
        Issuer: C=US, ST=California, L=Santa Clara, O=pkg5, CN=ch1_ta3/emailAddress=ch1_ta3
        Validity
            Not Before: Nov 11 12:38:31 2017 GMT
            Not After : Aug  7 12:38:31 2020 GMT
        Subject: C=US, ST=California, L=Santa Clara, O=pkg5, CN=cs1_ch1_ta3/emailAddress=cs1_ch1_ta3
        Subject Public Key Info:
            Public Key Algorithm: rsaEncryption
                Public-Key: (1024 bit)
                Modulus:
                    00:a2:79:eb:11:01:42:e9:97:38:7f:24:4d:33:53:
                    2a:96:dd:c0:9c:75:1c:f7:29:bf:a0:5c:36:b7:1e:
                    d5:1d:c2:ef:e3:40:de:18:98:93:12:09:c2:c2:55:
                    ba:7d:a5:d8:22:8d:e7:08:6e:e2:8a:57:ec:28:a3:
                    84:67:4f:9b:3d:a0:ed:cc:6a:e5:a1:8a:b4:29:ad:
                    88:81:13:15:b8:3b:1e:f8:a4:1a:e1:94:46:2e:ab:
                    ea:ec:e2:ae:19:63:49:4e:d8:cc:2b:a7:cc:9b:ab:
                    ed:97:88:47:ca:5b:45:0c:38:0b:99:28:3c:cc:3d:
                    be:9c:23:d1:1c:be:2b:b6:9d
                Exponent: 65537 (0x10001)
        X509v3 extensions:
            X509v3 Basic Constraints: critical
                CA:FALSE
            X509v3 Key Usage: critical
                Digital Signature
    Signature Algorithm: sha256WithRSAEncryption
         70:d9:29:03:57:10:78:6b:be:ad:7a:7f:8d:9b:4c:86:57:ce:
         a7:b7:c3:9a:8b:e0:29:59:5f:47:f8:58:21:dc:81:7b:7f:f7:
         04:43:ea:97:90:7d:db:ad:b3:c5:26:db:f5:d9:37:c6:57:5b:
         1e:3b:56:2f:8d:46:d8:ec:bf:4f:13:58:7f:62:d4:32:6a:40:
         5d:da:a5:a4:a2:a4:a9:cd:2d:40:24:27:8a:2a:24:28:9b:c3:
         a1:9d:d6:fa:8a:8b:b1:61:85:d1:25:f3:51:0f:0c:00:58:71:
         d6:69:db:ac:e9:5e:af:0a:86:7a:70:9e:86:dc:72:10:76:8e:
         bb:ca:b2:43:73:c5:22:de:5f:7d:27:4e:f0:61:59:c4:a5:5b:
         7d:88:b7:ed:a6:03:ee:61:f8:ae:89:73:53:45:07:5c:68:49:
         9a:63:28:59:c2:da:43:00:9a:55:12:1d:5d:01:37:c9:32:f2:
         ab:d7:a0:95:c6:74:97:97:22:d3:f7:26:89:dd:2f:2d:02:71:
         39:53:93:b4:04:04:45:e5:97:1f:50:2d:20:99:cf:e3:3c:1f:
         05:28:9a:97:d6:6e:15:9d:73:83:40:d6:01:0a:75:eb:ab:99:
         0a:65:be:cd:50:b7:48:84:7e:3c:c4:f1:35:7c:94:7b:86:82:
         d2:e3:2f:29
-----BEGIN CERTIFICATE-----
MIIDATCCAemgAwIBAgIBETANBgkqhkiG9w0BAQsFADBxMQswCQYDVQQGEwJVUzET
MBEGA1UECAwKQ2FsaWZvcm5pYTEUMBIGA1UEBwwLU2FudGEgQ2xhcmExDTALBgNV
BAoMBHBrZzUxEDAOBgNVBAMMB2NoMV90YTMxFjAUBgkqhkiG9w0BCQEWB2NoMV90
YTMwHhcNMTcxMTExMTIzODMxWhcNMjAwODA3MTIzODMxWjB5MQswCQYDVQQGEwJV
UzETMBEGA1UECAwKQ2FsaWZvcm5pYTEUMBIGA1UEBwwLU2FudGEgQ2xhcmExDTAL
BgNVBAoMBHBrZzUxFDASBgNVBAMMC2NzMV9jaDFfdGEzMRowGAYJKoZIhvcNAQkB
FgtjczFfY2gxX3RhMzCBnzANBgkqhkiG9w0BAQEFAAOBjQAwgYkCgYEAonnrEQFC
6Zc4fyRNM1Mqlt3AnHUc9ym/oFw2tx7VHcLv40DeGJiTEgnCwlW6faXYIo3nCG7i
ilfsKKOEZ0+bPaDtzGrloYq0Ka2IgRMVuDse+KQa4ZRGLqvq7OKuGWNJTtjMK6fM
m6vtl4hHyltFDDgLmSg8zD2+nCPRHL4rtp0CAwEAAaMgMB4wDAYDVR0TAQH/BAIw
ADAOBgNVHQ8BAf8EBAMCB4AwDQYJKoZIhvcNAQELBQADggEBAHDZKQNXEHhrvq16
f42bTIZXzqe3w5qL4ClZX0f4WCHcgXt/9wRD6peQfduts8Um2/XZN8ZXWx47Vi+N
Rtjsv08TWH9i1DJqQF3apaSipKnNLUAkJ4oqJCibw6Gd1vqKi7FhhdEl81EPDABY
cdZp26zpXq8KhnpwnobcchB2jrvKskNzxSLeX30nTvBhWcSlW32It+2mA+5h+K6J
c1NFB1xoSZpjKFnC2kMAmlUSHV0BN8ky8qvXoJXGdJeXItP3JondLy0CcTlTk7QE
BEXllx9QLSCZz+M8HwUompfWbhWdc4NA1gEKdeurmQplvs1Qt0iEfjzE8TV8lHuG
gtLjLyk=
-----END CERTIFICATE-----
