Certificate:
    Data:
        Version: 3 (0x2)
        Serial Number: 28 (0x1c)
    Signature Algorithm: sha256WithRSAEncryption
        Issuer: C=US, ST=California, L=Santa Clara, O=pkg5, CN=ch1.1_ta3/emailAddress=ch1.1_ta3
        Validity
            Not Before: Nov 24 01:22:42 2021 GMT
            Not After : Aug 20 01:22:42 2024 GMT
        Subject: C=US, ST=California, L=Santa Clara, O=pkg5, CN=cs1_ch1.1_ta3/emailAddress=cs1_ch1.1_ta3
        Subject Public Key Info:
            Public Key Algorithm: rsaEncryption
                Public-Key: (1024 bit)
                Modulus:
                    00:ab:ae:96:8b:05:f9:9e:05:25:66:3a:ba:7b:cc:
                    47:31:f9:c6:14:d2:09:f2:94:80:02:d8:e6:d1:23:
                    db:52:5f:f7:5f:79:f6:46:f5:e2:c8:65:4c:37:8d:
                    fa:83:64:63:ed:52:75:8e:a0:6c:bb:7e:b3:eb:ac:
                    74:ff:be:90:38:9b:2b:1e:4c:37:09:6b:33:98:19:
                    b7:a4:59:6c:23:6e:49:a2:19:ed:af:03:ee:71:80:
                    44:21:9c:4a:dc:e1:50:a3:2a:31:42:9e:61:6e:13:
                    6e:ba:13:20:90:36:e1:f6:df:ae:b3:cd:fb:ad:40:
                    bb:1d:0d:f6:bd:87:7a:ca:b5
                Exponent: 65537 (0x10001)
        X509v3 extensions:
            X509v3 Basic Constraints: critical
                CA:FALSE
            X509v3 Key Usage: critical
                Digital Signature
    Signature Algorithm: sha256WithRSAEncryption
         db:02:55:10:d7:fc:59:99:ef:04:75:e1:f5:38:5d:42:12:71:
         de:3b:32:01:2d:1e:74:cf:17:f7:eb:8a:15:67:54:33:d6:5f:
         70:34:ac:8c:cb:b0:82:e1:44:6d:c1:15:ce:4e:2b:5f:0e:43:
         65:7d:b8:17:32:c9:cf:a1:93:87:28:c2:81:50:95:7e:ab:90:
         41:57:c1:75:03:44:8b:86:21:07:c8:9a:11:1c:10:d8:c7:b0:
         a8:ea:8a:d8:f3:48:74:a8:77:9c:96:ed:b3:8a:ba:2f:5d:47:
         9b:c1:1f:fe:4e:55:5a:41:50:1b:1e:aa:29:24:5f:b0:5a:92:
         14:e1:24:10:67:5c:cb:a0:fb:87:31:8a:2c:3f:b9:95:4a:ea:
         ec:12:bf:01:5c:de:db:e5:ae:40:84:61:82:55:c6:3b:f0:6c:
         cc:82:78:3f:4e:82:02:8a:aa:b7:9f:1a:55:6f:b3:19:0e:c2:
         08:38:5a:56:3e:94:2a:ba:af:c4:c4:36:db:6d:b9:25:74:e0:
         d2:2e:59:5a:09:80:bf:76:93:85:3a:de:0a:8b:3e:21:af:c5:
         59:20:5c:3d:4d:88:49:13:83:52:2e:8c:ea:4e:19:df:96:75:
         64:d7:71:75:d5:c9:94:84:fe:55:2c:d7:7a:15:d9:41:f2:37:
         92:74:a3:1b
-----BEGIN CERTIFICATE-----
MIIDCTCCAfGgAwIBAgIBHDANBgkqhkiG9w0BAQsFADB1MQswCQYDVQQGEwJVUzET
MBEGA1UECAwKQ2FsaWZvcm5pYTEUMBIGA1UEBwwLU2FudGEgQ2xhcmExDTALBgNV
BAoMBHBrZzUxEjAQBgNVBAMMCWNoMS4xX3RhMzEYMBYGCSqGSIb3DQEJARYJY2gx
LjFfdGEzMB4XDTIxMTEyNDAxMjI0MloXDTI0MDgyMDAxMjI0MlowfTELMAkGA1UE
BhMCVVMxEzARBgNVBAgMCkNhbGlmb3JuaWExFDASBgNVBAcMC1NhbnRhIENsYXJh
MQ0wCwYDVQQKDARwa2c1MRYwFAYDVQQDDA1jczFfY2gxLjFfdGEzMRwwGgYJKoZI
hvcNAQkBFg1jczFfY2gxLjFfdGEzMIGfMA0GCSqGSIb3DQEBAQUAA4GNADCBiQKB
gQCrrpaLBfmeBSVmOrp7zEcx+cYU0gnylIAC2ObRI9tSX/dfefZG9eLIZUw3jfqD
ZGPtUnWOoGy7frPrrHT/vpA4myseTDcJazOYGbekWWwjbkmiGe2vA+5xgEQhnErc
4VCjKjFCnmFuE266EyCQNuH2366zzfutQLsdDfa9h3rKtQIDAQABoyAwHjAMBgNV
HRMBAf8EAjAAMA4GA1UdDwEB/wQEAwIHgDANBgkqhkiG9w0BAQsFAAOCAQEA2wJV
ENf8WZnvBHXh9ThdQhJx3jsyAS0edM8X9+uKFWdUM9ZfcDSsjMuwguFEbcEVzk4r
Xw5DZX24FzLJz6GThyjCgVCVfquQQVfBdQNEi4YhB8iaERwQ2MewqOqK2PNIdKh3
nJbts4q6L11Hm8Ef/k5VWkFQGx6qKSRfsFqSFOEkEGdcy6D7hzGKLD+5lUrq7BK/
AVze2+WuQIRhglXGO/BszIJ4P06CAoqqt58aVW+zGQ7CCDhaVj6UKrqvxMQ22225
JXTg0i5ZWgmAv3aThTreCos+Ia/FWSBcPU2ISRODUi6M6k4Z35Z1ZNdxddXJlIT+
VSzXehXZQfI3knSjGw==
-----END CERTIFICATE-----
