Certificate:
    Data:
        Version: 3 (0x2)
        Serial Number: 15 (0xf)
    Signature Algorithm: sha256WithRSAEncryption
        Issuer: C=US, ST=California, L=Santa Clara, O=pkg5, CN=ta2/emailAddress=ta2
        Validity
            Not Before: Jul  3 14:14:00 2018 GMT
            Not After : Mar 29 14:14:00 2021 GMT
        Subject: C=US, ST=California, L=Santa Clara, O=pkg5, CN=cs1_ta2/emailAddress=cs1_ta2
        Subject Public Key Info:
            Public Key Algorithm: rsaEncryption
                Public-Key: (1024 bit)
                Modulus:
                    00:b9:b7:c7:ac:46:58:77:dd:ac:62:72:c5:8c:11:
                    f0:af:f7:e8:6a:b7:45:df:fe:68:68:1c:d9:f7:af:
                    de:37:15:05:8a:46:52:53:97:57:cf:c7:b9:6b:4e:
                    05:49:0f:3e:be:74:8c:a7:87:c7:33:ba:2d:ea:18:
                    61:82:d3:d0:74:40:30:c3:4c:13:3a:7b:79:6c:25:
                    7d:a6:be:ec:43:c9:1d:1a:6a:d5:51:1a:dc:44:d4:
                    75:78:94:c3:98:71:74:80:99:61:7c:69:4f:08:7e:
                    2b:33:9d:08:e4:b9:3a:27:c7:78:71:c4:5c:1f:c7:
                    68:f7:fd:7c:04:f0:0d:3b:55
                Exponent: 65537 (0x10001)
        X509v3 extensions:
            X509v3 Basic Constraints: critical
                CA:FALSE
            X509v3 Key Usage: critical
                Digital Signature
    Signature Algorithm: sha256WithRSAEncryption
         d1:07:21:93:c5:c8:51:e7:9a:b3:c1:67:ba:6a:23:40:67:85:
         50:70:89:d2:fc:73:d4:a2:65:0d:58:f6:86:c0:10:5a:90:76:
         4f:73:c4:7d:b9:4e:5a:23:60:be:69:b1:b2:e6:e4:d5:12:db:
         65:26:77:0e:e3:48:8d:df:36:81:e8:d7:3d:5d:1e:b0:f3:39:
         16:fb:54:ea:5f:5a:6b:cf:b5:ec:4d:4f:04:1d:8a:05:37:64:
         8a:e8:10:9d:75:dc:57:3a:7d:43:0e:69:68:2c:ed:1c:85:67:
         cd:29:0d:c9:e0:85:c9:50:8a:77:89:1e:8e:cb:0e:a6:14:35:
         51:41:80:14:56:98:b4:9b:59:f1:50:a3:ba:c2:20:ab:8d:e3:
         1e:5c:14:36:fe:4b:fd:4c:66:85:da:0f:dd:1d:48:ba:23:89:
         02:88:f0:17:b1:5d:f1:d6:8f:d1:bb:62:fe:08:c2:d5:68:27:
         2d:7a:13:4e:7b:71:c5:83:38:82:eb:64:f5:23:21:35:8a:3e:
         bc:6c:e8:83:29:80:71:bc:17:d7:76:a5:e0:94:ef:0e:d1:45:
         6a:53:6f:bc:5d:1b:fb:de:48:29:64:b6:80:2f:b9:b2:95:74:
         1a:2a:30:89:c4:0e:d7:7f:30:b7:9a:67:e5:b7:ce:f2:06:0d:
         2e:97:d7:9a
-----BEGIN CERTIFICATE-----
MIIC8TCCAdmgAwIBAgIBDzANBgkqhkiG9w0BAQsFADBpMQswCQYDVQQGEwJVUzET
MBEGA1UECAwKQ2FsaWZvcm5pYTEUMBIGA1UEBwwLU2FudGEgQ2xhcmExDTALBgNV
BAoMBHBrZzUxDDAKBgNVBAMMA3RhMjESMBAGCSqGSIb3DQEJARYDdGEyMB4XDTE4
MDcwMzE0MTQwMFoXDTIxMDMyOTE0MTQwMFowcTELMAkGA1UEBhMCVVMxEzARBgNV
BAgMCkNhbGlmb3JuaWExFDASBgNVBAcMC1NhbnRhIENsYXJhMQ0wCwYDVQQKDARw
a2c1MRAwDgYDVQQDDAdjczFfdGEyMRYwFAYJKoZIhvcNAQkBFgdjczFfdGEyMIGf
MA0GCSqGSIb3DQEBAQUAA4GNADCBiQKBgQC5t8esRlh33axicsWMEfCv9+hqt0Xf
/mhoHNn3r943FQWKRlJTl1fPx7lrTgVJDz6+dIynh8czui3qGGGC09B0QDDDTBM6
e3lsJX2mvuxDyR0aatVRGtxE1HV4lMOYcXSAmWF8aU8IfisznQjkuTonx3hxxFwf
x2j3/XwE8A07VQIDAQABoyAwHjAMBgNVHRMBAf8EAjAAMA4GA1UdDwEB/wQEAwIH
gDANBgkqhkiG9w0BAQsFAAOCAQEA0Qchk8XIUeeas8FnumojQGeFUHCJ0vxz1KJl
DVj2hsAQWpB2T3PEfblOWiNgvmmxsubk1RLbZSZ3DuNIjd82gejXPV0esPM5FvtU
6l9aa8+17E1PBB2KBTdkiugQnXXcVzp9Qw5paCztHIVnzSkNyeCFyVCKd4kejssO
phQ1UUGAFFaYtJtZ8VCjusIgq43jHlwUNv5L/UxmhdoP3R1IuiOJAojwF7Fd8daP
0bti/gjC1WgnLXoTTntxxYM4gutk9SMhNYo+vGzogymAcbwX13al4JTvDtFFalNv
vF0b+95IKWS2gC+5spV0GiowicQO138wt5pn5bfO8gYNLpfXmg==
-----END CERTIFICATE-----
