Certificate:
    Data:
        Version: 3 (0x2)
        Serial Number: 14 (0xe)
    Signature Algorithm: sha256WithRSAEncryption
        Issuer: C=US, ST=California, L=Santa Clara, O=pkg5, CN=ch5.3_ta1/emailAddress=ch5.3_ta1
        Validity
            Not Before: Nov 24 01:22:41 2021 GMT
            Not After : Aug 20 01:22:41 2024 GMT
        Subject: C=US, ST=California, L=Santa Clara, O=pkg5, CN=cs1_ch5.3_ta1/emailAddress=cs1_ch5.3_ta1
        Subject Public Key Info:
            Public Key Algorithm: rsaEncryption
                Public-Key: (1024 bit)
                Modulus:
                    00:b3:54:30:91:62:3c:30:dd:cf:e3:93:96:e0:2a:
                    3e:84:22:2e:48:8e:5d:7c:54:9c:4a:91:46:df:6f:
                    6d:90:a0:49:60:56:05:40:af:a2:82:f2:d7:27:02:
                    6b:c3:f6:ac:c3:9c:cd:3c:15:94:43:ae:a6:36:eb:
                    ce:1b:95:c1:6f:0b:23:00:1a:15:b9:99:90:d2:fb:
                    52:cc:84:56:b5:17:38:04:84:0c:38:f0:99:ef:9b:
                    e3:c8:59:ca:e6:2a:78:b6:c2:b2:a6:cc:d6:f2:e7:
                    35:29:07:ae:c9:b0:64:97:00:c0:4d:ce:7a:0e:73:
                    d5:f4:19:1b:ac:8a:10:18:a7
                Exponent: 65537 (0x10001)
        X509v3 extensions:
            X509v3 Basic Constraints: critical
                CA:FALSE
            X509v3 Key Usage: critical
                Digital Signature
    Signature Algorithm: sha256WithRSAEncryption
         66:a8:81:0a:ad:07:71:b4:2b:4d:43:dc:a6:eb:93:fb:7b:0d:
         38:26:0c:04:43:e3:89:11:dc:7e:e6:f7:b6:b5:c5:5d:3e:15:
         63:1f:bc:5a:87:ec:c3:19:c9:56:62:f9:b5:c5:dd:a8:39:5c:
         cf:02:df:3f:ff:79:96:86:7d:63:1e:a8:d8:9a:74:65:39:cd:
         ec:84:7d:3a:2b:f5:62:69:68:29:4d:88:16:90:48:fa:d8:c9:
         33:07:7f:5a:44:77:e2:06:bd:9d:06:0a:12:9c:a2:08:71:9e:
         87:bf:00:79:79:04:92:12:2f:88:b1:96:de:15:59:00:47:3c:
         a0:18:29:e4:6f:bb:69:70:28:9e:17:d4:c7:c7:8f:be:f7:be:
         fd:3e:cf:c2:40:bd:a2:56:aa:1b:f8:ae:cf:0a:80:13:8c:07:
         73:d3:95:8a:33:52:1c:19:c5:16:7e:52:d8:54:1c:d0:06:8a:
         ba:22:b7:55:e0:42:2a:2d:6a:42:6e:f3:e6:6a:3b:a1:42:aa:
         dd:30:51:36:88:3c:3d:73:dd:bf:84:88:96:89:39:58:f7:d2:
         eb:b2:cb:3e:dd:2c:94:a5:08:6c:9b:b3:8a:b4:04:16:e9:6b:
         4f:72:4f:a4:e8:1a:e7:81:7e:94:5b:e1:f1:40:8d:45:7d:7b:
         6f:cf:57:55
-----BEGIN CERTIFICATE-----
MIIDCTCCAfGgAwIBAgIBDjANBgkqhkiG9w0BAQsFADB1MQswCQYDVQQGEwJVUzET
MBEGA1UECAwKQ2FsaWZvcm5pYTEUMBIGA1UEBwwLU2FudGEgQ2xhcmExDTALBgNV
BAoMBHBrZzUxEjAQBgNVBAMMCWNoNS4zX3RhMTEYMBYGCSqGSIb3DQEJARYJY2g1
LjNfdGExMB4XDTIxMTEyNDAxMjI0MVoXDTI0MDgyMDAxMjI0MVowfTELMAkGA1UE
BhMCVVMxEzARBgNVBAgMCkNhbGlmb3JuaWExFDASBgNVBAcMC1NhbnRhIENsYXJh
MQ0wCwYDVQQKDARwa2c1MRYwFAYDVQQDDA1jczFfY2g1LjNfdGExMRwwGgYJKoZI
hvcNAQkBFg1jczFfY2g1LjNfdGExMIGfMA0GCSqGSIb3DQEBAQUAA4GNADCBiQKB
gQCzVDCRYjww3c/jk5bgKj6EIi5Ijl18VJxKkUbfb22QoElgVgVAr6KC8tcnAmvD
9qzDnM08FZRDrqY2684blcFvCyMAGhW5mZDS+1LMhFa1FzgEhAw48Jnvm+PIWcrm
Kni2wrKmzNby5zUpB67JsGSXAMBNznoOc9X0GRusihAYpwIDAQABoyAwHjAMBgNV
HRMBAf8EAjAAMA4GA1UdDwEB/wQEAwIHgDANBgkqhkiG9w0BAQsFAAOCAQEAZqiB
Cq0HcbQrTUPcpuuT+3sNOCYMBEPjiRHcfub3trXFXT4VYx+8WofswxnJVmL5tcXd
qDlczwLfP/95loZ9Yx6o2Jp0ZTnN7IR9Oiv1YmloKU2IFpBI+tjJMwd/WkR34ga9
nQYKEpyiCHGeh78AeXkEkhIviLGW3hVZAEc8oBgp5G+7aXAonhfUx8ePvve+/T7P
wkC9olaqG/iuzwqAE4wHc9OVijNSHBnFFn5S2FQc0AaKuiK3VeBCKi1qQm7z5mo7
oUKq3TBRNog8PXPdv4SIlok5WPfS67LLPt0slKUIbJuzirQEFulrT3JPpOga54F+
lFvh8UCNRX17b89XVQ==
-----END CERTIFICATE-----
