Certificate:
    Data:
        Version: 3 (0x2)
        Serial Number: 29 (0x1d)
    Signature Algorithm: sha256WithRSAEncryption
        Issuer: C=US, ST=California, L=Santa Clara, O=pkg5, CN=ch1.2_ta3/emailAddress=ch1.2_ta3
        Validity
            Not Before: Nov 11 12:38:32 2017 GMT
            Not After : Aug  7 12:38:32 2020 GMT
        Subject: C=US, ST=California, L=Santa Clara, O=pkg5, CN=cs1_ch1.2_ta3/emailAddress=cs1_ch1.2_ta3
        Subject Public Key Info:
            Public Key Algorithm: rsaEncryption
                Public-Key: (1024 bit)
                Modulus:
                    00:bf:9f:a5:04:5a:cf:12:e1:51:1f:fc:e7:30:57:
                    d1:83:94:8b:46:63:c3:32:6a:59:35:1b:3c:f4:b7:
                    fc:50:cf:50:b1:1d:93:da:1f:5c:84:39:73:f9:b9:
                    e4:d2:a4:8a:99:b9:78:da:a8:ba:dc:b2:da:e1:f5:
                    10:b0:62:1a:a2:f9:83:d5:82:e2:07:f7:2a:f3:04:
                    b6:2e:fd:6e:61:97:43:84:cf:d8:bc:6e:af:62:ca:
                    e7:a4:2c:f4:6f:ae:6e:d1:93:ef:9d:61:91:3b:3d:
                    05:e7:7a:5c:c3:67:64:75:04:03:37:32:f7:18:5d:
                    a3:d0:50:1e:44:1c:0a:c8:77
                Exponent: 65537 (0x10001)
        X509v3 extensions:
            X509v3 Basic Constraints: critical
                CA:FALSE
            X509v3 Key Usage: critical
                Digital Signature
    Signature Algorithm: sha256WithRSAEncryption
         b2:13:36:90:d1:25:24:a4:49:9f:98:c2:55:eb:b7:fc:d2:03:
         87:5c:25:f1:d4:05:0d:7b:2a:f2:85:54:2c:a6:c7:e2:86:7b:
         d9:3b:65:77:c5:ff:03:ce:d2:e1:8b:7f:ef:8a:d4:39:43:0f:
         5e:20:4a:c7:09:c7:22:cc:6b:42:97:1c:74:d6:b1:1e:72:4e:
         d4:5f:e3:ea:0f:4f:10:60:8b:8b:be:f4:f6:40:bd:7f:14:67:
         9d:cf:3d:c2:c8:f1:9d:4d:3f:cb:c8:1f:5f:f1:64:1c:4a:92:
         a7:27:47:d3:e8:4b:a4:40:cf:f1:90:c5:e4:78:a6:26:41:57:
         83:73:4d:5b:c1:9c:f4:c0:fc:75:c5:36:0d:a7:8f:b9:29:57:
         e7:89:3c:e8:28:50:41:65:35:8e:6e:57:da:7a:91:d8:e0:d2:
         0b:36:c5:0d:eb:7f:7f:68:8c:d1:d5:13:0b:8d:79:99:3a:ff:
         71:e0:e8:7d:4d:b7:54:f1:28:c6:73:e3:54:56:e5:ce:7c:a5:
         68:4f:55:13:d8:a1:e7:df:bb:a2:3e:1a:3b:6e:e2:49:4f:65:
         ac:2d:94:74:70:2a:c8:c8:70:4c:11:7a:79:f9:b6:63:cb:c9:
         56:b0:81:77:1f:1a:bb:e9:b0:a0:2c:be:a7:bc:8a:0f:b3:30:
         1e:32:9c:c1
-----BEGIN CERTIFICATE-----
MIIDCTCCAfGgAwIBAgIBHTANBgkqhkiG9w0BAQsFADB1MQswCQYDVQQGEwJVUzET
MBEGA1UECAwKQ2FsaWZvcm5pYTEUMBIGA1UEBwwLU2FudGEgQ2xhcmExDTALBgNV
BAoMBHBrZzUxEjAQBgNVBAMMCWNoMS4yX3RhMzEYMBYGCSqGSIb3DQEJARYJY2gx
LjJfdGEzMB4XDTE3MTExMTEyMzgzMloXDTIwMDgwNzEyMzgzMlowfTELMAkGA1UE
BhMCVVMxEzARBgNVBAgMCkNhbGlmb3JuaWExFDASBgNVBAcMC1NhbnRhIENsYXJh
MQ0wCwYDVQQKDARwa2c1MRYwFAYDVQQDDA1jczFfY2gxLjJfdGEzMRwwGgYJKoZI
hvcNAQkBFg1jczFfY2gxLjJfdGEzMIGfMA0GCSqGSIb3DQEBAQUAA4GNADCBiQKB
gQC/n6UEWs8S4VEf/OcwV9GDlItGY8Myalk1Gzz0t/xQz1CxHZPaH1yEOXP5ueTS
pIqZuXjaqLrcstrh9RCwYhqi+YPVguIH9yrzBLYu/W5hl0OEz9i8bq9iyuekLPRv
rm7Rk++dYZE7PQXnelzDZ2R1BAM3MvcYXaPQUB5EHArIdwIDAQABoyAwHjAMBgNV
HRMBAf8EAjAAMA4GA1UdDwEB/wQEAwIHgDANBgkqhkiG9w0BAQsFAAOCAQEAshM2
kNElJKRJn5jCVeu3/NIDh1wl8dQFDXsq8oVULKbH4oZ72Ttld8X/A87S4Yt/74rU
OUMPXiBKxwnHIsxrQpccdNaxHnJO1F/j6g9PEGCLi7709kC9fxRnnc89wsjxnU0/
y8gfX/FkHEqSpydH0+hLpEDP8ZDF5HimJkFXg3NNW8Gc9MD8dcU2DaePuSlX54k8
6ChQQWU1jm5X2nqR2ODSCzbFDet/f2iM0dUTC415mTr/ceDofU23VPEoxnPjVFbl
znylaE9VE9ih59+7oj4aO27iSU9lrC2UdHAqyMhwTBF6efm2Y8vJVrCBdx8au+mw
oCy+p7yKD7MwHjKcwQ==
-----END CERTIFICATE-----
