Certificate:
    Data:
        Version: 3 (0x2)
        Serial Number: 43 (0x2b)
    Signature Algorithm: sha256WithRSAEncryption
        Issuer: C=US, ST=California, L=Santa Clara, O=pkg5, OU=ta6, CN=localhost/emailAddress=ta6
        Validity
            Not Before: Jul  3 14:14:04 2018 GMT
            Not After : Mar 29 14:14:04 2021 GMT
        Subject: C=US, ST=California, L=Santa Clara, O=pkg5, OU=cs1_ta6, CN=localhost/emailAddress=cs1_ta6
        Subject Public Key Info:
            Public Key Algorithm: rsaEncryption
                Public-Key: (1024 bit)
                Modulus:
                    00:a1:4e:c4:b9:82:63:76:a7:1c:bf:78:d4:c8:bb:
                    84:63:14:3e:d6:cf:a8:c2:60:15:2b:2b:bf:a4:14:
                    8e:8b:d6:5f:cc:3c:36:aa:7b:8c:4e:ab:7c:e1:38:
                    e2:2a:1f:8e:ae:eb:48:da:e9:87:b5:26:c6:f6:13:
                    cc:df:5d:a8:47:aa:62:af:55:ce:a1:2b:0c:bb:d7:
                    a2:47:a5:14:56:ea:44:10:e3:79:4d:30:d5:07:ba:
                    75:12:a3:d8:d8:4f:93:78:65:92:6a:c5:da:2c:fb:
                    41:5d:4d:77:c0:1c:82:a1:19:70:9d:84:ad:b6:c6:
                    64:0b:b9:df:a0:12:9e:45:a9
                Exponent: 65537 (0x10001)
        X509v3 extensions:
            X509v3 Basic Constraints: critical
                CA:FALSE
            X509v3 Key Usage: critical
                Digital Signature
    Signature Algorithm: sha256WithRSAEncryption
         bf:83:d9:97:85:f6:07:bd:7b:85:b3:f7:6e:2b:57:fc:72:0b:
         d6:07:6e:ce:56:25:0c:ac:1a:c2:a6:e9:c7:24:62:54:3f:6d:
         05:fc:28:30:75:ed:23:5d:c8:0d:9d:6a:62:7d:45:36:02:42:
         4c:92:ca:a6:b6:98:9a:f7:47:85:38:46:36:ac:bc:7c:70:1a:
         75:63:34:76:07:4e:dc:be:1b:88:74:a3:5a:f3:c0:a3:68:85:
         15:22:70:ad:cc:76:03:17:ce:2b:36:ac:b1:3d:b0:90:91:b8:
         c7:fd:3d:f4:dd:05:e0:c7:b6:59:98:76:09:9e:8f:58:13:41:
         7d:eb:5e:42:1e:78:7c:c2:5a:ae:e5:06:ed:28:ed:86:54:72:
         eb:d8:62:12:1c:55:13:7c:61:72:90:82:de:89:4f:32:67:a8:
         92:42:18:94:42:96:fe:58:d9:83:05:22:b3:71:90:b2:45:58:
         3c:e5:7e:86:51:f6:5d:b8:66:4f:3f:54:61:90:8f:f5:98:46:
         4f:cf:6c:9f:e8:12:2d:de:f6:15:33:a1:49:95:d8:87:62:f5:
         bd:12:8b:b9:0d:f4:b4:d7:b8:87:e6:74:02:3d:b2:db:fb:0b:
         6e:c0:61:d0:27:f4:e0:ab:ad:f1:4a:13:6a:76:b1:54:8e:3e:
         75:65:29:a3
-----BEGIN CERTIFICATE-----
MIIDGjCCAgKgAwIBAgIBKzANBgkqhkiG9w0BAQsFADB9MQswCQYDVQQGEwJVUzET
MBEGA1UECAwKQ2FsaWZvcm5pYTEUMBIGA1UEBwwLU2FudGEgQ2xhcmExDTALBgNV
BAoMBHBrZzUxDDAKBgNVBAsMA3RhNjESMBAGA1UEAwwJbG9jYWxob3N0MRIwEAYJ
KoZIhvcNAQkBFgN0YTYwHhcNMTgwNzAzMTQxNDA0WhcNMjEwMzI5MTQxNDA0WjCB
hTELMAkGA1UEBhMCVVMxEzARBgNVBAgMCkNhbGlmb3JuaWExFDASBgNVBAcMC1Nh
bnRhIENsYXJhMQ0wCwYDVQQKDARwa2c1MRAwDgYDVQQLDAdjczFfdGE2MRIwEAYD
VQQDDAlsb2NhbGhvc3QxFjAUBgkqhkiG9w0BCQEWB2NzMV90YTYwgZ8wDQYJKoZI
hvcNAQEBBQADgY0AMIGJAoGBAKFOxLmCY3anHL941Mi7hGMUPtbPqMJgFSsrv6QU
jovWX8w8Nqp7jE6rfOE44iofjq7rSNrph7UmxvYTzN9dqEeqYq9VzqErDLvXokel
FFbqRBDjeU0w1Qe6dRKj2NhPk3hlkmrF2iz7QV1Nd8AcgqEZcJ2ErbbGZAu536AS
nkWpAgMBAAGjIDAeMAwGA1UdEwEB/wQCMAAwDgYDVR0PAQH/BAQDAgeAMA0GCSqG
SIb3DQEBCwUAA4IBAQC/g9mXhfYHvXuFs/duK1f8cgvWB27OViUMrBrCpunHJGJU
P20F/Cgwde0jXcgNnWpifUU2AkJMksqmtpia90eFOEY2rLx8cBp1YzR2B07cvhuI
dKNa88CjaIUVInCtzHYDF84rNqyxPbCQkbjH/T303QXgx7ZZmHYJno9YE0F9615C
Hnh8wlqu5QbtKO2GVHLr2GISHFUTfGFykILeiU8yZ6iSQhiUQpb+WNmDBSKzcZCy
RVg85X6GUfZduGZPP1RhkI/1mEZPz2yf6BIt3vYVM6FJldiHYvW9Eou5DfS017iH
5nQCPbLb+wtuwGHQJ/Tgq63xShNqdrFUjj51ZSmj
-----END CERTIFICATE-----
