Certificate:
    Data:
        Version: 3 (0x2)
        Serial Number: 47 (0x2f)
    Signature Algorithm: sha256WithRSAEncryption
        Issuer: C=US, ST=California, L=Santa Clara, O=pkg5, OU=ta10, CN=localhost/emailAddress=ta10
        Validity
            Not Before: Jul  3 14:14:06 2018 GMT
            Not After : Mar 29 14:14:06 2021 GMT
        Subject: C=US, ST=California, L=Santa Clara, O=pkg5, OU=cs1_ta10, CN=localhost/emailAddress=cs1_ta10
        Subject Public Key Info:
            Public Key Algorithm: rsaEncryption
                Public-Key: (1024 bit)
                Modulus:
                    00:c0:07:4c:44:98:2a:1a:5c:a1:c0:ee:86:79:92:
                    f8:08:bc:b6:4f:31:d8:0d:05:1a:48:e3:d9:19:5c:
                    f1:a4:84:25:29:a5:90:db:dd:5a:47:19:29:18:e0:
                    28:f0:4e:c1:b4:69:ff:9d:d2:61:85:3c:d5:fb:3e:
                    f2:f4:3a:02:80:a3:0d:65:ca:78:b4:ee:2e:cd:56:
                    06:62:96:76:1e:61:c3:d7:3c:b2:9c:c6:4d:03:11:
                    60:b4:77:80:d3:7a:b3:1e:25:db:79:f9:7b:f5:14:
                    10:ad:8e:98:af:ed:41:59:ee:0e:6d:e0:2c:a5:12:
                    e6:9e:fd:b7:c2:f2:7a:2f:db
                Exponent: 65537 (0x10001)
        X509v3 extensions:
            X509v3 Basic Constraints: critical
                CA:FALSE
            X509v3 Key Usage: critical
                Digital Signature
    Signature Algorithm: sha256WithRSAEncryption
         67:6d:f2:78:97:05:ea:11:8b:81:58:a1:64:2f:ef:a7:94:41:
         4f:b9:e7:7b:51:0d:81:f7:e8:76:b0:69:49:66:90:8f:e2:52:
         7c:9e:1c:f1:bc:12:dc:c2:cc:43:23:45:e6:39:6f:ba:83:94:
         4e:20:05:55:a7:33:2b:44:62:e0:cb:53:3f:9a:50:46:d1:c7:
         43:97:15:21:1e:42:fb:bc:f7:e8:ca:1c:07:88:6d:2c:1b:a5:
         d7:34:8c:0a:54:62:54:52:d2:c4:66:9d:d8:3b:d2:c0:f8:fe:
         28:ba:e0:12:e8:84:ce:e1:a1:ab:01:8f:66:db:de:95:8b:6a:
         d5:78:60:73:fc:c4:d4:d6:35:58:b9:3c:56:cf:01:2e:42:ef:
         f7:61:ec:a4:14:a4:3f:5a:7b:10:58:a8:c9:a6:af:aa:1b:df:
         fb:07:df:06:41:a7:81:1a:e6:b9:a2:e4:5e:97:13:24:f4:8b:
         b8:18:41:ed:e9:27:3b:13:9c:a5:1f:83:72:73:51:cb:8c:c6:
         72:43:f0:a8:4e:d0:a3:6f:c6:40:d2:41:f0:4f:5c:0f:f9:f3:
         4c:10:44:64:ad:af:0d:b9:67:93:6d:49:43:26:c3:78:0f:3b:
         ac:0b:af:31:cb:53:c2:5d:fe:97:d2:8e:6e:8c:07:ca:9c:22:
         3f:98:31:f7
-----BEGIN CERTIFICATE-----
MIIDHjCCAgagAwIBAgIBLzANBgkqhkiG9w0BAQsFADB/MQswCQYDVQQGEwJVUzET
MBEGA1UECAwKQ2FsaWZvcm5pYTEUMBIGA1UEBwwLU2FudGEgQ2xhcmExDTALBgNV
BAoMBHBrZzUxDTALBgNVBAsMBHRhMTAxEjAQBgNVBAMMCWxvY2FsaG9zdDETMBEG
CSqGSIb3DQEJARYEdGExMDAeFw0xODA3MDMxNDE0MDZaFw0yMTAzMjkxNDE0MDZa
MIGHMQswCQYDVQQGEwJVUzETMBEGA1UECAwKQ2FsaWZvcm5pYTEUMBIGA1UEBwwL
U2FudGEgQ2xhcmExDTALBgNVBAoMBHBrZzUxETAPBgNVBAsMCGNzMV90YTEwMRIw
EAYDVQQDDAlsb2NhbGhvc3QxFzAVBgkqhkiG9w0BCQEWCGNzMV90YTEwMIGfMA0G
CSqGSIb3DQEBAQUAA4GNADCBiQKBgQDAB0xEmCoaXKHA7oZ5kvgIvLZPMdgNBRpI
49kZXPGkhCUppZDb3VpHGSkY4CjwTsG0af+d0mGFPNX7PvL0OgKAow1lyni07i7N
VgZilnYeYcPXPLKcxk0DEWC0d4DTerMeJdt5+Xv1FBCtjpiv7UFZ7g5t4CylEuae
/bfC8nov2wIDAQABoyAwHjAMBgNVHRMBAf8EAjAAMA4GA1UdDwEB/wQEAwIHgDAN
BgkqhkiG9w0BAQsFAAOCAQEAZ23yeJcF6hGLgVihZC/vp5RBT7nne1ENgffodrBp
SWaQj+JSfJ4c8bwS3MLMQyNF5jlvuoOUTiAFVaczK0Ri4MtTP5pQRtHHQ5cVIR5C
+7z36MocB4htLBul1zSMClRiVFLSxGad2DvSwPj+KLrgEuiEzuGhqwGPZtvelYtq
1Xhgc/zE1NY1WLk8Vs8BLkLv92HspBSkP1p7EFioyaavqhvf+wffBkGngRrmuaLk
XpcTJPSLuBhB7eknOxOcpR+DcnNRy4zGckPwqE7Qo2/GQNJB8E9cD/nzTBBEZK2v
Dblnk21JQybDeA87rAuvMctTwl3+l9KObowHypwiP5gx9w==
-----END CERTIFICATE-----
