Certificate:
    Data:
        Version: 3 (0x2)
        Serial Number: 14 (0xe)
    Signature Algorithm: sha256WithRSAEncryption
        Issuer: C=US, ST=California, L=Santa Clara, O=pkg5, CN=ch5.3_ta1/emailAddress=ch5.3_ta1
        Validity
            Not Before: Nov 11 12:38:30 2017 GMT
            Not After : Aug  7 12:38:30 2020 GMT
        Subject: C=US, ST=California, L=Santa Clara, O=pkg5, CN=cs1_ch5.3_ta1/emailAddress=cs1_ch5.3_ta1
        Subject Public Key Info:
            Public Key Algorithm: rsaEncryption
                Public-Key: (1024 bit)
                Modulus:
                    00:b1:e1:0b:f1:c4:a5:17:c7:af:d7:52:31:2e:8a:
                    92:a1:01:3c:98:a3:aa:57:68:24:06:ba:82:57:f0:
                    2c:28:13:71:70:a5:e2:48:87:eb:7b:a0:b7:21:30:
                    20:01:b7:1e:ca:9d:ea:1b:c3:97:ea:58:1a:9f:27:
                    12:5b:d0:32:2d:e0:c8:b8:98:78:db:f5:8d:20:58:
                    07:a2:83:a4:d6:6e:c0:9d:7f:c0:b6:e0:cf:ce:96:
                    9f:98:cd:b3:ad:d1:a0:9d:45:58:a4:e6:44:39:3c:
                    97:1c:1b:50:e8:1a:16:b2:36:21:38:d6:96:8a:d2:
                    48:53:aa:75:d8:a7:ea:a1:db
                Exponent: 65537 (0x10001)
        X509v3 extensions:
            X509v3 Basic Constraints: critical
                CA:FALSE
            X509v3 Key Usage: critical
                Digital Signature
    Signature Algorithm: sha256WithRSAEncryption
         cf:70:3b:18:d9:7a:64:ed:bd:7f:d9:fa:66:d0:08:aa:2d:88:
         03:30:29:fc:a6:6c:2a:ed:d2:73:d6:25:04:14:da:79:1f:3f:
         f8:6b:7e:a3:b5:38:7f:16:b0:9a:2d:2e:4e:df:78:56:13:5d:
         50:96:51:81:72:04:70:70:81:66:50:c3:30:b1:d9:98:42:83:
         12:39:54:d9:22:aa:46:cd:68:a0:f1:38:84:ac:74:d7:da:b8:
         f3:0c:3f:67:04:5e:43:0f:40:a4:32:87:64:c4:82:8b:0c:71:
         91:14:20:38:19:fa:1b:1a:d3:1f:f9:59:f5:40:c7:86:89:62:
         23:6c:0e:d5:12:39:6d:ef:f0:0c:cf:90:fa:5d:8c:e6:da:fa:
         34:66:f6:f4:39:12:25:81:5a:02:98:ed:e9:69:05:94:72:8e:
         df:9d:7a:69:fb:6a:eb:4a:03:b4:f2:af:e8:71:ff:a6:0a:6d:
         1a:e0:ce:f6:d6:49:26:01:ea:ec:83:4d:59:36:b7:ce:1a:85:
         c8:a6:f0:51:05:3c:ef:92:0a:52:4e:d9:5f:23:4f:97:6f:d0:
         ff:a9:37:4e:50:42:96:f4:4a:1d:60:a2:8c:9c:47:29:cc:8d:
         ba:6c:dd:e1:2c:5f:3b:27:c7:27:5b:e0:d3:75:69:53:63:2a:
         1a:10:bd:61
-----BEGIN CERTIFICATE-----
MIIDCTCCAfGgAwIBAgIBDjANBgkqhkiG9w0BAQsFADB1MQswCQYDVQQGEwJVUzET
MBEGA1UECAwKQ2FsaWZvcm5pYTEUMBIGA1UEBwwLU2FudGEgQ2xhcmExDTALBgNV
BAoMBHBrZzUxEjAQBgNVBAMMCWNoNS4zX3RhMTEYMBYGCSqGSIb3DQEJARYJY2g1
LjNfdGExMB4XDTE3MTExMTEyMzgzMFoXDTIwMDgwNzEyMzgzMFowfTELMAkGA1UE
BhMCVVMxEzARBgNVBAgMCkNhbGlmb3JuaWExFDASBgNVBAcMC1NhbnRhIENsYXJh
MQ0wCwYDVQQKDARwa2c1MRYwFAYDVQQDDA1jczFfY2g1LjNfdGExMRwwGgYJKoZI
hvcNAQkBFg1jczFfY2g1LjNfdGExMIGfMA0GCSqGSIb3DQEBAQUAA4GNADCBiQKB
gQCx4QvxxKUXx6/XUjEuipKhATyYo6pXaCQGuoJX8CwoE3FwpeJIh+t7oLchMCAB
tx7Kneobw5fqWBqfJxJb0DIt4Mi4mHjb9Y0gWAeig6TWbsCdf8C24M/Olp+YzbOt
0aCdRVik5kQ5PJccG1DoGhayNiE41paK0khTqnXYp+qh2wIDAQABoyAwHjAMBgNV
HRMBAf8EAjAAMA4GA1UdDwEB/wQEAwIHgDANBgkqhkiG9w0BAQsFAAOCAQEAz3A7
GNl6ZO29f9n6ZtAIqi2IAzAp/KZsKu3Sc9YlBBTaeR8/+Gt+o7U4fxawmi0uTt94
VhNdUJZRgXIEcHCBZlDDMLHZmEKDEjlU2SKqRs1ooPE4hKx019q48ww/ZwReQw9A
pDKHZMSCiwxxkRQgOBn6GxrTH/lZ9UDHholiI2wO1RI5be/wDM+Q+l2M5tr6NGb2
9DkSJYFaApjt6WkFlHKO3516aftq60oDtPKv6HH/pgptGuDO9tZJJgHq7INNWTa3
zhqFyKbwUQU875IKUk7ZXyNPl2/Q/6k3TlBClvRKHWCijJxHKcyNumzd4SxfOyfH
J1vg03VpU2MqGhC9YQ==
-----END CERTIFICATE-----
