Certificate:
    Data:
        Version: 3 (0x2)
        Serial Number: 7 (0x7)
    Signature Algorithm: sha256WithRSAEncryption
        Issuer: C=US, ST=California, L=Santa Clara, O=pkg5, CN=ch5_ta1/emailAddress=ch5_ta1
        Validity
            Not Before: Nov 24 01:22:41 2021 GMT
            Not After : Aug 20 01:22:41 2024 GMT
        Subject: C=US, ST=California, L=Santa Clara, O=pkg5, CN=cs2_ch5_ta1/emailAddress=cs2_ch5_ta1
        Subject Public Key Info:
            Public Key Algorithm: rsaEncryption
                Public-Key: (1024 bit)
                Modulus:
                    00:cb:31:0e:ff:c3:ff:c3:d2:1b:72:e5:af:34:6f:
                    03:fa:33:bd:62:e7:c6:49:d7:e2:9d:5e:e3:70:c5:
                    f2:ec:f6:02:3b:10:b6:ed:d1:cd:e3:26:1b:ec:50:
                    93:36:a7:d4:a9:12:40:44:e4:75:82:43:24:8b:4a:
                    77:ea:6d:bf:c2:21:c2:4d:c0:4c:c6:ad:1d:44:6a:
                    07:97:c4:71:8c:99:3b:33:d6:60:67:44:39:80:8c:
                    b3:9f:01:d2:1d:f9:01:22:6d:b7:1e:40:e1:9c:b6:
                    f5:a7:57:dc:3a:25:f1:bb:b8:0f:44:eb:a4:be:6e:
                    8e:1c:04:b4:b8:11:11:c7:e3
                Exponent: 65537 (0x10001)
        X509v3 extensions:
            X509v3 Basic Constraints: critical
                CA:FALSE
            X509v3 CRL Distribution Points: 

                Full Name:
                  URI:http://localhost:12001/file/0/ch5_ta1_crl.pem

    Signature Algorithm: sha256WithRSAEncryption
         12:80:95:49:91:2b:ea:9c:ae:95:bf:19:6e:eb:75:aa:63:49:
         2e:dc:48:f1:aa:43:e8:95:8f:e2:e1:06:ad:5b:70:e5:de:00:
         17:41:93:19:54:a2:a1:65:b7:0f:42:60:ea:81:a3:06:43:53:
         cb:db:76:15:51:cb:33:53:16:4a:23:2d:b8:66:fa:32:6b:81:
         11:dd:41:fe:83:b6:91:da:a7:b1:ad:39:fa:e9:74:97:1a:ce:
         2c:59:a6:8f:d5:b8:76:6e:ea:04:bd:32:5d:48:83:cc:77:c5:
         5b:8e:8d:6c:2a:29:ad:a5:78:0d:87:13:c3:c5:6f:f5:be:89:
         28:d6:50:97:c3:bd:b1:2d:83:03:3d:c1:d6:49:87:35:61:2e:
         88:b0:69:7e:81:8e:83:eb:92:c3:91:62:81:ae:e8:39:81:96:
         03:5d:cf:30:ca:0b:6e:54:1d:0b:92:58:68:40:08:60:b4:9f:
         16:b5:a8:68:5b:72:b3:15:cd:f5:f9:36:38:23:5d:66:4d:74:
         d2:dd:09:84:c6:36:e4:22:32:09:30:52:e7:d7:d3:af:10:a5:
         a8:e9:e4:c4:1a:2b:00:48:4c:13:de:98:e4:c0:17:2d:de:f1:
         58:07:72:8c:f1:20:8c:9b:96:8b:f3:f7:60:bf:87:11:6c:91:
         73:30:de:a5
-----BEGIN CERTIFICATE-----
MIIDMTCCAhmgAwIBAgIBBzANBgkqhkiG9w0BAQsFADBxMQswCQYDVQQGEwJVUzET
MBEGA1UECAwKQ2FsaWZvcm5pYTEUMBIGA1UEBwwLU2FudGEgQ2xhcmExDTALBgNV
BAoMBHBrZzUxEDAOBgNVBAMMB2NoNV90YTExFjAUBgkqhkiG9w0BCQEWB2NoNV90
YTEwHhcNMjExMTI0MDEyMjQxWhcNMjQwODIwMDEyMjQxWjB5MQswCQYDVQQGEwJV
UzETMBEGA1UECAwKQ2FsaWZvcm5pYTEUMBIGA1UEBwwLU2FudGEgQ2xhcmExDTAL
BgNVBAoMBHBrZzUxFDASBgNVBAMMC2NzMl9jaDVfdGExMRowGAYJKoZIhvcNAQkB
FgtjczJfY2g1X3RhMTCBnzANBgkqhkiG9w0BAQEFAAOBjQAwgYkCgYEAyzEO/8P/
w9IbcuWvNG8D+jO9YufGSdfinV7jcMXy7PYCOxC27dHN4yYb7FCTNqfUqRJAROR1
gkMki0p36m2/wiHCTcBMxq0dRGoHl8RxjJk7M9ZgZ0Q5gIyznwHSHfkBIm23HkDh
nLb1p1fcOiXxu7gPROukvm6OHAS0uBERx+MCAwEAAaNQME4wDAYDVR0TAQH/BAIw
ADA+BgNVHR8ENzA1MDOgMaAvhi1odHRwOi8vbG9jYWxob3N0OjEyMDAxL2ZpbGUv
MC9jaDVfdGExX2NybC5wZW0wDQYJKoZIhvcNAQELBQADggEBABKAlUmRK+qcrpW/
GW7rdapjSS7cSPGqQ+iVj+LhBq1bcOXeABdBkxlUoqFltw9CYOqBowZDU8vbdhVR
yzNTFkojLbhm+jJrgRHdQf6DtpHap7GtOfrpdJcazixZpo/VuHZu6gS9Ml1Ig8x3
xVuOjWwqKa2leA2HE8PFb/W+iSjWUJfDvbEtgwM9wdZJhzVhLoiwaX6BjoPrksOR
YoGu6DmBlgNdzzDKC25UHQuSWGhACGC0nxa1qGhbcrMVzfX5NjgjXWZNdNLdCYTG
NuQiMgkwUufX068Qpajp5MQaKwBITBPemOTAFy3e8VgHcozxIIyblovz92C/hxFs
kXMw3qU=
-----END CERTIFICATE-----
