Certificate:
    Data:
        Version: 3 (0x2)
        Serial Number: 37 (0x25)
    Signature Algorithm: sha256WithRSAEncryption
        Issuer: C=US, ST=California, L=Santa Clara, O=pkg5, CN=ch1_ta4/emailAddress=ch1_ta4
        Validity
            Not Before: Jul  3 14:14:03 2018 GMT
            Not After : Mar 29 14:14:03 2021 GMT
        Subject: C=US, ST=California, L=Santa Clara, O=pkg5, CN=cs2_ch1_ta4/emailAddress=cs2_ch1_ta4
        Subject Public Key Info:
            Public Key Algorithm: rsaEncryption
                Public-Key: (1024 bit)
                Modulus:
                    00:c2:06:be:80:cf:bf:0d:ab:c8:30:36:39:59:e2:
                    63:cd:c1:89:d5:73:04:f6:2d:da:a0:3c:8d:0d:01:
                    e0:d3:f0:25:37:d5:f0:80:3b:c9:55:d2:ba:ff:b2:
                    d2:a5:bd:cf:b7:bb:89:dd:b3:15:88:95:db:d4:ba:
                    ca:f1:5c:14:7d:89:76:f5:ce:ff:f2:b5:36:00:e6:
                    5b:c3:b5:eb:06:24:89:28:81:ea:83:bc:1b:3f:d7:
                    fc:7f:4d:5f:3a:12:25:16:da:64:47:5b:d6:fb:06:
                    c0:09:58:3e:21:29:96:db:f7:79:e4:93:22:4a:2c:
                    b5:2f:cb:b3:4a:35:af:ff:a3
                Exponent: 65537 (0x10001)
        X509v3 extensions:
            X509v3 Subject Key Identifier: 
                59:E8:21:63:51:65:96:DB:0A:28:7F:F1:79:26:73:57:33:F7:9B:6A
            X509v3 Authority Key Identifier: 
                keyid:AF:51:12:88:C2:0B:00:D2:AB:12:6E:1B:39:A6:3F:63:13:91:96:2D
                DirName:/C=US/ST=California/L=Santa Clara/O=pkg5/CN=ta4/emailAddress=ta4
                serial:23

            X509v3 Basic Constraints: critical
                CA:FALSE
            X509v3 CRL Distribution Points: 

                Full Name:
                  URI:http://localhost:12001/file/0/example_file

    Signature Algorithm: sha256WithRSAEncryption
         7c:39:1a:5d:ff:87:1a:d8:cc:92:fc:05:1a:a8:5b:ea:39:a5:
         ce:fd:0f:d9:b5:8d:86:f9:c9:ee:ae:09:c1:87:d7:d9:e0:5d:
         85:29:32:6d:60:4f:4f:61:f8:54:95:24:1f:2b:12:4f:99:28:
         0d:17:01:88:64:26:95:3e:b5:8a:f6:aa:40:8e:16:48:82:2a:
         9e:6a:3d:0b:ce:77:28:4d:2c:9a:da:bb:f7:b7:40:68:a5:22:
         a6:33:cf:12:05:8c:4a:ef:cd:a9:a2:57:ca:84:1a:3c:26:78:
         7e:e1:75:49:ba:10:3f:79:04:49:5a:2a:30:7c:dc:b3:76:3c:
         ae:ef:b9:d9:03:60:fd:bf:55:1d:ec:f1:b4:9a:e2:59:b2:d4:
         e9:65:37:f6:df:9b:d7:c8:cc:0e:a9:c8:b1:3b:6e:5e:06:e6:
         06:dd:3d:23:df:fb:f4:04:cd:cf:25:ba:ce:8d:2d:ed:ed:c4:
         67:15:00:aa:6c:b3:34:01:34:1f:8e:f7:7d:cf:3d:0e:cf:03:
         d0:7b:e0:86:bf:aa:c0:91:00:7f:eb:8c:38:4e:e3:c5:6e:6e:
         8a:37:23:77:2d:bf:53:67:e4:1c:40:68:29:f3:4d:ef:93:ad:
         c6:47:3d:5c:85:3f:64:f0:2f:b8:c1:92:c7:79:84:12:87:c2:
         81:e6:56:b2
-----BEGIN CERTIFICATE-----
MIID5zCCAs+gAwIBAgIBJTANBgkqhkiG9w0BAQsFADBxMQswCQYDVQQGEwJVUzET
MBEGA1UECAwKQ2FsaWZvcm5pYTEUMBIGA1UEBwwLU2FudGEgQ2xhcmExDTALBgNV
BAoMBHBrZzUxEDAOBgNVBAMMB2NoMV90YTQxFjAUBgkqhkiG9w0BCQEWB2NoMV90
YTQwHhcNMTgwNzAzMTQxNDAzWhcNMjEwMzI5MTQxNDAzWjB5MQswCQYDVQQGEwJV
UzETMBEGA1UECAwKQ2FsaWZvcm5pYTEUMBIGA1UEBwwLU2FudGEgQ2xhcmExDTAL
BgNVBAoMBHBrZzUxFDASBgNVBAMMC2NzMl9jaDFfdGE0MRowGAYJKoZIhvcNAQkB
FgtjczJfY2gxX3RhNDCBnzANBgkqhkiG9w0BAQEFAAOBjQAwgYkCgYEAwga+gM+/
DavIMDY5WeJjzcGJ1XME9i3aoDyNDQHg0/AlN9XwgDvJVdK6/7LSpb3Pt7uJ3bMV
iJXb1LrK8VwUfYl29c7/8rU2AOZbw7XrBiSJKIHqg7wbP9f8f01fOhIlFtpkR1vW
+wbACVg+ISmW2/d55JMiSiy1L8uzSjWv/6MCAwEAAaOCAQQwggEAMB0GA1UdDgQW
BBRZ6CFjUWWW2woof/F5JnNXM/ebajCBkwYDVR0jBIGLMIGIgBSvURKIwgsA0qsS
bhs5pj9jE5GWLaFtpGswaTELMAkGA1UEBhMCVVMxEzARBgNVBAgMCkNhbGlmb3Ju
aWExFDASBgNVBAcMC1NhbnRhIENsYXJhMQ0wCwYDVQQKDARwa2c1MQwwCgYDVQQD
DAN0YTQxEjAQBgkqhkiG9w0BCQEWA3RhNIIBIzAMBgNVHRMBAf8EAjAAMDsGA1Ud
HwQ0MDIwMKAuoCyGKmh0dHA6Ly9sb2NhbGhvc3Q6MTIwMDEvZmlsZS8wL2V4YW1w
bGVfZmlsZTANBgkqhkiG9w0BAQsFAAOCAQEAfDkaXf+HGtjMkvwFGqhb6jmlzv0P
2bWNhvnJ7q4JwYfX2eBdhSkybWBPT2H4VJUkHysST5koDRcBiGQmlT61ivaqQI4W
SIIqnmo9C853KE0smtq797dAaKUipjPPEgWMSu/NqaJXyoQaPCZ4fuF1SboQP3kE
SVoqMHzcs3Y8ru+52QNg/b9VHezxtJriWbLU6WU39t+b18jMDqnIsTtuXgbmBt09
I9/79ATNzyW6zo0t7e3EZxUAqmyzNAE0H473fc89Ds8D0Hvghr+qwJEAf+uMOE7j
xW5uijcjdy2/U2fkHEBoKfNN75Otxkc9XIU/ZPAvuMGSx3mEEofCgeZWsg==
-----END CERTIFICATE-----
