Certificate:
    Data:
        Version: 3 (0x2)
        Serial Number: 37 (0x25)
    Signature Algorithm: sha256WithRSAEncryption
        Issuer: C=US, ST=California, L=Santa Clara, O=pkg5, CN=ch1_ta4/emailAddress=ch1_ta4
        Validity
            Not Before: Nov 24 01:22:43 2021 GMT
            Not After : Aug 20 01:22:43 2024 GMT
        Subject: C=US, ST=California, L=Santa Clara, O=pkg5, CN=cs2_ch1_ta4/emailAddress=cs2_ch1_ta4
        Subject Public Key Info:
            Public Key Algorithm: rsaEncryption
                Public-Key: (1024 bit)
                Modulus:
                    00:bf:80:ef:16:d5:24:12:b5:ee:8d:df:65:3a:90:
                    95:fb:dc:33:8f:4b:14:27:ec:a5:bc:ad:da:a7:fc:
                    97:bc:4f:a4:a5:cc:a8:34:7b:ee:d0:82:0a:63:6e:
                    be:cb:6b:71:f9:52:51:ba:98:c9:4e:8f:69:6a:07:
                    21:5d:83:07:e7:32:98:30:3e:ae:aa:5f:9f:27:26:
                    11:29:8e:ef:67:44:f1:3c:49:5e:59:3a:fd:27:18:
                    cd:fb:2f:e4:34:d0:24:10:37:e7:a0:67:ae:3b:c1:
                    d0:ec:8c:ef:36:31:6f:7e:ea:2e:1f:da:26:17:18:
                    9e:9e:07:21:c4:96:89:5a:4f
                Exponent: 65537 (0x10001)
        X509v3 extensions:
            X509v3 Subject Key Identifier: 
                B6:38:17:A1:0B:E4:19:53:D3:D3:0C:49:1D:EA:43:29:CB:24:F4:9F
            X509v3 Authority Key Identifier: 
                keyid:38:F2:27:3A:F8:D6:D5:23:A4:D9:C7:53:F8:4D:F3:DF:17:78:41:09
                DirName:/C=US/ST=California/L=Santa Clara/O=pkg5/CN=ta4/emailAddress=ta4
                serial:23

            X509v3 Basic Constraints: critical
                CA:FALSE
            X509v3 CRL Distribution Points: 

                Full Name:
                  URI:http://localhost:12001/file/0/example_file

    Signature Algorithm: sha256WithRSAEncryption
         36:cb:21:bb:58:fa:5d:33:4d:0e:56:5c:86:83:ab:ad:c3:94:
         c7:5a:7f:79:39:79:ad:e9:f8:96:e4:a4:28:fa:ee:bd:b8:77:
         c1:78:cf:4b:cd:08:da:df:ff:f4:30:3a:86:ba:39:65:f4:f4:
         ff:b6:4d:c4:a4:da:44:45:5d:62:b3:d0:a0:6d:7f:dc:15:b4:
         d7:cf:70:39:a4:cf:8c:7e:73:b1:68:8e:bc:a1:0a:da:89:8c:
         16:ae:b3:0c:71:ec:9a:ce:f8:87:f4:35:7f:9a:4b:f5:9b:12:
         b8:9c:ee:ca:9b:79:7f:d3:e7:4d:b8:79:15:a7:45:92:8e:dd:
         f3:ac:0b:b8:bc:ac:70:fb:59:31:f8:a3:8d:06:95:3d:ea:b9:
         f4:37:7a:42:bc:58:8c:1c:de:3b:9c:3f:0a:2f:fe:b9:44:14:
         07:e2:c2:40:19:6f:45:3a:9e:26:cc:cd:20:e6:43:ef:ba:22:
         12:61:0d:24:a2:be:4a:36:36:16:33:65:1c:15:5d:06:c0:ab:
         37:a6:25:b7:48:18:36:3f:8e:2d:12:09:6b:1e:c2:4a:8e:3a:
         0b:40:ea:0a:ce:7a:cd:da:32:e5:74:33:ff:90:c8:85:79:c4:
         ca:57:b6:74:36:8b:3d:29:61:56:44:5b:cf:30:db:df:b5:d2:
         bb:00:0a:54
-----BEGIN CERTIFICATE-----
MIID5zCCAs+gAwIBAgIBJTANBgkqhkiG9w0BAQsFADBxMQswCQYDVQQGEwJVUzET
MBEGA1UECAwKQ2FsaWZvcm5pYTEUMBIGA1UEBwwLU2FudGEgQ2xhcmExDTALBgNV
BAoMBHBrZzUxEDAOBgNVBAMMB2NoMV90YTQxFjAUBgkqhkiG9w0BCQEWB2NoMV90
YTQwHhcNMjExMTI0MDEyMjQzWhcNMjQwODIwMDEyMjQzWjB5MQswCQYDVQQGEwJV
UzETMBEGA1UECAwKQ2FsaWZvcm5pYTEUMBIGA1UEBwwLU2FudGEgQ2xhcmExDTAL
BgNVBAoMBHBrZzUxFDASBgNVBAMMC2NzMl9jaDFfdGE0MRowGAYJKoZIhvcNAQkB
FgtjczJfY2gxX3RhNDCBnzANBgkqhkiG9w0BAQEFAAOBjQAwgYkCgYEAv4DvFtUk
ErXujd9lOpCV+9wzj0sUJ+ylvK3ap/yXvE+kpcyoNHvu0IIKY26+y2tx+VJRupjJ
To9pagchXYMH5zKYMD6uql+fJyYRKY7vZ0TxPEleWTr9JxjN+y/kNNAkEDfnoGeu
O8HQ7IzvNjFvfuouH9omFxiengchxJaJWk8CAwEAAaOCAQQwggEAMB0GA1UdDgQW
BBS2OBehC+QZU9PTDEkd6kMpyyT0nzCBkwYDVR0jBIGLMIGIgBQ48ic6+NbVI6TZ
x1P4TfPfF3hBCaFtpGswaTELMAkGA1UEBhMCVVMxEzARBgNVBAgMCkNhbGlmb3Ju
aWExFDASBgNVBAcMC1NhbnRhIENsYXJhMQ0wCwYDVQQKDARwa2c1MQwwCgYDVQQD
DAN0YTQxEjAQBgkqhkiG9w0BCQEWA3RhNIIBIzAMBgNVHRMBAf8EAjAAMDsGA1Ud
HwQ0MDIwMKAuoCyGKmh0dHA6Ly9sb2NhbGhvc3Q6MTIwMDEvZmlsZS8wL2V4YW1w
bGVfZmlsZTANBgkqhkiG9w0BAQsFAAOCAQEANsshu1j6XTNNDlZchoOrrcOUx1p/
eTl5ren4luSkKPruvbh3wXjPS80I2t//9DA6hro5ZfT0/7ZNxKTaREVdYrPQoG1/
3BW0189wOaTPjH5zsWiOvKEK2omMFq6zDHHsms74h/Q1f5pL9ZsSuJzuypt5f9Pn
Tbh5FadFko7d86wLuLyscPtZMfijjQaVPeq59Dd6QrxYjBzeO5w/Ci/+uUQUB+LC
QBlvRTqeJszNIOZD77oiEmENJKK+SjY2FjNlHBVdBsCrN6Ylt0gYNj+OLRIJax7C
So46C0DqCs56zdoy5XQz/5DIhXnEyle2dDaLPSlhVkRbzzDb37XSuwAKVA==
-----END CERTIFICATE-----
