Certificate:
    Data:
        Version: 3 (0x2)
        Serial Number: 18 (0x12)
    Signature Algorithm: sha256WithRSAEncryption
        Issuer: C=US, ST=California, L=Santa Clara, O=pkg5, CN=ch1_ta3/emailAddress=ch1_ta3
        Validity
            Not Before: Nov 11 12:38:31 2017 GMT
            Not After : Aug  7 12:38:31 2020 GMT
        Subject: C=US, ST=California, L=Santa Clara, O=pkg5, CN=cs2_ch1_ta3/emailAddress=cs2_ch1_ta3
        Subject Public Key Info:
            Public Key Algorithm: rsaEncryption
                Public-Key: (1024 bit)
                Modulus:
                    00:b7:39:c7:c8:4e:ae:42:6e:84:07:ba:7f:39:cd:
                    e1:58:fd:e9:b7:5a:70:2b:d4:ce:63:ac:09:c2:56:
                    11:c8:b3:75:a6:16:c0:6d:9f:7e:06:c5:f9:48:08:
                    2f:e1:07:b2:4e:cb:be:e9:9d:5e:34:06:cf:75:27:
                    12:60:64:49:e8:15:f1:be:35:dd:81:f2:33:82:ea:
                    0c:9a:cb:10:db:c8:8a:03:18:16:6b:14:12:d7:1a:
                    c9:cc:3a:76:e8:e0:3d:a3:5b:bd:71:4b:4f:05:13:
                    70:4e:c1:8a:5d:3a:81:f9:a0:99:3d:80:2a:81:40:
                    8d:aa:b6:ec:aa:0e:53:b0:5b
                Exponent: 65537 (0x10001)
        X509v3 extensions:
            X509v3 Basic Constraints: critical
                CA:FALSE
            X509v3 Issuer Alternative Name: critical
                <EMPTY>

    Signature Algorithm: sha256WithRSAEncryption
         68:96:58:52:14:23:f0:8b:f9:ee:10:a2:bd:9e:ff:ad:62:a0:
         ae:b9:b3:49:3a:6a:6a:1f:4b:ae:2e:10:9d:0a:83:10:8e:fe:
         a0:5b:cd:bc:72:12:04:f0:0b:f9:c1:03:dd:4d:8e:78:de:c9:
         fb:54:02:9b:4e:52:43:74:e3:c3:33:52:b9:34:53:4e:1d:3b:
         a8:fd:74:f8:59:18:64:37:4a:3d:63:4e:90:e6:b0:d2:52:3f:
         3f:2e:73:2b:b0:b6:c5:94:75:03:e9:17:70:cc:76:f2:f3:97:
         66:61:63:8f:56:aa:60:ca:72:1e:e3:a0:fc:ac:28:a9:fe:07:
         7f:5e:7b:f6:b0:30:d8:d0:7f:a9:22:cd:ea:96:2c:39:a1:b8:
         0a:d5:40:29:0c:00:f0:78:5d:b6:02:f3:8a:33:9c:21:e5:cf:
         c0:7d:d3:8c:27:66:dd:fd:49:0d:1b:01:4f:a6:ac:19:8c:1f:
         3c:b9:08:f7:7f:86:fb:5e:ba:9b:a8:6c:20:d3:ac:1d:dd:5b:
         67:12:47:cb:62:dc:64:b3:93:6e:75:33:12:64:9f:fe:58:b5:
         01:0f:50:4c:00:73:8b:fe:52:ac:ee:48:7c:38:76:42:bd:48:
         82:0b:7c:f9:b4:c3:29:a2:08:55:ec:93:2b:1c:53:fc:dc:d6:
         2b:03:65:b1
-----BEGIN CERTIFICATE-----
MIIC/zCCAeegAwIBAgIBEjANBgkqhkiG9w0BAQsFADBxMQswCQYDVQQGEwJVUzET
MBEGA1UECAwKQ2FsaWZvcm5pYTEUMBIGA1UEBwwLU2FudGEgQ2xhcmExDTALBgNV
BAoMBHBrZzUxEDAOBgNVBAMMB2NoMV90YTMxFjAUBgkqhkiG9w0BCQEWB2NoMV90
YTMwHhcNMTcxMTExMTIzODMxWhcNMjAwODA3MTIzODMxWjB5MQswCQYDVQQGEwJV
UzETMBEGA1UECAwKQ2FsaWZvcm5pYTEUMBIGA1UEBwwLU2FudGEgQ2xhcmExDTAL
BgNVBAoMBHBrZzUxFDASBgNVBAMMC2NzMl9jaDFfdGEzMRowGAYJKoZIhvcNAQkB
FgtjczJfY2gxX3RhMzCBnzANBgkqhkiG9w0BAQEFAAOBjQAwgYkCgYEAtznHyE6u
Qm6EB7p/Oc3hWP3pt1pwK9TOY6wJwlYRyLN1phbAbZ9+BsX5SAgv4QeyTsu+6Z1e
NAbPdScSYGRJ6BXxvjXdgfIzguoMmssQ28iKAxgWaxQS1xrJzDp26OA9o1u9cUtP
BRNwTsGKXTqB+aCZPYAqgUCNqrbsqg5TsFsCAwEAAaMeMBwwDAYDVR0TAQH/BAIw
ADAMBgNVHRIBAf8EAjAAMA0GCSqGSIb3DQEBCwUAA4IBAQBollhSFCPwi/nuEKK9
nv+tYqCuubNJOmpqH0uuLhCdCoMQjv6gW828chIE8Av5wQPdTY543sn7VAKbTlJD
dOPDM1K5NFNOHTuo/XT4WRhkN0o9Y06Q5rDSUj8/LnMrsLbFlHUD6RdwzHby85dm
YWOPVqpgynIe46D8rCip/gd/Xnv2sDDY0H+pIs3qliw5obgK1UApDADweF22AvOK
M5wh5c/AfdOMJ2bd/UkNGwFPpqwZjB88uQj3f4b7XrqbqGwg06wd3VtnEkfLYtxk
s5NudTMSZJ/+WLUBD1BMAHOL/lKs7kh8OHZCvUiCC3z5tMMpoghV7JMrHFP83NYr
A2Wx
-----END CERTIFICATE-----
