Certificate:
    Data:
        Version: 3 (0x2)
        Serial Number: 18 (0x12)
    Signature Algorithm: sha256WithRSAEncryption
        Issuer: C=US, ST=California, L=Santa Clara, O=pkg5, CN=ch1_ta3/emailAddress=ch1_ta3
        Validity
            Not Before: Nov 24 01:22:42 2021 GMT
            Not After : Aug 20 01:22:42 2024 GMT
        Subject: C=US, ST=California, L=Santa Clara, O=pkg5, CN=cs2_ch1_ta3/emailAddress=cs2_ch1_ta3
        Subject Public Key Info:
            Public Key Algorithm: rsaEncryption
                Public-Key: (1024 bit)
                Modulus:
                    00:e2:b8:16:6c:4f:bb:5a:ef:62:3b:17:a3:d8:d3:
                    20:95:94:62:73:39:2f:5b:6c:42:e4:da:6c:a9:90:
                    0a:55:cf:03:e1:b4:d2:c0:f2:21:65:af:a9:3b:a2:
                    22:73:a8:dc:73:4a:87:44:93:56:bf:e5:f6:2d:2c:
                    61:ca:80:04:36:1a:2c:f5:59:2e:8a:84:20:7a:91:
                    79:2d:54:c0:c0:b8:fc:06:1c:8a:a7:5f:d5:4b:7f:
                    17:fe:3e:86:48:2d:9e:68:2b:33:7e:45:05:7f:b2:
                    14:4e:1c:f7:ba:be:d2:8a:90:15:51:85:a9:57:5e:
                    ec:8b:e1:f5:21:40:8a:f9:e1
                Exponent: 65537 (0x10001)
        X509v3 extensions:
            X509v3 Basic Constraints: critical
                CA:FALSE
            X509v3 Issuer Alternative Name: critical
                <EMPTY>

    Signature Algorithm: sha256WithRSAEncryption
         d1:dc:60:17:1c:b7:a4:35:ef:5d:80:34:2c:eb:b9:46:2a:bf:
         84:07:31:07:3d:83:57:ad:b4:aa:7f:f6:66:e0:ba:c9:13:46:
         84:67:e7:f3:d7:2f:30:5a:74:ee:6a:4c:26:a0:b5:41:84:8b:
         2d:3a:a5:9d:87:38:a5:16:2e:70:1a:72:9e:6e:5c:43:7d:a4:
         e1:b7:53:ae:0e:9a:52:87:2b:4c:4b:ff:78:51:3f:1d:1f:b6:
         dd:44:62:c5:da:e8:b6:09:a5:70:b1:41:ca:83:d1:2f:9d:80:
         5d:0e:46:39:47:ee:e3:cf:a9:67:a1:23:cb:d6:f1:13:e9:ff:
         12:66:78:84:60:52:67:80:94:77:61:24:95:82:0d:32:78:76:
         24:6c:26:29:54:cd:71:78:52:ce:81:eb:86:89:22:b3:34:f9:
         08:2a:55:89:37:3e:b6:22:69:4c:5c:83:c1:40:65:c6:09:4f:
         9b:49:df:39:42:34:f9:98:86:47:ef:62:93:e6:dc:90:6f:67:
         fe:1a:e2:16:6d:eb:a5:62:39:92:f1:8f:89:12:c0:86:4f:b7:
         73:fe:4e:c8:f6:18:f4:ef:45:ab:c3:88:a1:f4:d7:6e:d2:e8:
         ee:ef:73:34:4f:bc:a0:52:a9:5a:8c:1a:82:6f:5c:94:7f:45:
         0d:19:99:8f
-----BEGIN CERTIFICATE-----
MIIC/zCCAeegAwIBAgIBEjANBgkqhkiG9w0BAQsFADBxMQswCQYDVQQGEwJVUzET
MBEGA1UECAwKQ2FsaWZvcm5pYTEUMBIGA1UEBwwLU2FudGEgQ2xhcmExDTALBgNV
BAoMBHBrZzUxEDAOBgNVBAMMB2NoMV90YTMxFjAUBgkqhkiG9w0BCQEWB2NoMV90
YTMwHhcNMjExMTI0MDEyMjQyWhcNMjQwODIwMDEyMjQyWjB5MQswCQYDVQQGEwJV
UzETMBEGA1UECAwKQ2FsaWZvcm5pYTEUMBIGA1UEBwwLU2FudGEgQ2xhcmExDTAL
BgNVBAoMBHBrZzUxFDASBgNVBAMMC2NzMl9jaDFfdGEzMRowGAYJKoZIhvcNAQkB
FgtjczJfY2gxX3RhMzCBnzANBgkqhkiG9w0BAQEFAAOBjQAwgYkCgYEA4rgWbE+7
Wu9iOxej2NMglZRiczkvW2xC5NpsqZAKVc8D4bTSwPIhZa+pO6Iic6jcc0qHRJNW
v+X2LSxhyoAENhos9VkuioQgepF5LVTAwLj8BhyKp1/VS38X/j6GSC2eaCszfkUF
f7IUThz3ur7SipAVUYWpV17si+H1IUCK+eECAwEAAaMeMBwwDAYDVR0TAQH/BAIw
ADAMBgNVHRIBAf8EAjAAMA0GCSqGSIb3DQEBCwUAA4IBAQDR3GAXHLekNe9dgDQs
67lGKr+EBzEHPYNXrbSqf/Zm4LrJE0aEZ+fz1y8wWnTuakwmoLVBhIstOqWdhzil
Fi5wGnKeblxDfaTht1OuDppShytMS/94UT8dH7bdRGLF2ui2CaVwsUHKg9EvnYBd
DkY5R+7jz6lnoSPL1vET6f8SZniEYFJngJR3YSSVgg0yeHYkbCYpVM1xeFLOgeuG
iSKzNPkIKlWJNz62ImlMXIPBQGXGCU+bSd85QjT5mIZH72KT5tyQb2f+GuIWbeul
YjmS8Y+JEsCGT7dz/k7I9hj070Wrw4ih9Ndu0uju73M0T7ygUqlajBqCb1yUf0UN
GZmP
-----END CERTIFICATE-----
