Certificate:
    Data:
        Version: 3 (0x2)
        Serial Number: 7 (0x7)
    Signature Algorithm: sha256WithRSAEncryption
        Issuer: C=US, ST=California, L=Santa Clara, O=pkg5, CN=ch5_ta1/emailAddress=ch5_ta1
        Validity
            Not Before: Jul  3 14:13:59 2018 GMT
            Not After : Mar 29 14:13:59 2021 GMT
        Subject: C=US, ST=California, L=Santa Clara, O=pkg5, CN=cs2_ch5_ta1/emailAddress=cs2_ch5_ta1
        Subject Public Key Info:
            Public Key Algorithm: rsaEncryption
                Public-Key: (1024 bit)
                Modulus:
                    00:c9:58:5d:d4:a9:0b:21:fc:3f:79:7a:ea:b4:98:
                    64:8d:8a:f6:d3:a4:49:22:45:2b:87:37:65:ac:e4:
                    ff:e4:34:73:e6:9d:35:8f:69:de:94:29:87:d0:a6:
                    49:5e:1f:cb:10:82:78:22:0b:f2:95:dc:1d:f9:fd:
                    f8:51:d8:bd:7b:5a:4f:b7:73:c6:7d:bb:e3:f8:a4:
                    1b:a0:55:be:da:c6:4b:d5:21:3f:3a:12:06:26:5a:
                    d2:32:6f:88:bf:c5:e2:1b:bc:38:ed:74:88:09:eb:
                    07:e2:37:c0:b8:d7:61:3c:c5:53:76:61:bf:a2:00:
                    53:d2:22:21:af:cb:1c:b5:0d
                Exponent: 65537 (0x10001)
        X509v3 extensions:
            X509v3 Basic Constraints: critical
                CA:FALSE
            X509v3 CRL Distribution Points: 

                Full Name:
                  URI:http://localhost:12001/file/0/ch5_ta1_crl.pem

    Signature Algorithm: sha256WithRSAEncryption
         81:27:e6:de:9e:83:19:91:0f:99:b9:5a:8e:4a:b9:f0:a8:32:
         21:f2:80:83:c5:ea:b4:e5:6a:c4:da:af:1c:a8:dd:dc:25:94:
         be:fd:72:92:d4:f1:b2:be:c9:51:63:03:ee:3f:9d:15:e4:0a:
         1a:c9:a3:64:e3:07:1d:11:74:75:0f:de:4d:32:01:e7:72:00:
         be:76:95:23:51:1c:67:d4:20:d1:57:e5:8a:c5:3d:f5:2a:dc:
         44:ab:4e:a9:de:97:17:ab:26:26:5f:d8:83:d9:60:bd:d0:e7:
         59:94:4a:19:2a:be:fb:eb:01:cc:c3:72:4c:47:34:f1:1e:68:
         09:78:8d:84:9d:f2:e1:74:ba:5c:76:01:40:01:60:f9:05:e4:
         7f:f8:fb:7f:24:f7:1f:28:12:a7:d2:6f:90:33:10:da:f4:df:
         e0:aa:96:7f:b5:0a:c1:e9:e2:a0:ac:35:6b:68:52:1c:69:17:
         2e:f7:0b:4f:4b:68:6c:7f:8e:df:02:62:79:91:ba:09:c7:f0:
         56:c0:bb:d1:8a:f0:03:94:de:ee:55:dd:99:53:14:51:6e:e5:
         4a:70:6e:53:c9:68:a1:9e:25:03:e1:41:83:ae:ec:7b:f8:99:
         b1:ae:d2:d6:be:95:1d:9d:62:c3:2e:fd:a4:43:7b:f9:51:8e:
         09:e1:07:5d
-----BEGIN CERTIFICATE-----
MIIDMTCCAhmgAwIBAgIBBzANBgkqhkiG9w0BAQsFADBxMQswCQYDVQQGEwJVUzET
MBEGA1UECAwKQ2FsaWZvcm5pYTEUMBIGA1UEBwwLU2FudGEgQ2xhcmExDTALBgNV
BAoMBHBrZzUxEDAOBgNVBAMMB2NoNV90YTExFjAUBgkqhkiG9w0BCQEWB2NoNV90
YTEwHhcNMTgwNzAzMTQxMzU5WhcNMjEwMzI5MTQxMzU5WjB5MQswCQYDVQQGEwJV
UzETMBEGA1UECAwKQ2FsaWZvcm5pYTEUMBIGA1UEBwwLU2FudGEgQ2xhcmExDTAL
BgNVBAoMBHBrZzUxFDASBgNVBAMMC2NzMl9jaDVfdGExMRowGAYJKoZIhvcNAQkB
FgtjczJfY2g1X3RhMTCBnzANBgkqhkiG9w0BAQEFAAOBjQAwgYkCgYEAyVhd1KkL
Ifw/eXrqtJhkjYr206RJIkUrhzdlrOT/5DRz5p01j2nelCmH0KZJXh/LEIJ4Igvy
ldwd+f34Udi9e1pPt3PGfbvj+KQboFW+2sZL1SE/OhIGJlrSMm+Iv8XiG7w47XSI
CesH4jfAuNdhPMVTdmG/ogBT0iIhr8sctQ0CAwEAAaNQME4wDAYDVR0TAQH/BAIw
ADA+BgNVHR8ENzA1MDOgMaAvhi1odHRwOi8vbG9jYWxob3N0OjEyMDAxL2ZpbGUv
MC9jaDVfdGExX2NybC5wZW0wDQYJKoZIhvcNAQELBQADggEBAIEn5t6egxmRD5m5
Wo5KufCoMiHygIPF6rTlasTarxyo3dwllL79cpLU8bK+yVFjA+4/nRXkChrJo2Tj
Bx0RdHUP3k0yAedyAL52lSNRHGfUINFX5YrFPfUq3ESrTqnelxerJiZf2IPZYL3Q
51mUShkqvvvrAczDckxHNPEeaAl4jYSd8uF0ulx2AUABYPkF5H/4+38k9x8oEqfS
b5AzENr03+Cqln+1CsHp4qCsNWtoUhxpFy73C09LaGx/jt8CYnmRugnH8FbAu9GK
8AOU3u5V3ZlTFFFu5UpwblPJaKGeJQPhQYOu7Hv4mbGu0ta+lR2dYsMu/aRDe/lR
jgnhB10=
-----END CERTIFICATE-----
