Certificate:
    Data:
        Version: 3 (0x2)
        Serial Number: 19 (0x13)
    Signature Algorithm: sha256WithRSAEncryption
        Issuer: C=US, ST=California, L=Santa Clara, O=pkg5, CN=ch1_ta3/emailAddress=ch1_ta3
        Validity
            Not Before: Jan  1 01:01:01 2009 GMT
            Not After : Jan  2 01:01:01 2009 GMT
        Subject: C=US, ST=California, L=Santa Clara, O=pkg5, CN=cs3_ch1_ta3/emailAddress=cs3_ch1_ta3
        Subject Public Key Info:
            Public Key Algorithm: rsaEncryption
                Public-Key: (1024 bit)
                Modulus:
                    00:9e:d3:25:00:d7:34:a1:69:6c:a8:07:e7:c4:9f:
                    5e:b4:14:5b:81:d7:b1:fe:0e:74:8d:ea:e5:35:44:
                    81:57:83:06:a2:00:f1:d3:62:90:08:52:12:89:d7:
                    a9:5a:7b:4c:7f:b5:43:39:3d:34:cc:c9:7c:07:b5:
                    e5:ef:b4:b7:4c:8b:8d:63:df:1d:3f:ef:e7:13:a7:
                    58:6a:26:ae:8b:ec:80:a0:44:03:c1:22:3c:1b:ef:
                    c7:67:00:b2:b5:09:49:9e:d6:10:69:b4:93:4c:e8:
                    41:20:a4:61:63:21:b3:f1:ab:6e:6c:28:6e:1d:21:
                    ae:84:98:da:b1:f6:2e:d3:bb
                Exponent: 65537 (0x10001)
        X509v3 extensions:
            X509v3 Basic Constraints: critical
                CA:FALSE
            X509v3 Key Usage: critical
                Digital Signature
    Signature Algorithm: sha256WithRSAEncryption
         75:9b:5d:9e:6c:63:fc:78:f5:63:f4:a1:e0:2b:9b:97:08:88:
         72:66:10:f8:e4:ab:14:00:7a:f0:e8:1f:0b:19:c4:f9:cd:06:
         e8:80:f5:32:92:d6:98:4d:d7:47:8b:9f:6a:23:b1:39:af:e3:
         fa:17:40:f8:cc:86:ee:7e:fa:b4:55:c2:8f:8c:a4:ca:44:a2:
         84:2a:31:cf:00:b4:27:b2:ff:6e:0b:d7:5f:2a:13:70:29:52:
         4f:e2:9c:9f:e0:42:d7:a8:c6:78:11:65:af:2f:d2:bb:75:7e:
         33:e6:3e:51:28:96:2f:04:52:e1:bb:cc:b6:18:13:9c:a1:4a:
         20:94:bd:f5:fc:f2:87:33:eb:30:45:3f:6c:fc:e1:7a:4c:2f:
         14:7e:75:92:08:55:07:a1:04:ff:99:43:69:39:4a:d2:d9:1d:
         b4:f4:ba:be:00:07:75:e2:8e:3c:1c:5d:0c:6d:66:a1:b8:d3:
         39:93:54:f8:07:f8:cd:59:ba:d6:4c:2d:34:92:c9:3a:ff:0c:
         aa:aa:1b:94:73:8d:ed:a4:13:a7:cf:66:69:99:df:7a:18:c5:
         4e:6d:2f:a8:fe:09:b0:c7:0e:67:b1:f8:1a:e0:17:8a:70:50:
         2b:b6:2a:e8:50:89:56:4d:c4:43:e6:40:66:71:33:be:1e:22:
         c4:2a:43:27
-----BEGIN CERTIFICATE-----
MIIDATCCAemgAwIBAgIBEzANBgkqhkiG9w0BAQsFADBxMQswCQYDVQQGEwJVUzET
MBEGA1UECAwKQ2FsaWZvcm5pYTEUMBIGA1UEBwwLU2FudGEgQ2xhcmExDTALBgNV
BAoMBHBrZzUxEDAOBgNVBAMMB2NoMV90YTMxFjAUBgkqhkiG9w0BCQEWB2NoMV90
YTMwHhcNMDkwMTAxMDEwMTAxWhcNMDkwMTAyMDEwMTAxWjB5MQswCQYDVQQGEwJV
UzETMBEGA1UECAwKQ2FsaWZvcm5pYTEUMBIGA1UEBwwLU2FudGEgQ2xhcmExDTAL
BgNVBAoMBHBrZzUxFDASBgNVBAMMC2NzM19jaDFfdGEzMRowGAYJKoZIhvcNAQkB
FgtjczNfY2gxX3RhMzCBnzANBgkqhkiG9w0BAQEFAAOBjQAwgYkCgYEAntMlANc0
oWlsqAfnxJ9etBRbgdex/g50jerlNUSBV4MGogDx02KQCFISidepWntMf7VDOT00
zMl8B7Xl77S3TIuNY98dP+/nE6dYaiaui+yAoEQDwSI8G+/HZwCytQlJntYQabST
TOhBIKRhYyGz8atubChuHSGuhJjasfYu07sCAwEAAaMgMB4wDAYDVR0TAQH/BAIw
ADAOBgNVHQ8BAf8EBAMCB4AwDQYJKoZIhvcNAQELBQADggEBAHWbXZ5sY/x49WP0
oeArm5cIiHJmEPjkqxQAevDoHwsZxPnNBuiA9TKS1phN10eLn2ojsTmv4/oXQPjM
hu5++rRVwo+MpMpEooQqMc8AtCey/24L118qE3ApUk/inJ/gQteoxngRZa8v0rt1
fjPmPlEoli8EUuG7zLYYE5yhSiCUvfX88ocz6zBFP2z84XpMLxR+dZIIVQehBP+Z
Q2k5StLZHbT0ur4AB3XijjwcXQxtZqG40zmTVPgH+M1ZutZMLTSSyTr/DKqqG5Rz
je2kE6fPZmmZ33oYxU5tL6j+CbDHDmex+BrgF4pwUCu2KuhQiVZNxEPmQGZxM74e
IsQqQyc=
-----END CERTIFICATE-----
