Certificate:
    Data:
        Version: 3 (0x2)
        Serial Number: 37 (0x25)
    Signature Algorithm: sha256WithRSAEncryption
        Issuer: C=US, ST=California, L=Santa Clara, O=pkg5, CN=ch1_ta4/emailAddress=ch1_ta4
        Validity
            Not Before: Nov 11 12:38:33 2017 GMT
            Not After : Aug  7 12:38:33 2020 GMT
        Subject: C=US, ST=California, L=Santa Clara, O=pkg5, CN=cs3_ch1_ta4/emailAddress=cs3_ch1_ta4
        Subject Public Key Info:
            Public Key Algorithm: rsaEncryption
                Public-Key: (1024 bit)
                Modulus:
                    00:d4:c4:9e:ef:ca:a3:01:b3:c3:34:79:80:00:ca:
                    62:e9:12:07:b8:11:56:20:93:46:cb:1c:d5:cd:9a:
                    92:4f:75:32:77:56:2b:d2:2b:43:2a:ff:27:05:d0:
                    99:51:d5:7c:0e:71:28:8a:b0:97:c5:fa:4a:7e:51:
                    6a:3e:d0:ee:03:08:5f:c4:c1:aa:0a:b0:32:80:6c:
                    6a:51:9e:2a:67:b3:8c:86:59:dc:fa:01:d5:d2:c4:
                    fa:9c:4a:32:e2:fb:36:e1:13:b3:3e:b3:87:a6:ab:
                    e0:0c:b3:30:dd:a4:7c:55:2e:32:17:5f:92:ef:ba:
                    2d:9c:b9:84:bc:9f:10:c3:99
                Exponent: 65537 (0x10001)
        X509v3 extensions:
            X509v3 Subject Key Identifier: 
                73:8C:CF:CE:E8:D7:3E:1A:A9:E3:24:4F:9E:24:2B:FC:07:97:66:8F
            X509v3 Authority Key Identifier: 
                keyid:B1:1B:0F:57:F9:CC:13:12:DD:27:D6:EC:96:08:A4:A6:6C:27:24:08
                DirName:/C=US/ST=California/L=Santa Clara/O=pkg5/CN=ta4/emailAddress=ta4
                serial:22

            X509v3 Basic Constraints: critical
                CA:FALSE
            X509v3 CRL Distribution Points: 

                Full Name:
                  URI:foo://bar/baz

    Signature Algorithm: sha256WithRSAEncryption
         43:7e:58:aa:e1:af:1e:bc:25:de:36:2f:45:a9:09:c1:c6:03:
         3e:33:3a:8f:21:7c:34:ce:2e:a4:02:aa:2e:9d:19:6f:1a:a7:
         da:c0:b6:9c:93:65:65:7e:6f:52:d8:26:14:db:36:37:b0:22:
         09:a2:f3:43:2f:93:4f:9b:61:fb:6c:5d:ee:1d:d3:d0:c3:46:
         da:cf:0f:b8:c6:8a:74:77:bd:5f:50:de:bb:e4:62:75:e9:59:
         9b:4c:f3:92:40:6d:e6:8e:b0:64:c8:1c:d3:6b:01:11:d7:c7:
         49:89:21:54:14:7f:d6:25:a6:3e:76:62:04:83:d0:d8:da:42:
         7f:29:14:1a:ca:e3:be:93:9b:fa:6f:9b:a6:78:2a:5d:dc:fd:
         9f:91:fa:d8:ef:be:c4:d8:fc:37:05:a9:0d:94:c0:e8:8f:96:
         16:18:fe:af:29:35:19:f0:2c:ff:e9:01:60:54:93:c0:fb:85:
         a8:94:eb:30:2a:12:b2:14:2b:e4:db:b9:a1:21:10:33:76:5d:
         dc:a8:ef:b3:f7:68:58:d7:98:f6:0c:19:73:62:a1:a0:03:17:
         30:2f:0c:be:be:25:9c:32:b8:de:52:b1:07:53:cc:60:a4:63:
         87:7a:ed:2c:94:74:b4:46:f8:6c:b1:e1:09:56:b6:58:2b:c7:
         9d:21:21:ec
-----BEGIN CERTIFICATE-----
MIIDyDCCArCgAwIBAgIBJTANBgkqhkiG9w0BAQsFADBxMQswCQYDVQQGEwJVUzET
MBEGA1UECAwKQ2FsaWZvcm5pYTEUMBIGA1UEBwwLU2FudGEgQ2xhcmExDTALBgNV
BAoMBHBrZzUxEDAOBgNVBAMMB2NoMV90YTQxFjAUBgkqhkiG9w0BCQEWB2NoMV90
YTQwHhcNMTcxMTExMTIzODMzWhcNMjAwODA3MTIzODMzWjB5MQswCQYDVQQGEwJV
UzETMBEGA1UECAwKQ2FsaWZvcm5pYTEUMBIGA1UEBwwLU2FudGEgQ2xhcmExDTAL
BgNVBAoMBHBrZzUxFDASBgNVBAMMC2NzM19jaDFfdGE0MRowGAYJKoZIhvcNAQkB
FgtjczNfY2gxX3RhNDCBnzANBgkqhkiG9w0BAQEFAAOBjQAwgYkCgYEA1MSe78qj
AbPDNHmAAMpi6RIHuBFWIJNGyxzVzZqST3Uyd1Yr0itDKv8nBdCZUdV8DnEoirCX
xfpKflFqPtDuAwhfxMGqCrAygGxqUZ4qZ7OMhlnc+gHV0sT6nEoy4vs24ROzPrOH
pqvgDLMw3aR8VS4yF1+S77otnLmEvJ8Qw5kCAwEAAaOB5jCB4zAdBgNVHQ4EFgQU
c4zPzujXPhqp4yRPniQr/AeXZo8wgZMGA1UdIwSBizCBiIAUsRsPV/nMExLdJ9bs
lgikpmwnJAihbaRrMGkxCzAJBgNVBAYTAlVTMRMwEQYDVQQIDApDYWxpZm9ybmlh
MRQwEgYDVQQHDAtTYW50YSBDbGFyYTENMAsGA1UECgwEcGtnNTEMMAoGA1UEAwwD
dGE0MRIwEAYJKoZIhvcNAQkBFgN0YTSCASIwDAYDVR0TAQH/BAIwADAeBgNVHR8E
FzAVMBOgEaAPhg1mb286Ly9iYXIvYmF6MA0GCSqGSIb3DQEBCwUAA4IBAQBDfliq
4a8evCXeNi9FqQnBxgM+MzqPIXw0zi6kAqounRlvGqfawLack2Vlfm9S2CYU2zY3
sCIJovNDL5NPm2H7bF3uHdPQw0bazw+4xop0d71fUN675GJ16VmbTPOSQG3mjrBk
yBzTawER18dJiSFUFH/WJaY+dmIEg9DY2kJ/KRQayuO+k5v6b5umeCpd3P2fkfrY
777E2Pw3BakNlMDoj5YWGP6vKTUZ8Cz/6QFgVJPA+4WolOswKhKyFCvk27mhIRAz
dl3cqO+z92hY15j2DBlzYqGgAxcwLwy+viWcMrjeUrEHU8xgpGOHeu0slHS0Rvhs
seEJVrZYK8edISHs
-----END CERTIFICATE-----
