Certificate:
    Data:
        Version: 3 (0x2)
        Serial Number: 38 (0x26)
    Signature Algorithm: sha256WithRSAEncryption
        Issuer: C=US, ST=California, L=Santa Clara, O=pkg5, CN=ch1_ta4/emailAddress=ch1_ta4
        Validity
            Not Before: Nov 24 01:22:43 2021 GMT
            Not After : Aug 20 01:22:43 2024 GMT
        Subject: C=US, ST=California, L=Santa Clara, O=pkg5, CN=cs3_ch1_ta4/emailAddress=cs3_ch1_ta4
        Subject Public Key Info:
            Public Key Algorithm: rsaEncryption
                Public-Key: (1024 bit)
                Modulus:
                    00:d6:c9:da:8a:e0:15:36:ed:df:c1:07:67:0d:39:
                    c6:94:91:14:5d:de:85:da:47:68:ec:91:3f:91:16:
                    50:82:a1:d9:5b:c5:47:9c:d8:ba:7d:ad:5e:de:af:
                    c4:9d:d2:ae:1c:bc:66:d6:61:47:91:88:36:00:54:
                    5d:52:0b:4f:00:52:34:aa:01:c0:be:03:76:43:83:
                    df:71:15:a9:7f:31:68:97:af:9c:d6:9a:95:53:7a:
                    b1:43:5d:a7:e4:9f:42:d1:e1:2e:ba:d9:06:d5:c8:
                    f7:8e:00:6d:2e:e8:25:72:90:e3:19:38:9e:f8:e7:
                    57:fb:72:20:1a:b5:0f:e2:d5
                Exponent: 65537 (0x10001)
        X509v3 extensions:
            X509v3 Subject Key Identifier: 
                D5:58:98:0F:AB:E5:2F:4F:05:78:95:91:67:3D:E9:BB:64:7A:2C:78
            X509v3 Authority Key Identifier: 
                keyid:38:F2:27:3A:F8:D6:D5:23:A4:D9:C7:53:F8:4D:F3:DF:17:78:41:09
                DirName:/C=US/ST=California/L=Santa Clara/O=pkg5/CN=ta4/emailAddress=ta4
                serial:23

            X509v3 Basic Constraints: critical
                CA:FALSE
            X509v3 CRL Distribution Points: 

                Full Name:
                  URI:foo://bar/baz

    Signature Algorithm: sha256WithRSAEncryption
         81:93:b1:a6:63:17:9d:f7:50:20:e6:46:85:13:bf:a6:86:43:
         a0:6e:f0:a8:74:8b:5f:f8:db:f7:3c:f9:e1:f1:47:a7:af:3e:
         28:c2:57:a7:08:2f:d9:e2:d3:8c:e4:4a:c5:b8:18:b8:49:83:
         ae:0d:c1:46:14:21:2a:b0:aa:9a:34:cd:a7:5a:96:21:6f:4e:
         5f:4f:2e:68:7b:15:0a:c8:d7:45:5a:dc:6d:f0:20:63:ee:3a:
         19:ac:20:cc:b5:ed:28:ed:53:60:7b:61:08:2c:d7:ee:20:a4:
         22:aa:be:7e:6a:9c:79:6d:f5:ac:b8:cb:c1:06:26:fd:12:17:
         1c:0a:14:6b:48:f5:7c:50:7b:4b:8d:37:d7:4e:78:17:9b:4c:
         0b:34:2a:87:6c:96:c5:15:9a:3d:5f:79:8a:5c:d5:0c:bb:18:
         43:48:23:4d:dd:2d:a4:f4:6b:b0:2f:00:fd:20:86:b8:31:e2:
         d7:38:c6:a8:cc:b7:c5:4e:ca:7a:96:8c:14:c1:0b:5c:fe:39:
         bf:eb:b2:0e:10:94:38:0c:aa:eb:15:6c:4b:a3:a6:8f:17:ad:
         8a:93:7e:42:be:24:5d:25:78:de:30:c2:90:e2:97:c3:da:0c:
         12:21:a1:eb:a5:7f:ff:29:63:cf:ba:f2:d2:12:49:bd:b9:57:
         20:2f:a9:65
-----BEGIN CERTIFICATE-----
MIIDyDCCArCgAwIBAgIBJjANBgkqhkiG9w0BAQsFADBxMQswCQYDVQQGEwJVUzET
MBEGA1UECAwKQ2FsaWZvcm5pYTEUMBIGA1UEBwwLU2FudGEgQ2xhcmExDTALBgNV
BAoMBHBrZzUxEDAOBgNVBAMMB2NoMV90YTQxFjAUBgkqhkiG9w0BCQEWB2NoMV90
YTQwHhcNMjExMTI0MDEyMjQzWhcNMjQwODIwMDEyMjQzWjB5MQswCQYDVQQGEwJV
UzETMBEGA1UECAwKQ2FsaWZvcm5pYTEUMBIGA1UEBwwLU2FudGEgQ2xhcmExDTAL
BgNVBAoMBHBrZzUxFDASBgNVBAMMC2NzM19jaDFfdGE0MRowGAYJKoZIhvcNAQkB
FgtjczNfY2gxX3RhNDCBnzANBgkqhkiG9w0BAQEFAAOBjQAwgYkCgYEA1snaiuAV
Nu3fwQdnDTnGlJEUXd6F2kdo7JE/kRZQgqHZW8VHnNi6fa1e3q/EndKuHLxm1mFH
kYg2AFRdUgtPAFI0qgHAvgN2Q4PfcRWpfzFol6+c1pqVU3qxQ12n5J9C0eEuutkG
1cj3jgBtLuglcpDjGTie+OdX+3IgGrUP4tUCAwEAAaOB5jCB4zAdBgNVHQ4EFgQU
1ViYD6vlL08FeJWRZz3pu2R6LHgwgZMGA1UdIwSBizCBiIAUOPInOvjW1SOk2cdT
+E3z3xd4QQmhbaRrMGkxCzAJBgNVBAYTAlVTMRMwEQYDVQQIDApDYWxpZm9ybmlh
MRQwEgYDVQQHDAtTYW50YSBDbGFyYTENMAsGA1UECgwEcGtnNTEMMAoGA1UEAwwD
dGE0MRIwEAYJKoZIhvcNAQkBFgN0YTSCASMwDAYDVR0TAQH/BAIwADAeBgNVHR8E
FzAVMBOgEaAPhg1mb286Ly9iYXIvYmF6MA0GCSqGSIb3DQEBCwUAA4IBAQCBk7Gm
Yxed91Ag5kaFE7+mhkOgbvCodItf+Nv3PPnh8Uenrz4owlenCC/Z4tOM5ErFuBi4
SYOuDcFGFCEqsKqaNM2nWpYhb05fTy5oexUKyNdFWtxt8CBj7joZrCDMte0o7VNg
e2EILNfuIKQiqr5+apx5bfWsuMvBBib9EhccChRrSPV8UHtLjTfXTngXm0wLNCqH
bJbFFZo9X3mKXNUMuxhDSCNN3S2k9GuwLwD9IIa4MeLXOMaozLfFTsp6lowUwQtc
/jm/67IOEJQ4DKrrFWxLo6aPF62Kk35CviRdJXjeMMKQ4pfD2gwSIaHrpX//KWPP
uvLSEkm9uVcgL6ll
-----END CERTIFICATE-----
