Certificate:
    Data:
        Version: 3 (0x2)
        Serial Number: 19 (0x13)
    Signature Algorithm: sha256WithRSAEncryption
        Issuer: C=US, ST=California, L=Santa Clara, O=pkg5, CN=ch1_ta3/emailAddress=ch1_ta3
        Validity
            Not Before: Jan  1 01:01:01 2009 GMT
            Not After : Jan  2 01:01:01 2009 GMT
        Subject: C=US, ST=California, L=Santa Clara, O=pkg5, CN=cs3_ch1_ta3/emailAddress=cs3_ch1_ta3
        Subject Public Key Info:
            Public Key Algorithm: rsaEncryption
                Public-Key: (1024 bit)
                Modulus:
                    00:9e:8a:d2:b8:94:42:d5:78:1b:8c:56:4a:d8:36:
                    0f:e0:6e:bb:14:43:59:2a:b0:96:a9:cf:d1:18:7e:
                    ad:46:c2:22:5c:39:8b:f1:69:e7:61:57:7d:27:5c:
                    a7:e9:b2:ea:de:5d:3e:26:1a:66:24:5b:29:46:34:
                    07:69:b5:41:08:20:58:02:5f:57:c2:ec:1d:a7:a1:
                    ce:aa:a7:63:96:e3:18:21:9d:33:10:40:ed:ee:39:
                    71:27:de:5b:d9:12:37:4b:92:09:e7:dd:56:b9:de:
                    ee:05:d6:5a:54:89:36:87:3e:64:22:d3:bc:78:64:
                    f7:5c:2d:a6:45:13:84:27:9d
                Exponent: 65537 (0x10001)
        X509v3 extensions:
            X509v3 Basic Constraints: critical
                CA:FALSE
            X509v3 Key Usage: critical
                Digital Signature
    Signature Algorithm: sha256WithRSAEncryption
         a6:b9:b2:9e:01:e1:f8:9e:b8:58:e0:c5:4f:d8:d0:79:30:df:
         de:c4:ef:a6:64:09:7e:23:a6:54:03:23:94:da:9f:85:40:74:
         96:e4:69:ff:c2:4b:1f:53:88:3d:03:52:5d:e7:db:be:5d:d3:
         40:30:be:c6:2e:7f:61:7d:5a:05:65:7d:f6:bd:12:75:c5:c0:
         39:2b:20:1c:2d:16:29:63:40:40:35:ca:85:d5:3b:7c:52:97:
         d1:1c:93:10:de:67:d2:4f:4e:ae:ce:d1:58:03:4a:ab:77:53:
         83:5f:77:b1:70:b2:7b:bf:a7:1d:08:f0:ae:a6:0e:82:7f:46:
         65:e2:18:a3:fe:f9:ce:bc:c5:20:ae:97:15:d1:b9:eb:1d:cb:
         3f:1d:46:04:c9:07:13:2f:ce:a4:92:e1:f9:6f:0d:6c:66:c0:
         a0:1d:04:3d:07:d6:8f:30:82:9d:03:f8:fa:22:57:96:ed:97:
         64:e4:6c:83:54:5d:2c:86:34:18:5c:31:8d:95:3e:c3:a8:23:
         6b:db:55:7d:6e:f7:0e:b3:f2:82:01:76:04:8e:82:49:56:67:
         5b:81:26:61:3b:f7:42:ad:40:7f:41:51:5b:45:63:98:a8:20:
         e1:8c:f4:03:eb:2b:e0:88:cd:3f:5f:b7:ed:85:fe:e3:0b:49:
         26:73:90:08
-----BEGIN CERTIFICATE-----
MIIDATCCAemgAwIBAgIBEzANBgkqhkiG9w0BAQsFADBxMQswCQYDVQQGEwJVUzET
MBEGA1UECAwKQ2FsaWZvcm5pYTEUMBIGA1UEBwwLU2FudGEgQ2xhcmExDTALBgNV
BAoMBHBrZzUxEDAOBgNVBAMMB2NoMV90YTMxFjAUBgkqhkiG9w0BCQEWB2NoMV90
YTMwHhcNMDkwMTAxMDEwMTAxWhcNMDkwMTAyMDEwMTAxWjB5MQswCQYDVQQGEwJV
UzETMBEGA1UECAwKQ2FsaWZvcm5pYTEUMBIGA1UEBwwLU2FudGEgQ2xhcmExDTAL
BgNVBAoMBHBrZzUxFDASBgNVBAMMC2NzM19jaDFfdGEzMRowGAYJKoZIhvcNAQkB
FgtjczNfY2gxX3RhMzCBnzANBgkqhkiG9w0BAQEFAAOBjQAwgYkCgYEAnorSuJRC
1XgbjFZK2DYP4G67FENZKrCWqc/RGH6tRsIiXDmL8WnnYVd9J1yn6bLq3l0+Jhpm
JFspRjQHabVBCCBYAl9Xwuwdp6HOqqdjluMYIZ0zEEDt7jlxJ95b2RI3S5IJ591W
ud7uBdZaVIk2hz5kItO8eGT3XC2mRROEJ50CAwEAAaMgMB4wDAYDVR0TAQH/BAIw
ADAOBgNVHQ8BAf8EBAMCB4AwDQYJKoZIhvcNAQELBQADggEBAKa5sp4B4fieuFjg
xU/Y0Hkw397E76ZkCX4jplQDI5Tan4VAdJbkaf/CSx9TiD0DUl3n275d00AwvsYu
f2F9WgVlffa9EnXFwDkrIBwtFiljQEA1yoXVO3xSl9EckxDeZ9JPTq7O0VgDSqt3
U4Nfd7Fwsnu/px0I8K6mDoJ/RmXiGKP++c68xSCulxXRuesdyz8dRgTJBxMvzqSS
4flvDWxmwKAdBD0H1o8wgp0D+PoiV5btl2TkbINUXSyGNBhcMY2VPsOoI2vbVX1u
9w6z8oIBdgSOgklWZ1uBJmE790KtQH9BUVtFY5ioIOGM9APrK+CIzT9ft+2F/uML
SSZzkAg=
-----END CERTIFICATE-----
