Certificate:
    Data:
        Version: 3 (0x2)
        Serial Number: 20 (0x14)
    Signature Algorithm: sha256WithRSAEncryption
        Issuer: C=US, ST=California, L=Santa Clara, O=pkg5, CN=ch1_ta3/emailAddress=ch1_ta3
        Validity
            Not Before: Jan  1 01:01:01 2035 GMT
            Not After : Jan  2 01:01:01 2035 GMT
        Subject: C=US, ST=California, L=Santa Clara, O=pkg5, CN=cs4_ch1_ta3/emailAddress=cs4_ch1_ta3
        Subject Public Key Info:
            Public Key Algorithm: rsaEncryption
                Public-Key: (1024 bit)
                Modulus:
                    00:be:6b:b0:41:78:13:01:a4:77:4c:cc:07:e5:af:
                    3d:a8:02:fc:04:b9:e9:ee:7d:5a:db:58:83:97:0f:
                    c6:e5:74:bb:d8:46:6a:89:29:a7:13:2d:01:7e:f4:
                    ea:c4:cd:a5:cd:51:1a:6d:e2:b3:2f:60:3f:70:88:
                    fb:e0:12:0c:0b:79:ce:22:03:0e:71:08:67:66:25:
                    1e:1e:89:c7:4a:1d:97:a4:ad:07:6d:2a:47:a5:5f:
                    7c:ae:3d:82:43:f4:4b:1f:05:16:c3:5c:2d:d1:72:
                    22:65:b4:7e:3c:ff:a7:bb:6b:22:c7:9d:b4:d8:bf:
                    fc:e4:93:d9:fc:1a:68:80:1f
                Exponent: 65537 (0x10001)
        X509v3 extensions:
            X509v3 Basic Constraints: critical
                CA:FALSE
            X509v3 Key Usage: critical
                Digital Signature
    Signature Algorithm: sha256WithRSAEncryption
         12:d2:76:30:aa:e7:a2:39:9e:95:fa:08:87:94:99:e0:b8:09:
         1d:0e:5f:51:9e:79:80:27:87:67:e0:40:3c:9d:ec:18:3d:25:
         80:23:8e:ce:68:fb:7d:9b:fb:e0:0f:6a:56:4b:f2:36:d6:8d:
         b9:75:72:a2:6d:71:04:f5:a5:20:ee:92:f2:b0:a6:3c:ad:9c:
         8a:42:84:b3:cf:f7:6b:04:8f:09:cf:bf:6e:e8:42:08:a9:b4:
         11:67:e1:2b:d3:9a:0e:e6:f6:32:25:c9:41:fc:ee:52:38:9d:
         5a:da:db:88:80:e6:fd:ab:90:99:f4:cb:b0:fd:0e:ae:ac:18:
         c8:76:e5:6d:b9:56:49:8c:3b:f6:0f:85:65:b0:72:de:55:53:
         25:d9:70:ae:1b:8b:e4:ae:01:35:66:25:e6:12:a0:91:88:5f:
         8e:23:05:a0:2b:bc:94:dd:db:a5:f4:d0:65:fa:45:52:e3:39:
         ce:e5:5d:b1:6f:02:07:b6:06:cd:46:7f:6b:96:55:d9:8d:15:
         00:2c:94:63:e5:1b:e8:15:95:c0:23:20:a8:63:a5:f6:d7:cd:
         44:06:24:f0:09:18:38:2b:d7:bd:4c:1b:93:5e:ce:77:50:9f:
         d8:11:f9:ed:96:75:d4:6c:3f:59:ed:9d:d1:fc:87:59:6d:85:
         79:c0:4d:9d
-----BEGIN CERTIFICATE-----
MIIDATCCAemgAwIBAgIBFDANBgkqhkiG9w0BAQsFADBxMQswCQYDVQQGEwJVUzET
MBEGA1UECAwKQ2FsaWZvcm5pYTEUMBIGA1UEBwwLU2FudGEgQ2xhcmExDTALBgNV
BAoMBHBrZzUxEDAOBgNVBAMMB2NoMV90YTMxFjAUBgkqhkiG9w0BCQEWB2NoMV90
YTMwHhcNMzUwMTAxMDEwMTAxWhcNMzUwMTAyMDEwMTAxWjB5MQswCQYDVQQGEwJV
UzETMBEGA1UECAwKQ2FsaWZvcm5pYTEUMBIGA1UEBwwLU2FudGEgQ2xhcmExDTAL
BgNVBAoMBHBrZzUxFDASBgNVBAMMC2NzNF9jaDFfdGEzMRowGAYJKoZIhvcNAQkB
FgtjczRfY2gxX3RhMzCBnzANBgkqhkiG9w0BAQEFAAOBjQAwgYkCgYEAvmuwQXgT
AaR3TMwH5a89qAL8BLnp7n1a21iDlw/G5XS72EZqiSmnEy0BfvTqxM2lzVEabeKz
L2A/cIj74BIMC3nOIgMOcQhnZiUeHonHSh2XpK0HbSpHpV98rj2CQ/RLHwUWw1wt
0XIiZbR+PP+nu2six5202L/85JPZ/BpogB8CAwEAAaMgMB4wDAYDVR0TAQH/BAIw
ADAOBgNVHQ8BAf8EBAMCB4AwDQYJKoZIhvcNAQELBQADggEBABLSdjCq56I5npX6
CIeUmeC4CR0OX1GeeYAnh2fgQDyd7Bg9JYAjjs5o+32b++APalZL8jbWjbl1cqJt
cQT1pSDukvKwpjytnIpChLPP92sEjwnPv27oQgiptBFn4SvTmg7m9jIlyUH87lI4
nVra24iA5v2rkJn0y7D9Dq6sGMh25W25VkmMO/YPhWWwct5VUyXZcK4bi+SuATVm
JeYSoJGIX44jBaArvJTd26X00GX6RVLjOc7lXbFvAge2Bs1Gf2uWVdmNFQAslGPl
G+gVlcAjIKhjpfbXzUQGJPAJGDgr171MG5NezndQn9gR+e2WddRsP1ntndH8h1lt
hXnATZ0=
-----END CERTIFICATE-----
