Certificate:
    Data:
        Version: 3 (0x2)
        Serial Number: 21 (0x15)
    Signature Algorithm: sha256WithRSAEncryption
        Issuer: C=US, ST=California, L=Santa Clara, O=pkg5, CN=ch1_ta3/emailAddress=ch1_ta3
        Validity
            Not Before: Jul  3 14:14:01 2018 GMT
            Not After : Mar 29 14:14:01 2021 GMT
        Subject: C=US, ST=California, L=Santa Clara, O=pkg5, CN=cs5_ch1_ta3/emailAddress=cs5_ch1_ta3
        Subject Public Key Info:
            Public Key Algorithm: rsaEncryption
                Public-Key: (1024 bit)
                Modulus:
                    00:cf:19:25:a1:fc:9e:7a:37:eb:e7:70:9b:25:c8:
                    7a:9f:77:20:33:ec:1f:ee:da:10:53:cf:6e:01:e7:
                    03:ce:29:ad:bd:ac:d1:a9:f6:d2:e3:6a:7d:ae:e1:
                    dd:c5:5d:a7:83:d8:9e:b5:b2:83:3e:cc:0d:25:c6:
                    56:44:8f:51:b3:0e:4c:17:ba:5d:c7:00:11:8e:78:
                    a1:2e:c8:f0:59:d2:da:63:32:f4:e6:09:22:df:42:
                    63:90:77:5d:0f:e1:6c:77:ae:ef:aa:e4:46:85:c9:
                    6e:c5:ab:66:81:ad:fe:ab:a0:97:42:55:66:5e:f6:
                    50:cf:47:8c:83:07:4f:ab:e5
                Exponent: 65537 (0x10001)
        X509v3 extensions:
            X509v3 Basic Constraints: critical
                CA:FALSE
            X509v3 Key Usage: 
                Key Agreement
    Signature Algorithm: sha256WithRSAEncryption
         86:60:47:7e:6d:e8:7f:f8:0c:f5:ce:3c:8f:fe:0d:36:47:41:
         11:ac:10:aa:ed:97:87:00:b8:5b:c1:6d:fc:7c:a1:3f:e7:db:
         81:d6:11:26:3b:5c:d1:ff:36:2d:47:cd:67:42:94:e3:57:27:
         cc:d8:a5:54:06:f0:4d:08:f2:90:86:88:8b:46:80:92:89:ef:
         65:81:f5:52:72:d3:0e:08:a3:cb:71:b2:ee:d3:f1:39:4f:31:
         5b:d3:5f:a5:d7:77:ab:58:5b:79:45:60:70:31:7c:11:1d:17:
         b8:dd:86:55:13:b9:97:c2:00:9a:1d:62:f4:8f:0e:34:53:6e:
         c6:22:2b:07:b0:85:20:99:d5:6d:6d:b8:6e:6f:dd:40:45:18:
         57:08:67:9a:c4:73:b9:cb:ee:28:7d:e9:9b:a4:16:08:50:97:
         c6:89:29:ea:15:3a:0b:63:2a:e4:3a:62:95:e0:41:48:69:72:
         9b:8f:ad:54:59:96:dd:a0:6f:f3:2d:c0:e2:5c:e5:ed:74:f7:
         39:24:af:db:9d:d2:aa:5e:89:dd:af:b6:5c:93:9a:9e:7d:75:
         7e:d0:af:9d:9e:34:30:e7:43:1e:0c:bb:12:22:70:a7:de:91:
         5a:59:dc:cc:13:fd:70:7f:d7:f3:67:4a:a0:94:54:7d:9d:03:
         53:47:97:86
-----BEGIN CERTIFICATE-----
MIIC/jCCAeagAwIBAgIBFTANBgkqhkiG9w0BAQsFADBxMQswCQYDVQQGEwJVUzET
MBEGA1UECAwKQ2FsaWZvcm5pYTEUMBIGA1UEBwwLU2FudGEgQ2xhcmExDTALBgNV
BAoMBHBrZzUxEDAOBgNVBAMMB2NoMV90YTMxFjAUBgkqhkiG9w0BCQEWB2NoMV90
YTMwHhcNMTgwNzAzMTQxNDAxWhcNMjEwMzI5MTQxNDAxWjB5MQswCQYDVQQGEwJV
UzETMBEGA1UECAwKQ2FsaWZvcm5pYTEUMBIGA1UEBwwLU2FudGEgQ2xhcmExDTAL
BgNVBAoMBHBrZzUxFDASBgNVBAMMC2NzNV9jaDFfdGEzMRowGAYJKoZIhvcNAQkB
FgtjczVfY2gxX3RhMzCBnzANBgkqhkiG9w0BAQEFAAOBjQAwgYkCgYEAzxklofye
ejfr53CbJch6n3cgM+wf7toQU89uAecDzimtvazRqfbS42p9ruHdxV2ng9ietbKD
PswNJcZWRI9Rsw5MF7pdxwARjnihLsjwWdLaYzL05gki30JjkHddD+Fsd67vquRG
hcluxatmga3+q6CXQlVmXvZQz0eMgwdPq+UCAwEAAaMdMBswDAYDVR0TAQH/BAIw
ADALBgNVHQ8EBAMCAwgwDQYJKoZIhvcNAQELBQADggEBAIZgR35t6H/4DPXOPI/+
DTZHQRGsEKrtl4cAuFvBbfx8oT/n24HWESY7XNH/Ni1HzWdClONXJ8zYpVQG8E0I
8pCGiItGgJKJ72WB9VJy0w4Io8txsu7T8TlPMVvTX6XXd6tYW3lFYHAxfBEdF7jd
hlUTuZfCAJodYvSPDjRTbsYiKwewhSCZ1W1tuG5v3UBFGFcIZ5rEc7nL7ih96Zuk
FghQl8aJKeoVOgtjKuQ6YpXgQUhpcpuPrVRZlt2gb/MtwOJc5e109zkkr9ud0qpe
id2vtlyTmp59dX7Qr52eNDDnQx4MuxIicKfekVpZ3MwT/XB/1/NnSqCUVH2dA1NH
l4Y=
-----END CERTIFICATE-----
