Certificate:
    Data:
        Version: 3 (0x2)
        Serial Number: 22 (0x16)
    Signature Algorithm: sha256WithRSAEncryption
        Issuer: C=US, ST=California, L=Santa Clara, O=pkg5, CN=ch1_ta3/emailAddress=ch1_ta3
        Validity
            Not Before: Jul  3 14:14:01 2018 GMT
            Not After : Mar 29 14:14:01 2021 GMT
        Subject: C=US, ST=California, L=Santa Clara, O=pkg5, CN=cs6_ch1_ta3/emailAddress=cs6_ch1_ta3
        Subject Public Key Info:
            Public Key Algorithm: rsaEncryption
                Public-Key: (1024 bit)
                Modulus:
                    00:c0:60:f1:c9:28:c7:4f:8a:13:04:5d:84:47:0b:
                    6b:32:ac:b8:67:35:6e:fb:03:0c:64:82:66:b9:71:
                    21:81:a1:4a:cf:a3:70:04:8c:32:ba:ba:99:5d:19:
                    b5:b9:d4:67:f8:9b:25:86:86:30:3a:14:0f:f5:df:
                    de:b0:66:52:c7:f9:d2:41:81:27:75:1b:81:e8:43:
                    76:98:78:90:80:08:05:fc:52:6d:be:cf:c7:b4:6f:
                    b9:0d:e9:b8:26:48:9b:36:07:db:7e:d6:24:a2:41:
                    cd:90:ad:b6:59:91:52:5d:c4:9a:dd:a3:92:c8:44:
                    68:a7:7b:a7:c9:5e:53:cf:85
                Exponent: 65537 (0x10001)
        X509v3 extensions:
            X509v3 Basic Constraints: critical
                CA:FALSE
            X509v3 Key Usage: critical
                Key Agreement, Encipher Only
    Signature Algorithm: sha256WithRSAEncryption
         50:60:78:cf:9a:2d:98:0b:65:06:fc:c5:05:bb:84:c9:4a:99:
         3a:07:fa:13:08:bf:5b:79:e2:4a:80:94:21:7c:33:74:84:31:
         c1:5b:a9:ff:c4:01:29:92:f7:99:18:b2:1d:63:85:63:b9:55:
         35:1f:59:fe:37:1d:f8:67:c1:28:08:c9:1c:52:70:4d:06:cb:
         ee:89:b4:d1:cc:00:29:5c:7f:ff:c9:88:b5:8f:96:d5:71:c0:
         9c:bf:57:c7:6b:6a:74:66:36:30:cf:9e:4b:d0:d4:e6:55:8f:
         36:c5:2c:f0:34:75:bd:bd:a5:e2:27:ec:63:4b:97:76:ee:06:
         c3:b1:d8:27:77:b0:e1:01:94:15:95:22:e0:34:26:ab:7e:6e:
         91:7e:5c:70:8f:8e:fb:4b:7f:14:26:fa:20:a9:6f:2c:23:c8:
         01:00:52:44:ca:10:9c:3a:10:ee:66:f7:5f:dd:61:29:75:8c:
         19:23:1e:4b:8f:d1:89:d2:8d:e6:1e:6c:59:44:67:5f:ac:db:
         a7:72:4c:01:c1:78:7d:3b:d5:34:e3:22:7d:2b:21:28:9f:ed:
         d4:0a:cc:74:1c:79:8b:9f:34:bb:28:44:4a:83:df:95:4d:6e:
         0c:0b:c3:30:38:7e:40:e1:2c:b7:25:73:21:04:02:d2:d2:56:
         47:55:f6:c6
-----BEGIN CERTIFICATE-----
MIIDATCCAemgAwIBAgIBFjANBgkqhkiG9w0BAQsFADBxMQswCQYDVQQGEwJVUzET
MBEGA1UECAwKQ2FsaWZvcm5pYTEUMBIGA1UEBwwLU2FudGEgQ2xhcmExDTALBgNV
BAoMBHBrZzUxEDAOBgNVBAMMB2NoMV90YTMxFjAUBgkqhkiG9w0BCQEWB2NoMV90
YTMwHhcNMTgwNzAzMTQxNDAxWhcNMjEwMzI5MTQxNDAxWjB5MQswCQYDVQQGEwJV
UzETMBEGA1UECAwKQ2FsaWZvcm5pYTEUMBIGA1UEBwwLU2FudGEgQ2xhcmExDTAL
BgNVBAoMBHBrZzUxFDASBgNVBAMMC2NzNl9jaDFfdGEzMRowGAYJKoZIhvcNAQkB
FgtjczZfY2gxX3RhMzCBnzANBgkqhkiG9w0BAQEFAAOBjQAwgYkCgYEAwGDxySjH
T4oTBF2ERwtrMqy4ZzVu+wMMZIJmuXEhgaFKz6NwBIwyurqZXRm1udRn+JslhoYw
OhQP9d/esGZSx/nSQYEndRuB6EN2mHiQgAgF/FJtvs/HtG+5Dem4JkibNgfbftYk
okHNkK22WZFSXcSa3aOSyERop3unyV5Tz4UCAwEAAaMgMB4wDAYDVR0TAQH/BAIw
ADAOBgNVHQ8BAf8EBAMCAAkwDQYJKoZIhvcNAQELBQADggEBAFBgeM+aLZgLZQb8
xQW7hMlKmToH+hMIv1t54kqAlCF8M3SEMcFbqf/EASmS95kYsh1jhWO5VTUfWf43
HfhnwSgIyRxScE0Gy+6JtNHMAClcf//JiLWPltVxwJy/V8dranRmNjDPnkvQ1OZV
jzbFLPA0db29peIn7GNLl3buBsOx2Cd3sOEBlBWVIuA0Jqt+bpF+XHCPjvtLfxQm
+iCpbywjyAEAUkTKEJw6EO5m91/dYSl1jBkjHkuP0YnSjeYebFlEZ1+s26dyTAHB
eH071TTjIn0rISif7dQKzHQceYufNLsoREqD35VNbgwLwzA4fkDhLLclcyEEAtLS
VkdV9sY=
-----END CERTIFICATE-----
