Certificate:
    Data:
        Version: 3 (0x2)
        Serial Number: 22 (0x16)
    Signature Algorithm: sha256WithRSAEncryption
        Issuer: C=US, ST=California, L=Santa Clara, O=pkg5, CN=ch1_ta3/emailAddress=ch1_ta3
        Validity
            Not Before: Nov 11 12:38:31 2017 GMT
            Not After : Aug  7 12:38:31 2020 GMT
        Subject: C=US, ST=California, L=Santa Clara, O=pkg5, CN=cs6_ch1_ta3/emailAddress=cs6_ch1_ta3
        Subject Public Key Info:
            Public Key Algorithm: rsaEncryption
                Public-Key: (1024 bit)
                Modulus:
                    00:d6:79:48:9d:3e:c0:f7:9d:10:2a:21:e8:fd:77:
                    1c:34:39:4e:61:ba:0c:5e:4f:ae:1f:92:9d:f9:ae:
                    68:93:0e:78:0d:37:68:9c:1e:97:f0:86:c1:da:9e:
                    e6:e4:88:74:89:3d:3e:2f:ce:14:d8:79:46:a7:89:
                    10:da:bc:03:7e:46:27:c5:90:09:6c:32:5c:2a:6c:
                    15:3c:33:d9:a9:2c:23:78:5a:90:38:3a:54:fd:7e:
                    e9:15:70:02:ff:30:25:5f:82:e2:1b:1f:71:df:53:
                    f0:6e:19:dc:f8:55:fe:66:e9:f7:b6:b1:57:e9:5f:
                    3b:fe:e7:64:23:ae:a4:39:6f
                Exponent: 65537 (0x10001)
        X509v3 extensions:
            X509v3 Basic Constraints: critical
                CA:FALSE
            X509v3 Key Usage: critical
                Encipher Only
    Signature Algorithm: sha256WithRSAEncryption
         63:10:17:60:07:e6:8e:2f:01:64:48:8c:f1:31:40:79:bb:29:
         dc:c5:59:30:2f:70:5a:69:42:9b:f7:8b:08:7b:b9:f7:aa:14:
         53:f6:e6:39:fc:9d:54:f1:81:72:13:a2:fb:5a:f2:b0:1e:ca:
         f4:f8:60:7e:c1:0f:2e:16:e3:da:6c:a1:06:a3:73:94:0d:68:
         8f:99:bd:e5:83:ba:ed:2f:05:3b:f0:b5:39:55:57:ac:14:40:
         60:da:a4:06:9c:45:a9:5b:d1:0f:9a:38:4a:a1:6f:1b:10:0b:
         63:8b:44:3d:1a:64:a6:a1:dc:d7:4f:98:89:c8:07:f7:cb:08:
         d1:a3:92:13:5e:7e:a0:78:06:f8:4f:11:be:ed:8c:c3:f0:79:
         a5:5d:71:c4:f7:91:73:48:73:69:e8:d1:da:c5:cd:59:cf:91:
         cb:25:c9:e6:17:9a:fd:2f:1b:c1:b4:b2:2d:f2:64:87:25:af:
         53:a7:71:06:5c:04:b4:f0:ee:93:9e:ea:37:b2:7c:b6:ee:ad:
         a7:3d:75:38:ce:83:a5:0d:a3:27:cc:2b:5c:77:55:24:b1:f6:
         aa:ed:8e:fd:e8:ca:29:57:65:ee:75:af:1e:77:f1:f5:1d:6b:
         9a:81:c4:b8:ae:01:57:bb:1e:74:06:94:cf:28:ea:b6:d2:69:
         b2:42:53:42
-----BEGIN CERTIFICATE-----
MIIDATCCAemgAwIBAgIBFjANBgkqhkiG9w0BAQsFADBxMQswCQYDVQQGEwJVUzET
MBEGA1UECAwKQ2FsaWZvcm5pYTEUMBIGA1UEBwwLU2FudGEgQ2xhcmExDTALBgNV
BAoMBHBrZzUxEDAOBgNVBAMMB2NoMV90YTMxFjAUBgkqhkiG9w0BCQEWB2NoMV90
YTMwHhcNMTcxMTExMTIzODMxWhcNMjAwODA3MTIzODMxWjB5MQswCQYDVQQGEwJV
UzETMBEGA1UECAwKQ2FsaWZvcm5pYTEUMBIGA1UEBwwLU2FudGEgQ2xhcmExDTAL
BgNVBAoMBHBrZzUxFDASBgNVBAMMC2NzNl9jaDFfdGEzMRowGAYJKoZIhvcNAQkB
FgtjczZfY2gxX3RhMzCBnzANBgkqhkiG9w0BAQEFAAOBjQAwgYkCgYEA1nlInT7A
950QKiHo/XccNDlOYboMXk+uH5Kd+a5okw54DTdonB6X8IbB2p7m5Ih0iT0+L84U
2HlGp4kQ2rwDfkYnxZAJbDJcKmwVPDPZqSwjeFqQODpU/X7pFXAC/zAlX4LiGx9x
31Pwbhnc+FX+Zun3trFX6V87/udkI66kOW8CAwEAAaMgMB4wDAYDVR0TAQH/BAIw
ADAOBgNVHQ8BAf8EBAMCAAEwDQYJKoZIhvcNAQELBQADggEBAGMQF2AH5o4vAWRI
jPExQHm7KdzFWTAvcFppQpv3iwh7ufeqFFP25jn8nVTxgXITovta8rAeyvT4YH7B
Dy4W49psoQajc5QNaI+ZveWDuu0vBTvwtTlVV6wUQGDapAacRalb0Q+aOEqhbxsQ
C2OLRD0aZKah3NdPmInIB/fLCNGjkhNefqB4BvhPEb7tjMPweaVdccT3kXNIc2no
0drFzVnPkcslyeYXmv0vG8G0si3yZIclr1OncQZcBLTw7pOe6jeyfLburac9dTjO
g6UNoyfMK1x3VSSx9qrtjv3oyilXZe51rx538fUda5qBxLiuAVe7HnQGlM8o6rbS
abJCU0I=
-----END CERTIFICATE-----
