Certificate:
    Data:
        Version: 3 (0x2)
        Serial Number: 23 (0x17)
    Signature Algorithm: sha256WithRSAEncryption
        Issuer: C=US, ST=California, L=Santa Clara, O=pkg5, CN=ch1_ta3/emailAddress=ch1_ta3
        Validity
            Not Before: Nov 24 01:22:42 2021 GMT
            Not After : Aug 20 01:22:42 2024 GMT
        Subject: C=US, ST=California, L=Santa Clara, O=pkg5, CN=cs7_ch1_ta3/emailAddress=cs7_ch1_ta3
        Subject Public Key Info:
            Public Key Algorithm: rsaEncryption
                Public-Key: (1024 bit)
                Modulus:
                    00:cd:39:6d:e3:71:77:80:b8:60:b5:34:6e:9b:79:
                    90:a5:f4:6d:a1:38:23:74:a5:bf:dd:04:48:19:0b:
                    8a:45:96:93:f4:20:d3:03:16:60:dc:08:b5:ba:30:
                    35:97:bf:4a:2b:20:dc:46:e1:87:a1:35:66:a1:70:
                    f8:80:94:90:11:4e:d5:ca:4f:72:19:5f:48:fb:33:
                    90:5a:c4:8b:a1:f9:85:a0:cd:7d:eb:f2:56:ef:da:
                    4b:6d:3c:48:88:f2:1e:b2:2e:df:c3:aa:52:1c:6b:
                    b8:7c:ad:06:dd:48:a9:23:61:f7:ea:a0:bc:e6:41:
                    60:52:4b:c9:c0:39:46:f4:c9
                Exponent: 65537 (0x10001)
        X509v3 extensions:
            X509v3 Basic Constraints: critical
                CA:FALSE
    Signature Algorithm: sha256WithRSAEncryption
         b3:28:76:9e:d9:79:6e:4f:ac:8a:72:54:14:58:85:19:ba:fc:
         95:6e:30:b1:7f:67:86:54:0d:34:8b:a1:43:2b:6c:fe:2f:24:
         b0:68:b8:53:32:54:55:a4:97:5c:84:45:8f:bc:4a:86:25:1c:
         18:ed:ef:70:50:e9:79:e7:9a:3b:e9:6c:ee:4d:19:b7:01:40:
         07:2a:25:c4:df:7a:1d:b0:96:4a:2b:2b:89:22:7f:c3:99:7a:
         28:95:4d:ce:35:b6:3e:8d:b3:3e:74:60:b9:5f:6e:3d:e8:db:
         91:40:e4:e7:3a:de:e1:24:b0:48:84:f7:9e:91:75:89:3e:35:
         8e:3a:bb:6e:6f:30:6d:09:c2:75:d1:8f:9c:67:6f:03:63:ec:
         13:23:9a:d9:00:d6:25:51:2d:73:81:5b:10:10:45:92:6d:5e:
         75:13:57:b8:20:13:ad:82:b7:8d:ea:2d:d8:88:7e:5a:53:7f:
         16:ae:62:84:69:47:d2:fc:bb:f2:d7:df:1f:58:49:82:87:fe:
         cc:88:8e:cc:c7:64:5c:a1:37:32:df:a6:79:80:dc:52:f5:63:
         57:d6:41:db:11:c1:14:27:5a:e1:5d:b1:b3:ba:ee:28:f1:b2:
         42:3d:66:80:d7:75:ad:22:f0:57:73:1a:53:35:a2:a9:6f:75:
         14:d6:b6:44
-----BEGIN CERTIFICATE-----
MIIC8TCCAdmgAwIBAgIBFzANBgkqhkiG9w0BAQsFADBxMQswCQYDVQQGEwJVUzET
MBEGA1UECAwKQ2FsaWZvcm5pYTEUMBIGA1UEBwwLU2FudGEgQ2xhcmExDTALBgNV
BAoMBHBrZzUxEDAOBgNVBAMMB2NoMV90YTMxFjAUBgkqhkiG9w0BCQEWB2NoMV90
YTMwHhcNMjExMTI0MDEyMjQyWhcNMjQwODIwMDEyMjQyWjB5MQswCQYDVQQGEwJV
UzETMBEGA1UECAwKQ2FsaWZvcm5pYTEUMBIGA1UEBwwLU2FudGEgQ2xhcmExDTAL
BgNVBAoMBHBrZzUxFDASBgNVBAMMC2NzN19jaDFfdGEzMRowGAYJKoZIhvcNAQkB
FgtjczdfY2gxX3RhMzCBnzANBgkqhkiG9w0BAQEFAAOBjQAwgYkCgYEAzTlt43F3
gLhgtTRum3mQpfRtoTgjdKW/3QRIGQuKRZaT9CDTAxZg3Ai1ujA1l79KKyDcRuGH
oTVmoXD4gJSQEU7Vyk9yGV9I+zOQWsSLofmFoM196/JW79pLbTxIiPIesi7fw6pS
HGu4fK0G3UipI2H36qC85kFgUkvJwDlG9MkCAwEAAaMQMA4wDAYDVR0TAQH/BAIw
ADANBgkqhkiG9w0BAQsFAAOCAQEAsyh2ntl5bk+sinJUFFiFGbr8lW4wsX9nhlQN
NIuhQyts/i8ksGi4UzJUVaSXXIRFj7xKhiUcGO3vcFDpeeeaO+ls7k0ZtwFAByol
xN96HbCWSisriSJ/w5l6KJVNzjW2Po2zPnRguV9uPejbkUDk5zre4SSwSIT3npF1
iT41jjq7bm8wbQnCddGPnGdvA2PsEyOa2QDWJVEtc4FbEBBFkm1edRNXuCATrYK3
jeot2Ih+WlN/Fq5ihGlH0vy78tffH1hJgof+zIiOzMdkXKE3Mt+meYDcUvVjV9ZB
2xHBFCda4V2xs7ruKPGyQj1mgNd1rSLwV3MaUzWiqW91FNa2RA==
-----END CERTIFICATE-----
