Certificate:
    Data:
        Version: 3 (0x2)
        Serial Number: 24 (0x18)
    Signature Algorithm: sha256WithRSAEncryption
        Issuer: C=US, ST=California, L=Santa Clara, O=pkg5, CN=ch1_ta3/emailAddress=ch1_ta3
        Validity
            Not Before: Nov 11 12:38:31 2017 GMT
            Not After : Aug  7 12:38:31 2020 GMT
        Subject: C=US, ST=California, L=Santa Clara, O=pkg5, CN=cs8_ch1_ta3/emailAddress=cs8_ch1_ta3
        Subject Public Key Info:
            Public Key Algorithm: rsaEncryption
                Public-Key: (1024 bit)
                Modulus:
                    00:cf:02:d3:c4:55:35:65:58:b4:5c:af:69:15:db:
                    7d:75:7d:bf:11:4e:47:51:2b:0e:5d:48:a2:a1:97:
                    21:50:86:b6:61:73:36:2f:ce:58:69:4f:e5:0e:5f:
                    15:ff:89:e1:11:74:b1:dd:4f:3f:b6:5c:fc:b5:ca:
                    38:e7:9c:5d:f9:bf:37:21:00:38:e1:0c:f8:b5:a5:
                    5c:ad:d3:a9:45:00:6d:02:b8:a0:ef:ea:77:e0:04:
                    3e:d3:78:46:1d:98:d5:eb:26:ff:9c:0a:e1:58:12:
                    66:57:97:35:a1:bf:81:a8:6b:64:88:16:81:fb:64:
                    a4:08:60:39:88:f7:4c:e6:0b
                Exponent: 65537 (0x10001)
        X509v3 extensions:
            X509v3 Basic Constraints: critical
                CA:TRUE
            X509v3 Key Usage: critical
                Digital Signature
    Signature Algorithm: sha256WithRSAEncryption
         ae:84:81:34:23:e1:0b:ef:3d:11:73:15:af:0e:88:4d:2d:5b:
         38:23:75:2e:8f:e4:0a:f0:c2:38:fa:32:d3:34:b1:0c:4e:1d:
         12:09:3b:8d:3a:17:35:1e:e3:43:e2:40:03:a8:42:e6:a8:d1:
         8e:e0:d1:2a:71:60:76:cc:90:26:62:21:b8:4a:7e:bc:a8:c9:
         19:97:24:c2:d5:3f:88:d7:e9:88:e1:91:df:5c:21:43:da:b1:
         b3:57:f9:31:2d:ab:97:d2:7e:ac:85:7d:e0:50:58:66:82:24:
         07:73:91:d2:3e:81:90:7a:42:16:95:f8:9d:c1:71:ee:15:ab:
         9b:6d:ba:d1:b7:0f:9c:b3:3c:9e:ce:a3:20:0d:7e:41:87:90:
         a9:f6:64:fc:0f:c7:c4:18:1e:40:1c:67:9c:6f:ac:2b:38:fe:
         7e:0e:d5:83:ac:25:b8:61:34:ea:80:11:6c:8f:a1:0d:ee:c8:
         dd:8e:6c:46:b2:71:ed:86:86:4d:dc:43:3a:a5:19:8d:8e:71:
         54:db:b9:9c:c2:55:df:66:fc:05:18:03:fc:67:20:13:44:e3:
         ea:11:42:51:c9:40:c2:2f:ea:8e:1a:7c:a6:75:a6:da:26:f4:
         bc:c0:f1:68:b1:4a:aa:4c:27:29:21:7b:bc:e7:3e:a1:52:cc:
         f0:85:0d:48
-----BEGIN CERTIFICATE-----
MIIDBDCCAeygAwIBAgIBGDANBgkqhkiG9w0BAQsFADBxMQswCQYDVQQGEwJVUzET
MBEGA1UECAwKQ2FsaWZvcm5pYTEUMBIGA1UEBwwLU2FudGEgQ2xhcmExDTALBgNV
BAoMBHBrZzUxEDAOBgNVBAMMB2NoMV90YTMxFjAUBgkqhkiG9w0BCQEWB2NoMV90
YTMwHhcNMTcxMTExMTIzODMxWhcNMjAwODA3MTIzODMxWjB5MQswCQYDVQQGEwJV
UzETMBEGA1UECAwKQ2FsaWZvcm5pYTEUMBIGA1UEBwwLU2FudGEgQ2xhcmExDTAL
BgNVBAoMBHBrZzUxFDASBgNVBAMMC2NzOF9jaDFfdGEzMRowGAYJKoZIhvcNAQkB
FgtjczhfY2gxX3RhMzCBnzANBgkqhkiG9w0BAQEFAAOBjQAwgYkCgYEAzwLTxFU1
ZVi0XK9pFdt9dX2/EU5HUSsOXUiioZchUIa2YXM2L85YaU/lDl8V/4nhEXSx3U8/
tlz8tco455xd+b83IQA44Qz4taVcrdOpRQBtArig7+p34AQ+03hGHZjV6yb/nArh
WBJmV5c1ob+BqGtkiBaB+2SkCGA5iPdM5gsCAwEAAaMjMCEwDwYDVR0TAQH/BAUw
AwEB/zAOBgNVHQ8BAf8EBAMCB4AwDQYJKoZIhvcNAQELBQADggEBAK6EgTQj4Qvv
PRFzFa8OiE0tWzgjdS6P5Arwwjj6MtM0sQxOHRIJO406FzUe40PiQAOoQuao0Y7g
0SpxYHbMkCZiIbhKfryoyRmXJMLVP4jX6Yjhkd9cIUPasbNX+TEtq5fSfqyFfeBQ
WGaCJAdzkdI+gZB6QhaV+J3Bce4Vq5ttutG3D5yzPJ7OoyANfkGHkKn2ZPwPx8QY
HkAcZ5xvrCs4/n4O1YOsJbhhNOqAEWyPoQ3uyN2ObEayce2Ghk3cQzqlGY2OcVTb
uZzCVd9m/AUYA/xnIBNE4+oRQlHJQMIv6o4afKZ1ptom9LzA8WixSqpMJykhe7zn
PqFSzPCFDUg=
-----END CERTIFICATE-----
