Certificate:
    Data:
        Version: 3 (0x2)
        Serial Number: 24 (0x18)
    Signature Algorithm: sha256WithRSAEncryption
        Issuer: C=US, ST=California, L=Santa Clara, O=pkg5, CN=ch1_ta3/emailAddress=ch1_ta3
        Validity
            Not Before: Jul  3 14:14:01 2018 GMT
            Not After : Mar 29 14:14:01 2021 GMT
        Subject: C=US, ST=California, L=Santa Clara, O=pkg5, CN=cs8_ch1_ta3/emailAddress=cs8_ch1_ta3
        Subject Public Key Info:
            Public Key Algorithm: rsaEncryption
                Public-Key: (1024 bit)
                Modulus:
                    00:d6:57:cd:52:d1:30:5b:91:4b:40:ae:a5:8b:d0:
                    41:0b:e7:5c:bf:b9:1d:5c:0b:90:d8:eb:45:b8:4d:
                    e5:05:33:3c:e9:bc:64:23:38:34:07:6d:3e:9a:a6:
                    6c:02:99:65:de:62:4c:4c:9c:6d:aa:c0:07:14:4a:
                    f6:f9:38:1b:9e:83:39:29:98:78:3d:31:29:29:a2:
                    e0:9e:36:77:cd:f4:e2:3b:fd:eb:10:00:a5:18:15:
                    3c:cd:57:dd:a4:9f:6d:fe:f1:8b:ec:60:1d:32:f8:
                    88:02:ef:21:08:70:61:f5:b2:6b:74:62:d8:25:0c:
                    04:f9:98:d0:a0:83:60:0a:1d
                Exponent: 65537 (0x10001)
        X509v3 extensions:
            X509v3 Basic Constraints: critical
                CA:TRUE
            X509v3 Key Usage: critical
                Digital Signature
    Signature Algorithm: sha256WithRSAEncryption
         bd:14:52:c4:db:9c:7a:cb:b1:e7:b5:29:64:05:a8:22:ec:81:
         65:0b:c3:26:40:6b:7a:d6:cc:38:33:4d:39:e2:f7:5a:07:ec:
         66:ab:0a:27:3e:30:d5:2c:93:f3:86:98:ff:75:3f:21:aa:ec:
         33:4e:1a:fd:ae:1a:15:cf:0f:ff:7c:6f:1d:ae:c5:6c:96:a4:
         3b:a9:3f:41:89:80:8c:5a:c2:32:78:1d:e4:4a:91:08:00:fe:
         ea:f5:53:82:02:60:2a:36:4a:e6:7a:23:3c:32:ee:3a:53:84:
         df:10:e2:5f:b2:f6:ed:da:84:67:a6:7b:fb:0f:c1:ad:dd:26:
         f7:01:9a:e2:50:f1:c2:75:ef:77:36:aa:4d:b9:20:2b:b8:5c:
         de:29:26:a3:90:c3:f4:bc:a1:6f:10:09:a1:50:e8:af:1f:a2:
         1c:be:10:b8:a3:d7:eb:e8:dc:c4:14:fd:93:bf:d8:24:c8:94:
         81:c6:30:98:e9:2e:fa:8c:01:b2:cf:c2:1b:35:e1:2f:bb:f0:
         3f:8c:0d:87:f5:54:53:ed:b4:26:61:80:2d:62:db:ee:75:98:
         46:1e:4d:10:89:c2:a8:2f:ef:9b:90:53:2b:18:ea:e0:27:88:
         39:9f:df:c0:f1:75:2c:25:6b:f2:0d:53:67:ee:a5:09:b4:83:
         78:91:45:fc
-----BEGIN CERTIFICATE-----
MIIDBDCCAeygAwIBAgIBGDANBgkqhkiG9w0BAQsFADBxMQswCQYDVQQGEwJVUzET
MBEGA1UECAwKQ2FsaWZvcm5pYTEUMBIGA1UEBwwLU2FudGEgQ2xhcmExDTALBgNV
BAoMBHBrZzUxEDAOBgNVBAMMB2NoMV90YTMxFjAUBgkqhkiG9w0BCQEWB2NoMV90
YTMwHhcNMTgwNzAzMTQxNDAxWhcNMjEwMzI5MTQxNDAxWjB5MQswCQYDVQQGEwJV
UzETMBEGA1UECAwKQ2FsaWZvcm5pYTEUMBIGA1UEBwwLU2FudGEgQ2xhcmExDTAL
BgNVBAoMBHBrZzUxFDASBgNVBAMMC2NzOF9jaDFfdGEzMRowGAYJKoZIhvcNAQkB
FgtjczhfY2gxX3RhMzCBnzANBgkqhkiG9w0BAQEFAAOBjQAwgYkCgYEA1lfNUtEw
W5FLQK6li9BBC+dcv7kdXAuQ2OtFuE3lBTM86bxkIzg0B20+mqZsApll3mJMTJxt
qsAHFEr2+TgbnoM5KZh4PTEpKaLgnjZ3zfTiO/3rEAClGBU8zVfdpJ9t/vGL7GAd
MviIAu8hCHBh9bJrdGLYJQwE+ZjQoINgCh0CAwEAAaMjMCEwDwYDVR0TAQH/BAUw
AwEB/zAOBgNVHQ8BAf8EBAMCB4AwDQYJKoZIhvcNAQELBQADggEBAL0UUsTbnHrL
see1KWQFqCLsgWULwyZAa3rWzDgzTTni91oH7GarCic+MNUsk/OGmP91PyGq7DNO
Gv2uGhXPD/98bx2uxWyWpDupP0GJgIxawjJ4HeRKkQgA/ur1U4ICYCo2SuZ6Izwy
7jpThN8Q4l+y9u3ahGeme/sPwa3dJvcBmuJQ8cJ173c2qk25ICu4XN4pJqOQw/S8
oW8QCaFQ6K8fohy+ELij1+vo3MQU/ZO/2CTIlIHGMJjpLvqMAbLPwhs14S+78D+M
DYf1VFPttCZhgC1i2+51mEYeTRCJwqgv75uQUysY6uAniDmf38DxdSwla/INU2fu
pQm0g3iRRfw=
-----END CERTIFICATE-----
