Certificate:
    Data:
        Version: 3 (0x2)
        Serial Number:
            9f:5a:3d:62:12:4e:13:64
    Signature Algorithm: sha256WithRSAEncryption
        Issuer: C=US, ST=California, L=Santa Clara, O=pkg5, OU=ta7, CN=localhost/emailAddress=ta7
        Validity
            Not Before: Jul  3 14:14:04 2018 GMT
            Not After : Mar 29 14:14:04 2021 GMT
        Subject: C=US, ST=California, L=Santa Clara, O=pkg5, OU=ta7, CN=localhost/emailAddress=ta7
        Subject Public Key Info:
            Public Key Algorithm: rsaEncryption
                Public-Key: (2048 bit)
                Modulus:
                    00:fa:0b:a7:6e:54:b7:04:0c:68:68:8b:ea:6d:48:
                    0f:6b:4c:3b:a2:3d:42:64:9d:25:0d:a8:28:f3:d0:
                    35:5d:8b:6c:fa:16:78:a9:19:4f:2c:35:7d:cd:fc:
                    8c:ea:3e:2c:47:74:a3:48:a7:73:53:b5:a6:64:a6:
                    7d:98:3d:ba:83:ad:b4:14:52:93:cd:54:58:50:86:
                    3d:68:ea:26:91:88:49:8c:ac:45:39:2e:5a:6a:33:
                    6c:23:8b:de:68:25:aa:fb:50:f8:2d:3e:9a:48:ed:
                    8c:8d:49:66:f5:6c:e3:0f:42:dd:c5:44:91:55:e7:
                    d1:99:c3:c1:ec:a0:2f:eb:87:78:08:ba:2f:67:17:
                    fb:74:8d:a1:ac:70:b6:75:70:a0:fe:7b:9e:45:70:
                    23:6a:68:e4:a6:d6:56:7b:c1:1c:88:71:42:7e:1f:
                    2b:a6:39:14:a5:6a:6f:6f:de:20:0d:0e:f6:7c:1f:
                    e7:17:44:ad:42:83:7f:fa:a7:e5:d2:4b:ae:34:05:
                    eb:51:20:95:e9:51:14:c9:45:fb:4c:b8:68:5b:67:
                    1a:24:3f:fb:8f:96:f6:fd:f5:94:e4:86:36:38:db:
                    c3:07:5b:86:a9:a0:3a:19:99:49:5d:7d:77:26:1c:
                    b1:a0:65:bc:38:91:b6:fd:c9:f7:0d:c4:87:83:b7:
                    4c:19
                Exponent: 65537 (0x10001)
        X509v3 extensions:
            X509v3 Subject Key Identifier: 
                21:75:BD:F0:D9:8B:7D:BD:CB:19:C8:A3:16:7F:28:98:E0:F8:3C:4A
            X509v3 Authority Key Identifier: 
                keyid:21:75:BD:F0:D9:8B:7D:BD:CB:19:C8:A3:16:7F:28:98:E0:F8:3C:4A

            X509v3 Basic Constraints: 
                CA:TRUE
    Signature Algorithm: sha256WithRSAEncryption
         c4:0a:1a:54:48:57:c1:98:f4:8d:fa:84:35:20:d2:c7:0e:02:
         1b:6e:63:24:4b:4f:db:48:96:d6:2a:69:b9:b9:60:0c:19:9a:
         c6:64:a4:6e:a2:b8:ff:09:4b:40:8a:88:12:22:2e:85:15:27:
         f3:da:05:c5:cd:82:84:41:a9:10:c9:f8:16:a3:2f:dc:49:cb:
         af:e2:80:8e:4a:a2:4b:75:e2:c7:7a:ce:2c:68:9f:64:1a:30:
         a0:1a:9b:a0:06:7e:94:b0:e5:46:05:d1:3f:c8:d4:58:3e:fb:
         e5:54:3c:18:7d:7a:ce:cb:be:9e:15:98:d2:44:14:d4:d9:a0:
         94:14:14:5a:98:fa:ab:b5:33:37:fd:88:9c:f0:5a:25:cd:eb:
         dd:7d:4b:b1:94:1c:85:fb:37:a3:bd:be:33:fb:f4:4e:0f:c7:
         14:23:ef:d8:1b:20:62:5e:45:71:6d:21:c5:91:a3:7d:d8:16:
         ce:47:f4:59:b0:14:89:89:22:83:c1:1d:db:ab:c1:0d:3c:fb:
         55:16:c6:ad:af:4d:c0:b9:89:00:ae:09:c5:a3:c8:f2:7e:47:
         cc:d2:e8:b2:cd:c0:de:24:35:95:ca:d8:51:e8:34:2f:11:73:
         4f:c9:06:5c:4b:3c:19:f6:cd:ad:28:1d:e3:4b:b0:16:5e:8f:
         8f:15:0b:5a
-----BEGIN CERTIFICATE-----
MIIDzTCCArWgAwIBAgIJAJ9aPWISThNkMA0GCSqGSIb3DQEBCwUAMH0xCzAJBgNV
BAYTAlVTMRMwEQYDVQQIDApDYWxpZm9ybmlhMRQwEgYDVQQHDAtTYW50YSBDbGFy
YTENMAsGA1UECgwEcGtnNTEMMAoGA1UECwwDdGE3MRIwEAYDVQQDDAlsb2NhbGhv
c3QxEjAQBgkqhkiG9w0BCQEWA3RhNzAeFw0xODA3MDMxNDE0MDRaFw0yMTAzMjkx
NDE0MDRaMH0xCzAJBgNVBAYTAlVTMRMwEQYDVQQIDApDYWxpZm9ybmlhMRQwEgYD
VQQHDAtTYW50YSBDbGFyYTENMAsGA1UECgwEcGtnNTEMMAoGA1UECwwDdGE3MRIw
EAYDVQQDDAlsb2NhbGhvc3QxEjAQBgkqhkiG9w0BCQEWA3RhNzCCASIwDQYJKoZI
hvcNAQEBBQADggEPADCCAQoCggEBAPoLp25UtwQMaGiL6m1ID2tMO6I9QmSdJQ2o
KPPQNV2LbPoWeKkZTyw1fc38jOo+LEd0o0inc1O1pmSmfZg9uoOttBRSk81UWFCG
PWjqJpGISYysRTkuWmozbCOL3mglqvtQ+C0+mkjtjI1JZvVs4w9C3cVEkVXn0ZnD
weygL+uHeAi6L2cX+3SNoaxwtnVwoP57nkVwI2po5KbWVnvBHIhxQn4fK6Y5FKVq
b2/eIA0O9nwf5xdErUKDf/qn5dJLrjQF61EglelRFMlF+0y4aFtnGiQ/+4+W9v31
lOSGNjjbwwdbhqmgOhmZSV19dyYcsaBlvDiRtv3J9w3Eh4O3TBkCAwEAAaNQME4w
HQYDVR0OBBYEFCF1vfDZi329yxnIoxZ/KJjg+DxKMB8GA1UdIwQYMBaAFCF1vfDZ
i329yxnIoxZ/KJjg+DxKMAwGA1UdEwQFMAMBAf8wDQYJKoZIhvcNAQELBQADggEB
AMQKGlRIV8GY9I36hDUg0scOAhtuYyRLT9tIltYqabm5YAwZmsZkpG6iuP8JS0CK
iBIiLoUVJ/PaBcXNgoRBqRDJ+BajL9xJy6/igI5Kokt14sd6zixon2QaMKAam6AG
fpSw5UYF0T/I1Fg+++VUPBh9es7Lvp4VmNJEFNTZoJQUFFqY+qu1Mzf9iJzwWiXN
6919S7GUHIX7N6O9vjP79E4PxxQj79gbIGJeRXFtIcWRo33YFs5H9FmwFImJIoPB
HdurwQ08+1UWxq2vTcC5iQCuCcWjyPJ+R8zS6LLNwN4kNZXK2FHoNC8Rc0/JBlxL
PBn2za0oHeNLsBZej48VC1o=
-----END CERTIFICATE-----
