Certificate:
    Data:
        Version: 3 (0x2)
        Serial Number:
            a4:84:af:45:17:63:2c:22
    Signature Algorithm: sha256WithRSAEncryption
        Issuer: C=US, ST=California, L=Santa Clara, O=pkg5, OU=ta7, CN=localhost/emailAddress=ta7
        Validity
            Not Before: Nov 11 12:38:34 2017 GMT
            Not After : Aug  7 12:38:34 2020 GMT
        Subject: C=US, ST=California, L=Santa Clara, O=pkg5, OU=ta7, CN=localhost/emailAddress=ta7
        Subject Public Key Info:
            Public Key Algorithm: rsaEncryption
                Public-Key: (2048 bit)
                Modulus:
                    00:c5:5e:9f:f7:b3:58:35:9b:93:24:19:fa:cc:a2:
                    d2:cd:5a:af:7b:d0:2a:23:e5:1e:a6:28:e9:f5:3f:
                    92:f5:35:b9:37:09:89:30:ad:53:fd:c3:96:4c:14:
                    28:61:2d:ec:4e:06:85:58:a8:d1:7e:25:ef:5e:d1:
                    ad:b8:a1:f5:2f:a8:a1:b7:de:67:24:10:13:1f:71:
                    4d:e5:69:b3:59:97:15:c9:af:12:50:54:52:b5:43:
                    19:e7:e3:81:fd:22:e5:05:33:e6:ba:25:50:3d:82:
                    d1:b2:88:3f:e4:00:cd:c9:3c:6f:93:71:5a:29:a6:
                    d8:99:59:28:e9:33:9d:c1:76:72:40:1e:f4:3a:d5:
                    50:44:f1:3e:45:59:2a:e3:35:94:3f:30:70:a0:11:
                    e4:95:b6:86:be:dd:99:2d:00:75:1d:f9:40:9d:12:
                    8b:61:13:c4:c8:0a:d2:25:d8:0f:89:8a:7a:d6:e7:
                    c4:88:7d:4c:79:7b:17:21:a7:53:0e:70:47:50:f7:
                    4d:c6:9a:e9:29:5b:47:b9:01:1e:3b:83:6b:ec:ae:
                    bb:5b:80:6f:02:7e:37:57:19:bf:f7:df:59:ab:3a:
                    a7:3e:f8:dd:66:a9:26:5a:6c:cb:41:e0:b8:3e:59:
                    dc:34:f4:17:dc:47:31:00:b6:73:92:bd:9b:9c:22:
                    1f:f9
                Exponent: 65537 (0x10001)
        X509v3 extensions:
            X509v3 Subject Key Identifier: 
                31:0B:D3:E7:EF:CD:AF:91:99:74:BC:F8:6B:FD:C5:07:95:27:6F:A5
            X509v3 Authority Key Identifier: 
                keyid:31:0B:D3:E7:EF:CD:AF:91:99:74:BC:F8:6B:FD:C5:07:95:27:6F:A5

            X509v3 Basic Constraints: 
                CA:TRUE
    Signature Algorithm: sha256WithRSAEncryption
         2b:8a:48:86:f8:80:73:2b:0f:b2:53:3f:43:13:b8:87:13:55:
         66:f7:6c:5b:41:f2:77:ef:79:09:d9:b8:72:b8:48:e8:ed:f5:
         c7:dc:27:86:12:31:f9:c7:67:3e:87:1d:a4:43:0b:af:24:b0:
         79:17:3d:d0:3a:8e:67:8b:a2:4a:29:f1:16:00:48:e7:d4:44:
         e1:5a:52:1b:5f:fa:b5:00:85:fd:ac:4b:53:96:01:72:3b:e9:
         fe:01:5c:73:bb:29:d1:e5:f5:f5:47:d3:3e:18:77:e8:ff:3d:
         ba:b8:38:32:26:d3:21:8f:86:9e:70:70:45:11:dc:b0:b4:2d:
         39:e9:54:2f:03:59:f7:59:73:84:d6:71:25:a9:93:1a:44:56:
         da:5e:0f:1b:55:f5:c4:af:e3:b9:84:58:1a:2a:9f:8f:10:27:
         c7:68:40:bf:db:e4:81:2e:ad:e0:e3:e8:c2:ea:fe:7a:0d:6c:
         62:19:c9:f9:33:ff:3e:15:82:33:fb:9c:3c:a6:89:1b:e7:e0:
         26:9e:be:9a:ed:88:41:86:1d:b8:86:c4:f9:72:2d:8e:ad:5e:
         40:ec:a4:65:c1:ee:01:61:e4:1d:c6:21:a2:82:c5:a7:2d:c7:
         4a:45:6d:88:23:fd:96:db:84:4e:f5:45:53:15:1e:8f:09:d0:
         f1:90:fc:e4
-----BEGIN CERTIFICATE-----
MIIDzTCCArWgAwIBAgIJAKSEr0UXYywiMA0GCSqGSIb3DQEBCwUAMH0xCzAJBgNV
BAYTAlVTMRMwEQYDVQQIDApDYWxpZm9ybmlhMRQwEgYDVQQHDAtTYW50YSBDbGFy
YTENMAsGA1UECgwEcGtnNTEMMAoGA1UECwwDdGE3MRIwEAYDVQQDDAlsb2NhbGhv
c3QxEjAQBgkqhkiG9w0BCQEWA3RhNzAeFw0xNzExMTExMjM4MzRaFw0yMDA4MDcx
MjM4MzRaMH0xCzAJBgNVBAYTAlVTMRMwEQYDVQQIDApDYWxpZm9ybmlhMRQwEgYD
VQQHDAtTYW50YSBDbGFyYTENMAsGA1UECgwEcGtnNTEMMAoGA1UECwwDdGE3MRIw
EAYDVQQDDAlsb2NhbGhvc3QxEjAQBgkqhkiG9w0BCQEWA3RhNzCCASIwDQYJKoZI
hvcNAQEBBQADggEPADCCAQoCggEBAMVen/ezWDWbkyQZ+syi0s1ar3vQKiPlHqYo
6fU/kvU1uTcJiTCtU/3DlkwUKGEt7E4GhVio0X4l717Rrbih9S+oobfeZyQQEx9x
TeVps1mXFcmvElBUUrVDGefjgf0i5QUz5rolUD2C0bKIP+QAzck8b5NxWimm2JlZ
KOkzncF2ckAe9DrVUETxPkVZKuM1lD8wcKAR5JW2hr7dmS0AdR35QJ0Si2ETxMgK
0iXYD4mKetbnxIh9THl7FyGnUw5wR1D3Tcaa6SlbR7kBHjuDa+yuu1uAbwJ+N1cZ
v/ffWas6pz743WapJlpsy0HguD5Z3DT0F9xHMQC2c5K9m5wiH/kCAwEAAaNQME4w
HQYDVR0OBBYEFDEL0+fvza+RmXS8+Gv9xQeVJ2+lMB8GA1UdIwQYMBaAFDEL0+fv
za+RmXS8+Gv9xQeVJ2+lMAwGA1UdEwQFMAMBAf8wDQYJKoZIhvcNAQELBQADggEB
ACuKSIb4gHMrD7JTP0MTuIcTVWb3bFtB8nfveQnZuHK4SOjt9cfcJ4YSMfnHZz6H
HaRDC68ksHkXPdA6jmeLokop8RYASOfUROFaUhtf+rUAhf2sS1OWAXI76f4BXHO7
KdHl9fVH0z4Yd+j/Pbq4ODIm0yGPhp5wcEUR3LC0LTnpVC8DWfdZc4TWcSWpkxpE
VtpeDxtV9cSv47mEWBoqn48QJ8doQL/b5IEureDj6MLq/noNbGIZyfkz/z4VgjP7
nDymiRvn4CaevprtiEGGHbiGxPlyLY6tXkDspGXB7gFh5B3GIaKCxactx0pFbYgj
/ZbbhE71RVMVHo8J0PGQ/OQ=
-----END CERTIFICATE-----
