Certificate:
    Data:
        Version: 3 (0x2)
        Serial Number:
            d4:6c:78:67:28:76:79:30
    Signature Algorithm: sha256WithRSAEncryption
        Issuer: C=US, ST=California, L=Santa Clara, O=pkg5, CN=ta1/emailAddress=ta1
        Validity
            Not Before: Nov 11 12:38:29 2017 GMT
            Not After : Aug  7 12:38:29 2020 GMT
        Subject: C=US, ST=California, L=Santa Clara, O=pkg5, CN=ta1/emailAddress=ta1
        Subject Public Key Info:
            Public Key Algorithm: rsaEncryption
                Public-Key: (2048 bit)
                Modulus:
                    00:c9:17:3f:e7:67:16:70:38:42:18:46:c0:ec:ac:
                    4e:76:af:1f:1c:3a:b7:89:78:f2:3c:4b:d9:0a:72:
                    a1:13:e4:fb:72:1f:c9:e5:b8:6d:0f:ff:4b:fd:9d:
                    8d:61:e1:96:fb:c7:0b:0e:ca:33:0c:f6:b3:a7:1b:
                    59:cd:c2:a0:8a:43:85:74:f9:8f:45:9a:3c:76:15:
                    78:91:dc:30:21:94:23:70:ef:51:bc:46:62:d9:23:
                    92:24:b2:ea:db:4a:9b:5f:02:f2:06:0b:b3:1b:de:
                    b2:cf:ec:45:93:12:df:6a:40:59:fb:76:f6:24:e5:
                    0f:a4:6c:c8:de:c4:b4:11:53:40:40:35:4b:b2:a8:
                    30:9b:e7:a4:42:eb:6c:14:5d:a6:49:bc:03:46:8f:
                    07:21:cf:bf:1d:68:f3:0d:8a:40:52:9e:5f:74:2c:
                    ef:3e:b6:9d:c6:32:7b:f2:99:05:e1:c8:39:f2:cd:
                    31:16:4b:8c:32:82:9d:da:9d:68:a0:46:e4:3d:61:
                    96:d9:25:76:53:3d:9d:c0:a6:cd:16:fe:d9:ff:1a:
                    2f:1f:59:0c:a1:5f:f6:e4:95:17:dc:67:04:0d:a9:
                    4e:e3:e6:8c:c4:17:5f:59:60:30:05:32:1e:fc:0b:
                    e3:2b:21:e9:3c:66:e7:65:ca:77:f6:d4:70:60:a2:
                    5b:55
                Exponent: 65537 (0x10001)
        X509v3 extensions:
            X509v3 Subject Key Identifier: 
                B3:45:FC:B9:89:4B:F7:56:73:AE:B2:C3:06:19:A1:7B:78:6E:00:BF
            X509v3 Authority Key Identifier: 
                keyid:B3:45:FC:B9:89:4B:F7:56:73:AE:B2:C3:06:19:A1:7B:78:6E:00:BF

            X509v3 Basic Constraints: 
                CA:TRUE
    Signature Algorithm: sha256WithRSAEncryption
         64:a7:fa:3f:71:25:ca:7d:9a:28:75:a5:fd:be:a7:52:0e:5f:
         4a:66:c4:c9:a5:e4:47:ce:89:94:5d:b0:e9:a0:02:57:be:e7:
         5e:1d:01:c2:dc:39:bb:87:a0:88:d0:6f:12:7e:ed:27:c2:ee:
         7e:a7:28:9d:0c:69:e2:1e:fe:2e:c9:b2:14:f6:85:dd:6b:43:
         b5:ec:46:c5:77:e6:0b:5b:19:93:49:d5:4b:ce:7a:9e:0f:9a:
         da:88:d1:7c:fe:81:35:a1:bc:bc:dc:a1:e3:41:05:24:8e:81:
         21:d1:bd:ee:1a:a4:90:68:c0:48:63:09:89:91:a9:fc:4a:a6:
         4e:6d:5d:c7:e7:df:0b:98:e2:94:05:08:b0:dc:33:a9:80:9c:
         f5:c7:22:c7:80:03:e9:63:29:93:06:14:4b:83:44:35:1c:4e:
         1e:ff:a2:8b:b8:57:8f:a5:a1:48:a6:83:4a:61:fc:92:17:e9:
         73:1d:63:f6:5f:37:dd:38:58:58:83:44:0b:1f:51:12:f5:dc:
         dc:a0:fd:46:34:46:33:76:de:26:27:24:95:3a:42:b6:8a:5c:
         30:42:db:59:53:07:df:ae:77:34:a0:ec:a6:c2:53:46:10:af:
         22:32:93:7a:2e:77:4b:e7:33:6c:fd:e0:da:04:45:4d:56:3e:
         55:9a:7d:da
-----BEGIN CERTIFICATE-----
MIIDpTCCAo2gAwIBAgIJANRseGcodnkwMA0GCSqGSIb3DQEBCwUAMGkxCzAJBgNV
BAYTAlVTMRMwEQYDVQQIDApDYWxpZm9ybmlhMRQwEgYDVQQHDAtTYW50YSBDbGFy
YTENMAsGA1UECgwEcGtnNTEMMAoGA1UEAwwDdGExMRIwEAYJKoZIhvcNAQkBFgN0
YTEwHhcNMTcxMTExMTIzODI5WhcNMjAwODA3MTIzODI5WjBpMQswCQYDVQQGEwJV
UzETMBEGA1UECAwKQ2FsaWZvcm5pYTEUMBIGA1UEBwwLU2FudGEgQ2xhcmExDTAL
BgNVBAoMBHBrZzUxDDAKBgNVBAMMA3RhMTESMBAGCSqGSIb3DQEJARYDdGExMIIB
IjANBgkqhkiG9w0BAQEFAAOCAQ8AMIIBCgKCAQEAyRc/52cWcDhCGEbA7KxOdq8f
HDq3iXjyPEvZCnKhE+T7ch/J5bhtD/9L/Z2NYeGW+8cLDsozDPazpxtZzcKgikOF
dPmPRZo8dhV4kdwwIZQjcO9RvEZi2SOSJLLq20qbXwLyBguzG96yz+xFkxLfakBZ
+3b2JOUPpGzI3sS0EVNAQDVLsqgwm+ekQutsFF2mSbwDRo8HIc+/HWjzDYpAUp5f
dCzvPradxjJ78pkF4cg58s0xFkuMMoKd2p1ooEbkPWGW2SV2Uz2dwKbNFv7Z/xov
H1kMoV/25JUX3GcEDalO4+aMxBdfWWAwBTIe/AvjKyHpPGbnZcp39tRwYKJbVQID
AQABo1AwTjAdBgNVHQ4EFgQUs0X8uYlL91ZzrrLDBhmhe3huAL8wHwYDVR0jBBgw
FoAUs0X8uYlL91ZzrrLDBhmhe3huAL8wDAYDVR0TBAUwAwEB/zANBgkqhkiG9w0B
AQsFAAOCAQEAZKf6P3Elyn2aKHWl/b6nUg5fSmbEyaXkR86JlF2w6aACV77nXh0B
wtw5u4egiNBvEn7tJ8LufqconQxp4h7+LsmyFPaF3WtDtexGxXfmC1sZk0nVS856
ng+a2ojRfP6BNaG8vNyh40EFJI6BIdG97hqkkGjASGMJiZGp/EqmTm1dx+ffC5ji
lAUIsNwzqYCc9ccix4AD6WMpkwYUS4NENRxOHv+ii7hXj6WhSKaDSmH8khfpcx1j
9l833ThYWINECx9REvXc3KD9RjRGM3beJicklTpCtopcMELbWVMH3653NKDspsJT
RhCvIjKTei53S+czbP3g2gRFTVY+VZp92g==
-----END CERTIFICATE-----
