Certificate:
    Data:
        Version: 3 (0x2)
        Serial Number:
            a9:ab:44:1f:04:71:95:26
    Signature Algorithm: sha256WithRSAEncryption
        Issuer: C=US, ST=California, L=Santa Clara, O=pkg5, CN=ta1/emailAddress=ta1
        Validity
            Not Before: Jul  3 14:13:57 2018 GMT
            Not After : Mar 29 14:13:57 2021 GMT
        Subject: C=US, ST=California, L=Santa Clara, O=pkg5, CN=ta1/emailAddress=ta1
        Subject Public Key Info:
            Public Key Algorithm: rsaEncryption
                Public-Key: (2048 bit)
                Modulus:
                    00:cd:1e:12:6d:be:20:a7:61:61:52:69:ed:5c:c3:
                    47:ae:92:b3:42:90:56:b8:5e:34:ab:7f:dd:95:4d:
                    1a:c5:fb:37:ce:ce:97:26:7e:0c:29:d4:af:8e:f8:
                    0f:1c:45:a9:30:81:bc:2b:f8:dd:64:8b:5e:8d:16:
                    a2:31:3b:05:6c:30:2b:f3:35:72:d7:fa:29:33:0f:
                    2c:57:bf:2b:d4:08:3a:34:86:b4:0d:e8:a6:65:29:
                    3a:ac:ed:1f:75:f0:f8:f8:f6:0c:b4:ca:89:a8:4f:
                    09:0e:6f:7a:da:9f:e6:fc:13:37:c4:6f:72:c6:7c:
                    bd:51:30:d8:72:07:7e:c3:2b:58:16:b3:3f:c3:9e:
                    f5:0a:b3:43:7c:92:af:dc:23:d5:8e:3e:f9:41:ff:
                    db:15:50:cc:7d:b7:cb:e0:1b:a7:6b:0a:a9:0f:6b:
                    bc:eb:9c:3d:81:83:f4:cb:ca:62:1e:b4:f7:e0:3b:
                    ec:f4:b1:eb:f5:12:60:2d:f0:65:bf:93:12:1f:0e:
                    91:e3:a5:31:21:27:0a:df:08:cc:ea:82:59:fa:ab:
                    fa:d3:9b:ee:93:62:d8:46:4b:b8:56:b5:ae:c6:84:
                    06:a8:1f:40:a0:27:f2:84:36:78:8a:1b:d3:45:bc:
                    bb:11:05:18:87:c6:b4:72:5d:c1:3c:03:11:23:c5:
                    49:87
                Exponent: 65537 (0x10001)
        X509v3 extensions:
            X509v3 Subject Key Identifier: 
                E7:1B:97:67:2D:1C:3A:6E:65:D5:00:D1:CE:9C:17:A5:B4:04:37:3D
            X509v3 Authority Key Identifier: 
                keyid:E7:1B:97:67:2D:1C:3A:6E:65:D5:00:D1:CE:9C:17:A5:B4:04:37:3D

            X509v3 Basic Constraints: 
                CA:TRUE
    Signature Algorithm: sha256WithRSAEncryption
         3e:cf:0c:44:49:7c:b0:b9:2a:fd:96:f6:8b:c0:01:9d:3a:6d:
         0a:74:f4:d9:85:96:f0:2d:ec:21:f4:b3:bb:3e:0d:83:f0:0b:
         19:0b:1c:86:e1:ed:94:a3:08:7a:ad:c8:54:50:cc:4f:28:90:
         f5:8a:21:4b:3a:45:12:0c:f4:cb:55:8d:3e:aa:47:4b:04:9a:
         02:41:7a:70:c6:88:cb:a1:19:d2:6c:09:69:69:5d:a1:46:04:
         d9:44:81:43:d4:7c:84:46:ef:e4:36:29:6e:cf:8d:4d:d1:5d:
         ad:2f:38:18:c8:d0:e0:0d:a0:fd:e1:0a:44:a9:00:9b:63:ba:
         27:ed:36:60:65:34:31:4f:2b:fe:d8:0f:33:61:a2:4c:06:81:
         27:c4:4b:e7:61:b0:c5:0d:26:9c:80:5e:b9:90:83:03:05:c8:
         1f:24:0b:8a:a7:c1:54:83:b5:63:83:4e:98:f3:e5:9f:bd:16:
         e0:19:45:a0:bb:7a:40:26:eb:b2:47:65:39:90:60:a2:25:7d:
         6b:16:b7:ac:bf:c6:67:b4:17:89:ee:35:26:7c:65:13:05:4b:
         2e:78:21:9e:90:85:c4:65:bb:a0:a4:c3:5c:b5:42:21:c1:d4:
         ad:3d:65:e0:8a:8d:0e:79:3f:cb:9f:ee:21:f3:26:65:a1:0d:
         c3:c2:86:01
-----BEGIN CERTIFICATE-----
MIIDpTCCAo2gAwIBAgIJAKmrRB8EcZUmMA0GCSqGSIb3DQEBCwUAMGkxCzAJBgNV
BAYTAlVTMRMwEQYDVQQIDApDYWxpZm9ybmlhMRQwEgYDVQQHDAtTYW50YSBDbGFy
YTENMAsGA1UECgwEcGtnNTEMMAoGA1UEAwwDdGExMRIwEAYJKoZIhvcNAQkBFgN0
YTEwHhcNMTgwNzAzMTQxMzU3WhcNMjEwMzI5MTQxMzU3WjBpMQswCQYDVQQGEwJV
UzETMBEGA1UECAwKQ2FsaWZvcm5pYTEUMBIGA1UEBwwLU2FudGEgQ2xhcmExDTAL
BgNVBAoMBHBrZzUxDDAKBgNVBAMMA3RhMTESMBAGCSqGSIb3DQEJARYDdGExMIIB
IjANBgkqhkiG9w0BAQEFAAOCAQ8AMIIBCgKCAQEAzR4Sbb4gp2FhUmntXMNHrpKz
QpBWuF40q3/dlU0axfs3zs6XJn4MKdSvjvgPHEWpMIG8K/jdZItejRaiMTsFbDAr
8zVy1/opMw8sV78r1Ag6NIa0DeimZSk6rO0fdfD4+PYMtMqJqE8JDm962p/m/BM3
xG9yxny9UTDYcgd+wytYFrM/w571CrNDfJKv3CPVjj75Qf/bFVDMfbfL4Bunawqp
D2u865w9gYP0y8piHrT34Dvs9LHr9RJgLfBlv5MSHw6R46UxIScK3wjM6oJZ+qv6
05vuk2LYRku4VrWuxoQGqB9AoCfyhDZ4ihvTRby7EQUYh8a0cl3BPAMRI8VJhwID
AQABo1AwTjAdBgNVHQ4EFgQU5xuXZy0cOm5l1QDRzpwXpbQENz0wHwYDVR0jBBgw
FoAU5xuXZy0cOm5l1QDRzpwXpbQENz0wDAYDVR0TBAUwAwEB/zANBgkqhkiG9w0B
AQsFAAOCAQEAPs8MREl8sLkq/Zb2i8ABnTptCnT02YWW8C3sIfSzuz4Ng/ALGQsc
huHtlKMIeq3IVFDMTyiQ9YohSzpFEgz0y1WNPqpHSwSaAkF6cMaIy6EZ0mwJaWld
oUYE2USBQ9R8hEbv5DYpbs+NTdFdrS84GMjQ4A2g/eEKRKkAm2O6J+02YGU0MU8r
/tgPM2GiTAaBJ8RL52GwxQ0mnIBeuZCDAwXIHyQLiqfBVIO1Y4NOmPPln70W4BlF
oLt6QCbrskdlOZBgoiV9axa3rL/GZ7QXie41JnxlEwVLLnghnpCFxGW7oKTDXLVC
IcHUrT1l4IqNDnk/y5/uIfMmZaENw8KGAQ==
-----END CERTIFICATE-----
