Certificate:
    Data:
        Version: 3 (0x2)
        Serial Number: 2 (0x2)
    Signature Algorithm: sha256WithRSAEncryption
        Issuer: C=US, ST=California, L=Santa Clara, O=pkg5, CN=ch1_ta1/emailAddress=ch1_ta1
        Validity
            Not Before: Nov 11 12:38:29 2017 GMT
            Not After : Aug  7 12:38:29 2020 GMT
        Subject: C=US, ST=California, L=Santa Clara, O=pkg5, CN=ch2_ta1/emailAddress=ch2_ta1
        Subject Public Key Info:
            Public Key Algorithm: rsaEncryption
                Public-Key: (2048 bit)
                Modulus:
                    00:a0:0c:d1:fe:ac:4f:ae:0c:ca:79:35:a0:bc:4f:
                    d6:00:5c:cd:5d:66:0c:ce:20:27:4e:57:6a:c9:e3:
                    50:f1:46:ad:f3:db:4c:cc:b7:8c:c6:10:20:77:b9:
                    28:bc:ad:63:fd:f9:50:3c:7a:0c:3f:85:4b:7b:ad:
                    9d:4c:6e:e4:91:83:b8:94:be:ed:c3:75:b2:88:27:
                    b0:cc:a4:87:86:ef:0d:80:47:4d:69:d5:77:95:0f:
                    4d:9b:a7:73:cc:ec:5a:57:1e:b9:0e:6e:f4:c3:2e:
                    d9:4e:65:a2:16:35:05:e3:59:7c:7e:60:65:5d:1a:
                    a9:f3:94:22:3d:08:85:86:09:7f:33:10:2f:e6:14:
                    7b:60:4a:77:01:c4:20:35:4b:1d:0e:fd:fd:fc:48:
                    10:f4:12:85:5d:ae:40:66:3c:77:3c:b2:19:8d:91:
                    2c:35:9f:43:e5:69:8c:7b:95:01:69:9f:9d:92:2c:
                    3b:23:30:54:b9:2f:ae:97:19:4a:c0:89:ed:4f:cc:
                    01:f4:c8:61:f7:06:66:9d:c1:0d:b0:13:ba:f5:11:
                    5a:a1:f1:93:b5:e7:6b:44:e9:db:fe:3a:60:26:5c:
                    ec:d7:89:51:f6:5b:ad:3b:bf:36:5b:54:11:e4:58:
                    5c:6e:0f:b4:ea:a1:f7:fd:eb:20:bb:15:1f:17:c2:
                    c0:3b
                Exponent: 65537 (0x10001)
        X509v3 extensions:
            X509v3 Subject Key Identifier: 
                29:B7:82:29:40:89:7B:41:79:17:E0:C3:35:EA:C1:EF:39:EE:CC:CE
            X509v3 Authority Key Identifier: 
                keyid:AA:C2:70:4D:7A:6F:9B:44:44:80:65:79:3D:59:9B:F5:C8:49:BE:3F
                DirName:/C=US/ST=California/L=Santa Clara/O=pkg5/CN=ta1/emailAddress=ta1
                serial:01

            X509v3 Basic Constraints: critical
                CA:TRUE, pathlen:3
            X509v3 Key Usage: critical
                Certificate Sign, CRL Sign
    Signature Algorithm: sha256WithRSAEncryption
         33:e3:21:26:af:69:8a:e6:07:ca:ba:17:66:5b:a1:96:e9:30:
         1a:39:a0:fc:c8:34:c5:f0:46:8d:d7:28:5b:b1:e8:d2:03:d8:
         aa:e5:05:96:ea:84:ee:32:9c:59:b0:17:66:a8:75:3d:0e:60:
         55:c8:f4:0f:f6:f7:1d:af:13:11:73:93:cc:85:ba:ea:6b:db:
         0c:b5:e7:e2:b7:84:c7:3b:cb:12:69:9f:22:dd:25:32:52:c8:
         58:3f:69:65:4d:3a:a8:f7:b9:4d:04:a3:da:05:f5:e7:c3:9a:
         ad:85:d2:ce:3b:50:b5:19:2d:e6:02:a1:44:d8:79:57:b9:08:
         d7:f6:14:69:7c:fc:51:69:89:a2:98:e5:da:30:85:74:1c:99:
         39:73:b8:0a:71:f6:93:dc:7d:32:b5:77:b0:90:a9:25:a1:2a:
         73:36:de:15:1b:1e:1c:46:a9:06:e9:64:02:05:10:fe:21:83:
         ea:56:1b:38:a8:7e:aa:1d:c8:3a:9d:b2:d2:c8:72:cb:cc:10:
         6e:1d:30:c7:1d:a8:a1:ba:89:41:d2:a0:67:29:33:94:a8:b5:
         62:5c:f2:0b:88:10:35:cc:f0:ed:97:a3:e9:12:af:16:e8:e3:
         cc:91:7d:f0:99:35:69:2d:ec:26:43:11:14:98:3c:dd:da:25:
         8e:d5:61:d2
-----BEGIN CERTIFICATE-----
MIIEOjCCAyKgAwIBAgIBAjANBgkqhkiG9w0BAQsFADBxMQswCQYDVQQGEwJVUzET
MBEGA1UECAwKQ2FsaWZvcm5pYTEUMBIGA1UEBwwLU2FudGEgQ2xhcmExDTALBgNV
BAoMBHBrZzUxEDAOBgNVBAMMB2NoMV90YTExFjAUBgkqhkiG9w0BCQEWB2NoMV90
YTEwHhcNMTcxMTExMTIzODI5WhcNMjAwODA3MTIzODI5WjBxMQswCQYDVQQGEwJV
UzETMBEGA1UECAwKQ2FsaWZvcm5pYTEUMBIGA1UEBwwLU2FudGEgQ2xhcmExDTAL
BgNVBAoMBHBrZzUxEDAOBgNVBAMMB2NoMl90YTExFjAUBgkqhkiG9w0BCQEWB2No
Ml90YTEwggEiMA0GCSqGSIb3DQEBAQUAA4IBDwAwggEKAoIBAQCgDNH+rE+uDMp5
NaC8T9YAXM1dZgzOICdOV2rJ41DxRq3z20zMt4zGECB3uSi8rWP9+VA8egw/hUt7
rZ1MbuSRg7iUvu3DdbKIJ7DMpIeG7w2AR01p1XeVD02bp3PM7FpXHrkObvTDLtlO
ZaIWNQXjWXx+YGVdGqnzlCI9CIWGCX8zEC/mFHtgSncBxCA1Sx0O/f38SBD0EoVd
rkBmPHc8shmNkSw1n0PlaYx7lQFpn52SLDsjMFS5L66XGUrAie1PzAH0yGH3Bmad
wQ2wE7r1EVqh8ZO152tE6dv+OmAmXOzXiVH2W607vzZbVBHkWFxuD7Tqoff96yC7
FR8XwsA7AgMBAAGjgdwwgdkwHQYDVR0OBBYEFCm3gilAiXtBeRfgwzXqwe857szO
MIGTBgNVHSMEgYswgYiAFKrCcE16b5tERIBleT1Zm/XISb4/oW2kazBpMQswCQYD
VQQGEwJVUzETMBEGA1UECAwKQ2FsaWZvcm5pYTEUMBIGA1UEBwwLU2FudGEgQ2xh
cmExDTALBgNVBAoMBHBrZzUxDDAKBgNVBAMMA3RhMTESMBAGCSqGSIb3DQEJARYD
dGExggEBMBIGA1UdEwEB/wQIMAYBAf8CAQMwDgYDVR0PAQH/BAQDAgEGMA0GCSqG
SIb3DQEBCwUAA4IBAQAz4yEmr2mK5gfKuhdmW6GW6TAaOaD8yDTF8EaN1yhbsejS
A9iq5QWW6oTuMpxZsBdmqHU9DmBVyPQP9vcdrxMRc5PMhbrqa9sMtefit4THO8sS
aZ8i3SUyUshYP2llTTqo97lNBKPaBfXnw5qthdLOO1C1GS3mAqFE2HlXuQjX9hRp
fPxRaYmimOXaMIV0HJk5c7gKcfaT3H0ytXewkKkloSpzNt4VGx4cRqkG6WQCBRD+
IYPqVhs4qH6qHcg6nbLSyHLLzBBuHTDHHaihuolB0qBnKTOUqLViXPILiBA1zPDt
l6PpEq8W6OPMkX3wmTVpLewmQxEUmDzd2iWO1WHS
-----END CERTIFICATE-----
