Certificate:
    Data:
        Version: 3 (0x2)
        Serial Number: 2 (0x2)
    Signature Algorithm: sha256WithRSAEncryption
        Issuer: C=US, ST=California, L=Santa Clara, O=pkg5, CN=ch1_ta1/emailAddress=ch1_ta1
        Validity
            Not Before: Nov 24 01:22:40 2021 GMT
            Not After : Aug 20 01:22:40 2024 GMT
        Subject: C=US, ST=California, L=Santa Clara, O=pkg5, CN=ch2_ta1/emailAddress=ch2_ta1
        Subject Public Key Info:
            Public Key Algorithm: rsaEncryption
                Public-Key: (2048 bit)
                Modulus:
                    00:cb:b9:ad:60:3d:6f:61:42:b6:02:e9:f6:8d:8f:
                    e5:c6:d3:bc:de:b1:0e:0a:0d:d0:18:49:3e:ba:a7:
                    b0:cb:09:dc:bb:f6:70:6e:01:aa:a0:92:64:d1:87:
                    ab:7b:5d:0d:3c:63:c0:92:d4:32:a3:13:7d:8c:b0:
                    3a:b6:1d:fe:65:74:16:e3:36:10:d6:b3:30:fe:e7:
                    64:55:eb:8f:2b:09:3f:ae:21:72:0a:7a:90:03:54:
                    c2:68:fe:93:3d:37:25:ed:1d:72:7c:2f:b8:f3:7c:
                    2f:f9:82:c0:e1:1c:0e:08:99:10:b5:12:31:22:aa:
                    9f:a1:a1:a6:ff:fa:50:2f:1b:b8:f6:24:1e:42:54:
                    ce:4a:92:5c:fb:2e:c6:fa:77:d2:a6:64:40:ca:87:
                    a9:5f:29:08:ec:23:6b:c1:d0:5c:33:2c:5a:a2:02:
                    0a:fe:c1:3d:3c:6f:f4:5a:c7:9b:f3:38:df:84:6e:
                    1c:4e:97:dd:b5:8b:5d:a8:85:c5:49:b8:36:30:d7:
                    2c:69:03:ff:8e:f4:61:47:2c:ed:73:6c:83:76:d6:
                    1c:e1:8c:fa:56:8c:8d:74:b3:ae:a0:c1:01:04:e4:
                    7e:c1:ac:0d:73:13:ac:80:15:cf:71:08:f9:1a:74:
                    9f:f5:68:70:45:17:4f:55:d7:10:87:be:54:0c:a3:
                    2d:93
                Exponent: 65537 (0x10001)
        X509v3 extensions:
            X509v3 Subject Key Identifier: 
                7F:E1:36:07:83:82:E0:D2:5E:38:3E:D3:EB:C3:76:3B:00:25:F9:37
            X509v3 Authority Key Identifier: 
                keyid:50:A9:D2:7B:7D:24:EF:B0:A0:D7:C1:76:9E:14:37:75:AE:52:11:1D
                DirName:/C=US/ST=California/L=Santa Clara/O=pkg5/CN=ta1/emailAddress=ta1
                serial:01

            X509v3 Basic Constraints: critical
                CA:TRUE, pathlen:3
            X509v3 Key Usage: critical
                Certificate Sign, CRL Sign
    Signature Algorithm: sha256WithRSAEncryption
         0c:c3:25:1a:29:4c:5f:68:5a:99:4f:91:b9:ce:c4:33:82:80:
         dc:6d:3a:f1:8d:37:7e:f8:fc:65:a4:f4:c9:7f:5e:82:83:d5:
         59:25:54:38:bd:55:1c:4b:73:42:f8:a9:f0:8c:e9:37:b0:14:
         80:0a:eb:6a:31:44:6c:dd:26:73:06:86:05:47:37:00:76:c5:
         c6:0d:92:75:92:0f:ed:1b:a3:7a:d2:34:f8:21:54:82:f3:3f:
         85:fd:16:d7:48:6b:00:ea:92:cf:28:a8:60:75:a3:ed:6f:cb:
         d3:bf:5b:9a:3b:d8:e1:5f:57:0e:c1:b2:3a:db:ab:ca:4b:fc:
         95:80:22:30:0a:38:55:1c:e3:b4:d4:5e:50:56:75:97:0a:96:
         58:e8:5e:17:e9:9c:17:da:ac:81:1f:24:7f:18:f1:fa:df:bc:
         67:ad:2b:43:ee:b4:81:a1:15:19:41:5d:59:db:1c:bf:3f:96:
         dd:f9:45:ca:04:a0:57:75:7d:82:70:06:cb:66:ff:b9:6b:23:
         50:dc:82:f9:b2:fd:48:52:7d:e9:21:27:12:f0:7e:92:e6:85:
         26:79:30:8a:cd:5c:73:f7:94:1d:58:b8:f9:ad:d8:ba:b1:27:
         84:32:a8:49:cc:db:b6:13:4a:e1:89:36:32:d4:da:b8:99:99:
         64:51:cb:fb
-----BEGIN CERTIFICATE-----
MIIEOjCCAyKgAwIBAgIBAjANBgkqhkiG9w0BAQsFADBxMQswCQYDVQQGEwJVUzET
MBEGA1UECAwKQ2FsaWZvcm5pYTEUMBIGA1UEBwwLU2FudGEgQ2xhcmExDTALBgNV
BAoMBHBrZzUxEDAOBgNVBAMMB2NoMV90YTExFjAUBgkqhkiG9w0BCQEWB2NoMV90
YTEwHhcNMjExMTI0MDEyMjQwWhcNMjQwODIwMDEyMjQwWjBxMQswCQYDVQQGEwJV
UzETMBEGA1UECAwKQ2FsaWZvcm5pYTEUMBIGA1UEBwwLU2FudGEgQ2xhcmExDTAL
BgNVBAoMBHBrZzUxEDAOBgNVBAMMB2NoMl90YTExFjAUBgkqhkiG9w0BCQEWB2No
Ml90YTEwggEiMA0GCSqGSIb3DQEBAQUAA4IBDwAwggEKAoIBAQDLua1gPW9hQrYC
6faNj+XG07zesQ4KDdAYST66p7DLCdy79nBuAaqgkmTRh6t7XQ08Y8CS1DKjE32M
sDq2Hf5ldBbjNhDWszD+52RV648rCT+uIXIKepADVMJo/pM9NyXtHXJ8L7jzfC/5
gsDhHA4ImRC1EjEiqp+hoab/+lAvG7j2JB5CVM5Kklz7Lsb6d9KmZEDKh6lfKQjs
I2vB0FwzLFqiAgr+wT08b/Rax5vzON+EbhxOl921i12ohcVJuDYw1yxpA/+O9GFH
LO1zbIN21hzhjPpWjI10s66gwQEE5H7BrA1zE6yAFc9xCPkadJ/1aHBFF09V1xCH
vlQMoy2TAgMBAAGjgdwwgdkwHQYDVR0OBBYEFH/hNgeDguDSXjg+0+vDdjsAJfk3
MIGTBgNVHSMEgYswgYiAFFCp0nt9JO+woNfBdp4UN3WuUhEdoW2kazBpMQswCQYD
VQQGEwJVUzETMBEGA1UECAwKQ2FsaWZvcm5pYTEUMBIGA1UEBwwLU2FudGEgQ2xh
cmExDTALBgNVBAoMBHBrZzUxDDAKBgNVBAMMA3RhMTESMBAGCSqGSIb3DQEJARYD
dGExggEBMBIGA1UdEwEB/wQIMAYBAf8CAQMwDgYDVR0PAQH/BAQDAgEGMA0GCSqG
SIb3DQEBCwUAA4IBAQAMwyUaKUxfaFqZT5G5zsQzgoDcbTrxjTd++PxlpPTJf16C
g9VZJVQ4vVUcS3NC+KnwjOk3sBSACutqMURs3SZzBoYFRzcAdsXGDZJ1kg/tG6N6
0jT4IVSC8z+F/RbXSGsA6pLPKKhgdaPtb8vTv1uaO9jhX1cOwbI626vKS/yVgCIw
CjhVHOO01F5QVnWXCpZY6F4X6ZwX2qyBHyR/GPH637xnrStD7rSBoRUZQV1Z2xy/
P5bd+UXKBKBXdX2CcAbLZv+5ayNQ3IL5sv1IUn3pIScS8H6S5oUmeTCKzVxz95Qd
WLj5rdi6sSeEMqhJzNu2E0rhiTYy1Nq4mZlkUcv7
-----END CERTIFICATE-----
