Certificate:
    Data:
        Version: 3 (0x2)
        Serial Number: 3 (0x3)
    Signature Algorithm: sha256WithRSAEncryption
        Issuer: C=US, ST=California, L=Santa Clara, O=pkg5, CN=ch2_ta1/emailAddress=ch2_ta1
        Validity
            Not Before: Nov 11 12:38:29 2017 GMT
            Not After : Aug  7 12:38:29 2020 GMT
        Subject: C=US, ST=California, L=Santa Clara, O=pkg5, CN=ch3_ta1/emailAddress=ch3_ta1
        Subject Public Key Info:
            Public Key Algorithm: rsaEncryption
                Public-Key: (2048 bit)
                Modulus:
                    00:c0:f9:e7:8a:b3:3e:d0:21:af:11:f5:6d:26:80:
                    29:0a:41:54:62:f2:2c:8b:72:47:2f:2c:e7:1e:31:
                    ae:36:1b:0b:88:f0:72:ba:b1:67:42:be:1f:b1:f0:
                    8d:ad:9b:9f:ad:00:b5:e8:bf:5a:bf:ae:56:69:50:
                    b8:11:2c:05:e2:a0:d4:01:68:4c:95:4b:6f:92:34:
                    c8:e6:79:8e:c8:20:ae:2e:c9:e3:e8:50:5f:2b:9a:
                    cc:01:50:3d:44:5e:be:28:26:d8:ca:30:4d:5a:84:
                    bd:c2:84:9e:82:83:02:90:01:8d:c6:a4:0a:85:be:
                    01:e0:fb:7e:ea:0b:27:65:b1:7f:ec:3f:38:1c:cc:
                    ed:bd:07:6a:cd:6c:1e:7c:0c:3b:7d:0e:fb:c6:87:
                    03:55:f5:7f:94:db:ac:7f:18:65:d1:3b:ac:82:55:
                    f5:44:68:3f:30:52:13:31:26:3d:a7:19:ab:d4:cf:
                    7a:e3:a5:94:bb:cf:3b:f6:3e:cb:9d:72:24:0f:28:
                    b5:dc:2a:c9:51:ae:e4:dc:c0:7f:f8:3a:38:56:2c:
                    44:08:00:73:66:8f:4f:26:d9:83:ab:1b:9e:78:18:
                    2d:84:03:5d:7c:c3:23:88:04:2f:1a:6e:65:5f:8b:
                    36:0c:95:26:a9:a5:36:01:c9:1d:03:2d:72:a8:f9:
                    3e:9f
                Exponent: 65537 (0x10001)
        X509v3 extensions:
            X509v3 Subject Key Identifier: 
                8D:DD:94:B0:1D:B5:CB:D0:E3:C4:66:4F:FD:8A:15:F1:5F:75:2E:62
            X509v3 Authority Key Identifier: 
                keyid:29:B7:82:29:40:89:7B:41:79:17:E0:C3:35:EA:C1:EF:39:EE:CC:CE
                DirName:/C=US/ST=California/L=Santa Clara/O=pkg5/CN=ch1_ta1/emailAddress=ch1_ta1
                serial:02

            X509v3 Basic Constraints: critical
                CA:TRUE, pathlen:2
            X509v3 Key Usage: critical
                Certificate Sign, CRL Sign
    Signature Algorithm: sha256WithRSAEncryption
         26:25:3f:a3:0f:03:38:f1:99:6c:69:84:ec:7b:51:a6:52:0c:
         cd:97:1a:4f:e1:11:7a:cf:6a:ee:dc:c3:65:86:57:7b:5d:03:
         f5:e2:49:ff:cf:9c:1c:5f:c4:a2:00:cb:5f:30:15:fa:ad:4f:
         22:da:3d:b7:1d:46:2a:0c:31:49:31:ba:a1:c4:a1:dc:a3:d3:
         ab:e7:05:22:3b:f6:85:f4:6c:e7:0f:af:43:af:fd:2d:35:c8:
         80:43:24:e8:fb:7e:d6:11:d4:76:75:49:3a:9a:c9:f9:9f:22:
         23:23:6c:51:a0:a2:ad:d9:40:66:3d:98:ac:1f:09:f0:cf:1f:
         0b:75:25:ad:7b:77:07:d5:76:4f:41:e1:b4:e1:08:e1:72:18:
         10:10:31:d6:0e:c0:5b:70:5e:a1:27:aa:7c:19:ca:c4:93:d5:
         8e:c0:a6:5c:c2:f7:09:9d:72:11:08:ef:1f:2e:39:2a:51:6c:
         34:1b:f1:1b:77:dc:e9:3c:b6:e8:ae:8f:33:44:80:90:a4:35:
         c4:b4:2b:1a:df:68:fa:ca:64:c8:73:42:0a:e5:72:19:11:b8:
         67:af:66:a3:96:be:14:82:23:a5:f0:ad:6e:bf:f4:70:ae:49:
         c6:aa:af:45:a0:26:01:b6:9e:48:24:c3:e6:55:52:0f:e2:cd:
         a0:07:77:b5
-----BEGIN CERTIFICATE-----
MIIEQjCCAyqgAwIBAgIBAzANBgkqhkiG9w0BAQsFADBxMQswCQYDVQQGEwJVUzET
MBEGA1UECAwKQ2FsaWZvcm5pYTEUMBIGA1UEBwwLU2FudGEgQ2xhcmExDTALBgNV
BAoMBHBrZzUxEDAOBgNVBAMMB2NoMl90YTExFjAUBgkqhkiG9w0BCQEWB2NoMl90
YTEwHhcNMTcxMTExMTIzODI5WhcNMjAwODA3MTIzODI5WjBxMQswCQYDVQQGEwJV
UzETMBEGA1UECAwKQ2FsaWZvcm5pYTEUMBIGA1UEBwwLU2FudGEgQ2xhcmExDTAL
BgNVBAoMBHBrZzUxEDAOBgNVBAMMB2NoM190YTExFjAUBgkqhkiG9w0BCQEWB2No
M190YTEwggEiMA0GCSqGSIb3DQEBAQUAA4IBDwAwggEKAoIBAQDA+eeKsz7QIa8R
9W0mgCkKQVRi8iyLckcvLOceMa42GwuI8HK6sWdCvh+x8I2tm5+tALXov1q/rlZp
ULgRLAXioNQBaEyVS2+SNMjmeY7IIK4uyePoUF8rmswBUD1EXr4oJtjKME1ahL3C
hJ6CgwKQAY3GpAqFvgHg+37qCydlsX/sPzgczO29B2rNbB58DDt9DvvGhwNV9X+U
26x/GGXRO6yCVfVEaD8wUhMxJj2nGavUz3rjpZS7zzv2PsudciQPKLXcKslRruTc
wH/4OjhWLEQIAHNmj08m2YOrG554GC2EA118wyOIBC8abmVfizYMlSappTYByR0D
LXKo+T6fAgMBAAGjgeQwgeEwHQYDVR0OBBYEFI3dlLAdtcvQ48RmT/2KFfFfdS5i
MIGbBgNVHSMEgZMwgZCAFCm3gilAiXtBeRfgwzXqwe857szOoXWkczBxMQswCQYD
VQQGEwJVUzETMBEGA1UECAwKQ2FsaWZvcm5pYTEUMBIGA1UEBwwLU2FudGEgQ2xh
cmExDTALBgNVBAoMBHBrZzUxEDAOBgNVBAMMB2NoMV90YTExFjAUBgkqhkiG9w0B
CQEWB2NoMV90YTGCAQIwEgYDVR0TAQH/BAgwBgEB/wIBAjAOBgNVHQ8BAf8EBAMC
AQYwDQYJKoZIhvcNAQELBQADggEBACYlP6MPAzjxmWxphOx7UaZSDM2XGk/hEXrP
au7cw2WGV3tdA/XiSf/PnBxfxKIAy18wFfqtTyLaPbcdRioMMUkxuqHEodyj06vn
BSI79oX0bOcPr0Ov/S01yIBDJOj7ftYR1HZ1STqayfmfIiMjbFGgoq3ZQGY9mKwf
CfDPHwt1Ja17dwfVdk9B4bThCOFyGBAQMdYOwFtwXqEnqnwZysST1Y7AplzC9wmd
chEI7x8uOSpRbDQb8Rt33Ok8tuiujzNEgJCkNcS0KxrfaPrKZMhzQgrlchkRuGev
ZqOWvhSCI6XwrW6/9HCuScaqr0WgJgG2nkgkw+ZVUg/izaAHd7U=
-----END CERTIFICATE-----
