Certificate:
    Data:
        Version: 3 (0x2)
        Serial Number: 4 (0x4)
    Signature Algorithm: sha256WithRSAEncryption
        Issuer: C=US, ST=California, L=Santa Clara, O=pkg5, CN=ch3_ta1/emailAddress=ch3_ta1
        Validity
            Not Before: Nov 24 01:22:41 2021 GMT
            Not After : Aug 20 01:22:41 2024 GMT
        Subject: C=US, ST=California, L=Santa Clara, O=pkg5, CN=ch4_ta1/emailAddress=ch4_ta1
        Subject Public Key Info:
            Public Key Algorithm: rsaEncryption
                Public-Key: (2048 bit)
                Modulus:
                    00:c1:ce:e1:ab:14:f3:c3:9a:fa:d3:78:ac:b3:74:
                    65:da:20:92:72:25:49:f5:62:bc:dc:e6:bc:87:c2:
                    b4:42:4a:25:e5:84:e2:53:17:af:f9:e9:89:52:e6:
                    3d:c0:a4:47:e5:f6:39:81:8b:1e:1e:45:42:5a:bf:
                    41:41:e2:cf:fd:62:3c:08:f4:16:64:03:2c:41:bc:
                    e2:ed:2e:ae:c7:c0:25:f6:1b:b5:d0:10:54:0c:03:
                    ae:21:4f:ee:c9:8e:6e:50:bd:87:98:ce:aa:51:71:
                    20:fe:cb:a9:08:87:81:0e:89:b2:99:19:a8:eb:66:
                    02:fb:e9:b7:8a:6b:e6:90:c8:e8:f6:5f:78:67:97:
                    b0:36:3c:8b:72:52:f2:7b:c5:48:ab:65:7c:c6:c1:
                    75:2b:51:2f:47:e4:fe:b1:5a:05:44:6e:ff:d8:e6:
                    1d:11:52:80:ed:c4:f6:ce:22:71:2c:1a:df:b1:7b:
                    56:90:a0:85:3b:e7:70:47:ee:c9:2c:45:ed:96:08:
                    9d:81:60:dd:61:1c:85:1c:c1:99:7c:f0:7a:29:02:
                    5a:aa:95:c6:6c:c4:dd:45:87:17:c8:8f:e5:28:28:
                    75:d8:db:d2:ee:91:97:33:66:55:26:d2:4b:26:f0:
                    e3:2b:4b:14:9f:9e:91:c8:e7:3e:48:d2:7a:00:b5:
                    62:b3
                Exponent: 65537 (0x10001)
        X509v3 extensions:
            X509v3 Subject Key Identifier: 
                E6:E0:E9:49:6F:1C:61:2B:85:D0:19:1E:3C:AA:9F:D8:84:51:75:C7
            X509v3 Authority Key Identifier: 
                keyid:8A:11:85:C1:33:94:13:3C:EE:34:20:43:7A:1C:B5:6F:9E:9C:7F:44
                DirName:/C=US/ST=California/L=Santa Clara/O=pkg5/CN=ch2_ta1/emailAddress=ch2_ta1
                serial:03

            X509v3 Basic Constraints: critical
                CA:TRUE, pathlen:1
            X509v3 Key Usage: critical
                Certificate Sign, CRL Sign
    Signature Algorithm: sha256WithRSAEncryption
         47:e7:1c:c4:34:8c:ba:c7:63:ca:a2:28:9f:e8:3c:10:62:8e:
         8f:a8:5d:cb:f4:5c:1e:01:ff:4d:f6:d5:8a:ba:ef:d0:48:32:
         27:8c:a5:bc:b3:9a:ce:cf:bd:42:47:85:f4:a8:11:13:a3:3a:
         45:c5:8d:5b:9f:42:03:e2:1c:04:76:33:94:c2:a4:f2:74:55:
         8b:e2:ac:c1:cf:5a:37:00:86:8b:1f:c2:c4:a0:58:bc:29:08:
         1b:f7:9a:b8:0a:b0:83:0a:21:64:7b:ba:9d:a7:f1:03:f4:f1:
         40:af:57:56:ea:7f:47:64:dd:83:c0:a6:dd:f9:f9:62:9e:2c:
         ea:c2:8d:63:f2:21:08:0c:1f:93:c6:41:c1:cf:fe:5a:89:c1:
         5a:d7:15:ae:47:c9:c5:2b:06:79:90:8a:04:53:87:65:73:25:
         94:ba:db:d9:d8:1e:bb:13:e1:65:5b:1c:c7:62:87:1b:a3:5b:
         53:5e:cc:35:04:a1:78:bb:7b:da:dc:2d:cf:cc:c7:e8:84:fe:
         9f:8e:95:29:33:2f:82:5d:ca:3f:3c:9b:dd:c8:4f:10:7b:58:
         1e:4b:08:2b:8d:02:0f:60:f9:8c:17:95:40:a3:97:c0:7b:00:
         61:81:5e:02:87:05:ed:9c:98:47:0e:f6:aa:ea:c1:ff:e8:e0:
         3d:b0:eb:0f
-----BEGIN CERTIFICATE-----
MIIEQjCCAyqgAwIBAgIBBDANBgkqhkiG9w0BAQsFADBxMQswCQYDVQQGEwJVUzET
MBEGA1UECAwKQ2FsaWZvcm5pYTEUMBIGA1UEBwwLU2FudGEgQ2xhcmExDTALBgNV
BAoMBHBrZzUxEDAOBgNVBAMMB2NoM190YTExFjAUBgkqhkiG9w0BCQEWB2NoM190
YTEwHhcNMjExMTI0MDEyMjQxWhcNMjQwODIwMDEyMjQxWjBxMQswCQYDVQQGEwJV
UzETMBEGA1UECAwKQ2FsaWZvcm5pYTEUMBIGA1UEBwwLU2FudGEgQ2xhcmExDTAL
BgNVBAoMBHBrZzUxEDAOBgNVBAMMB2NoNF90YTExFjAUBgkqhkiG9w0BCQEWB2No
NF90YTEwggEiMA0GCSqGSIb3DQEBAQUAA4IBDwAwggEKAoIBAQDBzuGrFPPDmvrT
eKyzdGXaIJJyJUn1Yrzc5ryHwrRCSiXlhOJTF6/56YlS5j3ApEfl9jmBix4eRUJa
v0FB4s/9YjwI9BZkAyxBvOLtLq7HwCX2G7XQEFQMA64hT+7Jjm5QvYeYzqpRcSD+
y6kIh4EOibKZGajrZgL76beKa+aQyOj2X3hnl7A2PItyUvJ7xUirZXzGwXUrUS9H
5P6xWgVEbv/Y5h0RUoDtxPbOInEsGt+xe1aQoIU753BH7sksRe2WCJ2BYN1hHIUc
wZl88HopAlqqlcZsxN1FhxfIj+UoKHXY29LukZczZlUm0ksm8OMrSxSfnpHI5z5I
0noAtWKzAgMBAAGjgeQwgeEwHQYDVR0OBBYEFObg6UlvHGErhdAZHjyqn9iEUXXH
MIGbBgNVHSMEgZMwgZCAFIoRhcEzlBM87jQgQ3octW+enH9EoXWkczBxMQswCQYD
VQQGEwJVUzETMBEGA1UECAwKQ2FsaWZvcm5pYTEUMBIGA1UEBwwLU2FudGEgQ2xh
cmExDTALBgNVBAoMBHBrZzUxEDAOBgNVBAMMB2NoMl90YTExFjAUBgkqhkiG9w0B
CQEWB2NoMl90YTGCAQMwEgYDVR0TAQH/BAgwBgEB/wIBATAOBgNVHQ8BAf8EBAMC
AQYwDQYJKoZIhvcNAQELBQADggEBAEfnHMQ0jLrHY8qiKJ/oPBBijo+oXcv0XB4B
/0321Yq679BIMieMpbyzms7PvUJHhfSoEROjOkXFjVufQgPiHAR2M5TCpPJ0VYvi
rMHPWjcAhosfwsSgWLwpCBv3mrgKsIMKIWR7up2n8QP08UCvV1bqf0dk3YPApt35
+WKeLOrCjWPyIQgMH5PGQcHP/lqJwVrXFa5HycUrBnmQigRTh2VzJZS629nYHrsT
4WVbHMdihxujW1NezDUEoXi7e9rcLc/Mx+iE/p+OlSkzL4Jdyj88m93ITxB7WB5L
CCuNAg9g+YwXlUCjl8B7AGGBXgKHBe2cmEcO9qrqwf/o4D2w6w8=
-----END CERTIFICATE-----
