Certificate:
    Data:
        Version: 3 (0x2)
        Serial Number: 4 (0x4)
    Signature Algorithm: sha256WithRSAEncryption
        Issuer: C=US, ST=California, L=Santa Clara, O=pkg5, CN=ch3_ta1/emailAddress=ch3_ta1
        Validity
            Not Before: Jul  3 14:13:58 2018 GMT
            Not After : Mar 29 14:13:58 2021 GMT
        Subject: C=US, ST=California, L=Santa Clara, O=pkg5, CN=ch4_ta1/emailAddress=ch4_ta1
        Subject Public Key Info:
            Public Key Algorithm: rsaEncryption
                Public-Key: (2048 bit)
                Modulus:
                    00:b4:8e:1c:95:04:44:6d:f8:a2:db:f8:99:7c:e0:
                    48:29:13:f4:e9:a6:29:1e:dd:82:18:3e:d8:3b:a8:
                    32:be:25:6d:98:6f:83:56:58:44:ba:38:7f:36:3e:
                    6b:58:1c:15:65:5f:d4:02:56:75:13:a3:af:6e:a9:
                    03:bd:b7:e6:e3:da:9e:6d:aa:a1:66:f0:8a:c7:6a:
                    36:eb:3b:99:19:11:ed:53:31:96:1f:f4:13:6d:1b:
                    ac:ca:9e:77:b8:31:83:18:f0:d3:d9:f8:d6:11:d0:
                    dd:c7:ca:a0:e7:23:18:0a:a4:b4:1d:62:50:e1:28:
                    ec:aa:c0:f8:7b:d9:ea:75:83:b2:03:31:fc:d2:bc:
                    74:99:7a:09:e2:26:f3:e2:3c:ba:78:37:51:cd:96:
                    71:99:1e:b8:2a:da:e9:03:d1:56:a0:0b:a7:19:60:
                    6c:5a:76:c9:52:dd:fc:d4:3f:93:f1:4f:78:0e:70:
                    9b:83:06:9d:39:a8:f6:8c:c3:47:bb:78:3e:c2:fe:
                    4e:1d:21:60:56:46:44:60:d7:52:fd:cd:0d:6b:3c:
                    95:4b:f0:5c:33:58:24:ae:f1:da:f4:6a:d5:98:32:
                    50:43:3a:73:76:15:4d:8f:12:ee:52:b0:b1:f5:21:
                    df:5f:5d:b0:d8:7f:12:d0:c3:b0:cb:ed:20:88:d0:
                    24:2f
                Exponent: 65537 (0x10001)
        X509v3 extensions:
            X509v3 Subject Key Identifier: 
                D1:94:80:21:90:9F:25:9A:54:07:1A:FB:8D:5F:E8:C3:89:17:05:63
            X509v3 Authority Key Identifier: 
                keyid:52:84:D8:B0:3D:19:6A:89:73:57:E3:BC:5B:C1:13:A1:52:0E:91:D1
                DirName:/C=US/ST=California/L=Santa Clara/O=pkg5/CN=ch2_ta1/emailAddress=ch2_ta1
                serial:03

            X509v3 Basic Constraints: critical
                CA:TRUE, pathlen:1
            X509v3 Key Usage: critical
                Certificate Sign, CRL Sign
    Signature Algorithm: sha256WithRSAEncryption
         78:5a:f0:d8:00:98:ae:96:ca:42:52:ee:b2:51:29:d7:42:e3:
         bc:af:89:b5:f1:a9:df:be:99:a2:b4:f2:af:7f:69:7f:aa:27:
         36:4b:21:2c:a1:4a:22:18:cc:c8:9a:24:2d:5c:4e:7a:c1:01:
         4b:25:d9:d3:3d:d7:a3:db:7e:a1:37:eb:02:30:5d:d9:23:27:
         56:eb:16:e4:8a:a1:eb:b5:e3:99:08:ae:6b:35:f8:39:36:06:
         9b:dd:32:4a:1c:0c:26:f0:e1:b6:28:d7:c3:e2:a5:ae:f0:86:
         b7:80:10:7d:d7:41:27:70:c0:c3:99:9f:99:89:f6:95:bc:2d:
         3f:d9:80:42:c7:e6:c2:b8:9d:e9:e8:63:f5:de:00:dc:37:9b:
         f9:7b:ff:c3:33:a5:ec:e1:45:48:03:78:0e:de:c5:04:94:78:
         1c:16:5a:e7:9b:c0:51:48:d5:f3:8c:bf:64:1e:3c:61:07:62:
         c5:86:5f:b1:95:0d:af:1f:3e:4f:0d:91:32:f5:b0:b2:59:20:
         1e:4a:d3:18:46:f4:21:67:de:3e:92:e8:e5:98:b9:d9:37:23:
         90:66:23:d7:6b:40:23:b2:77:25:8d:21:43:07:ec:54:cd:72:
         d4:16:48:02:b3:98:59:61:2c:64:a8:18:54:b6:a8:5f:5f:18:
         fe:35:3a:7d
-----BEGIN CERTIFICATE-----
MIIEQjCCAyqgAwIBAgIBBDANBgkqhkiG9w0BAQsFADBxMQswCQYDVQQGEwJVUzET
MBEGA1UECAwKQ2FsaWZvcm5pYTEUMBIGA1UEBwwLU2FudGEgQ2xhcmExDTALBgNV
BAoMBHBrZzUxEDAOBgNVBAMMB2NoM190YTExFjAUBgkqhkiG9w0BCQEWB2NoM190
YTEwHhcNMTgwNzAzMTQxMzU4WhcNMjEwMzI5MTQxMzU4WjBxMQswCQYDVQQGEwJV
UzETMBEGA1UECAwKQ2FsaWZvcm5pYTEUMBIGA1UEBwwLU2FudGEgQ2xhcmExDTAL
BgNVBAoMBHBrZzUxEDAOBgNVBAMMB2NoNF90YTExFjAUBgkqhkiG9w0BCQEWB2No
NF90YTEwggEiMA0GCSqGSIb3DQEBAQUAA4IBDwAwggEKAoIBAQC0jhyVBERt+KLb
+Jl84EgpE/Tppike3YIYPtg7qDK+JW2Yb4NWWES6OH82PmtYHBVlX9QCVnUTo69u
qQO9t+bj2p5tqqFm8IrHajbrO5kZEe1TMZYf9BNtG6zKnne4MYMY8NPZ+NYR0N3H
yqDnIxgKpLQdYlDhKOyqwPh72ep1g7IDMfzSvHSZegniJvPiPLp4N1HNlnGZHrgq
2ukD0VagC6cZYGxadslS3fzUP5PxT3gOcJuDBp05qPaMw0e7eD7C/k4dIWBWRkRg
11L9zQ1rPJVL8FwzWCSu8dr0atWYMlBDOnN2FU2PEu5SsLH1Id9fXbDYfxLQw7DL
7SCI0CQvAgMBAAGjgeQwgeEwHQYDVR0OBBYEFNGUgCGQnyWaVAca+41f6MOJFwVj
MIGbBgNVHSMEgZMwgZCAFFKE2LA9GWqJc1fjvFvBE6FSDpHRoXWkczBxMQswCQYD
VQQGEwJVUzETMBEGA1UECAwKQ2FsaWZvcm5pYTEUMBIGA1UEBwwLU2FudGEgQ2xh
cmExDTALBgNVBAoMBHBrZzUxEDAOBgNVBAMMB2NoMl90YTExFjAUBgkqhkiG9w0B
CQEWB2NoMl90YTGCAQMwEgYDVR0TAQH/BAgwBgEB/wIBATAOBgNVHQ8BAf8EBAMC
AQYwDQYJKoZIhvcNAQELBQADggEBAHha8NgAmK6WykJS7rJRKddC47yvibXxqd++
maK08q9/aX+qJzZLISyhSiIYzMiaJC1cTnrBAUsl2dM916PbfqE36wIwXdkjJ1br
FuSKoeu145kIrms1+Dk2BpvdMkocDCbw4bYo18Pipa7whreAEH3XQSdwwMOZn5mJ
9pW8LT/ZgELH5sK4nenoY/XeANw3m/l7/8MzpezhRUgDeA7exQSUeBwWWuebwFFI
1fOMv2QePGEHYsWGX7GVDa8fPk8NkTL1sLJZIB5K0xhG9CFn3j6S6OWYudk3I5Bm
I9drQCOydyWNIUMH7FTNctQWSAKzmFlhLGSoGFS2qF9fGP41On0=
-----END CERTIFICATE-----
