Certificate:
    Data:
        Version: 3 (0x2)
        Serial Number: 5 (0x5)
    Signature Algorithm: sha256WithRSAEncryption
        Issuer: C=US, ST=California, L=Santa Clara, O=pkg5, CN=ch4_ta1/emailAddress=ch4_ta1
        Validity
            Not Before: Jul  3 14:13:59 2018 GMT
            Not After : Mar 29 14:13:59 2021 GMT
        Subject: C=US, ST=California, L=Santa Clara, O=pkg5, CN=ch5_ta1/emailAddress=ch5_ta1
        Subject Public Key Info:
            Public Key Algorithm: rsaEncryption
                Public-Key: (2048 bit)
                Modulus:
                    00:e2:b2:bb:27:32:6b:25:c1:35:7d:eb:60:b0:42:
                    17:c0:70:36:69:66:07:8b:01:c1:a8:20:b5:bd:2d:
                    29:37:cc:d6:3d:31:8c:52:69:df:91:4b:71:cc:b4:
                    f5:10:05:99:5a:af:92:e4:e3:58:8c:81:24:ab:a9:
                    39:dd:1b:69:4b:3c:91:b7:65:f9:f2:47:ac:f7:cf:
                    28:02:79:32:3e:b4:b7:e7:7b:de:8e:64:76:4c:47:
                    44:7c:4c:5d:78:68:d6:1d:21:d4:89:d8:79:df:e3:
                    a3:cc:ae:c3:ff:9f:19:a7:1f:4f:b5:a1:70:41:72:
                    24:e1:1c:b5:7a:f6:42:d8:4f:f0:fd:ed:e3:54:a8:
                    e3:eb:9b:13:82:ee:1f:df:96:fa:89:e5:b4:c4:c7:
                    f5:1d:28:c7:b7:7e:ee:31:fc:84:39:41:89:e2:78:
                    96:53:47:23:d2:a6:26:db:f1:36:bd:96:c3:22:4e:
                    aa:38:09:02:99:42:17:2b:ce:cf:79:39:57:91:a6:
                    cd:cd:ed:15:fb:86:db:c0:78:e3:23:f0:ea:08:87:
                    51:9f:09:1e:75:75:e9:06:9c:80:19:d1:b8:55:4a:
                    6c:b0:80:70:fe:9d:30:ca:6e:d5:3c:85:5c:4a:b1:
                    cb:2d:57:01:51:de:81:31:73:50:ae:8d:f6:1d:5f:
                    49:39
                Exponent: 65537 (0x10001)
        X509v3 extensions:
            X509v3 Subject Key Identifier: 
                A3:BA:6B:1D:86:AA:86:B9:C9:4B:CA:EF:FA:AC:76:61:6F:DE:D3:44
            X509v3 Authority Key Identifier: 
                keyid:D1:94:80:21:90:9F:25:9A:54:07:1A:FB:8D:5F:E8:C3:89:17:05:63
                DirName:/C=US/ST=California/L=Santa Clara/O=pkg5/CN=ch3_ta1/emailAddress=ch3_ta1
                serial:04

            X509v3 Basic Constraints: critical
                CA:TRUE, pathlen:0
            X509v3 Key Usage: critical
                Certificate Sign, CRL Sign
    Signature Algorithm: sha256WithRSAEncryption
         89:8a:63:2d:1a:a1:ef:e6:93:af:9a:d0:bd:2e:a1:c9:da:12:
         2a:dc:32:b6:91:c9:5f:0f:1f:79:a3:0b:f6:0b:87:95:9c:56:
         42:72:c2:72:72:23:b0:34:a7:60:f5:c9:d3:ef:86:f1:49:47:
         e1:71:67:97:46:d0:e8:15:1c:46:7c:d7:0c:fe:ce:ba:3d:3e:
         48:a3:64:12:8f:ad:0b:1a:b1:ea:16:01:c5:3a:7e:95:2f:b9:
         dc:0a:82:87:b8:3d:cf:7b:d7:a8:b0:35:2c:7c:43:fb:20:6f:
         3a:b9:e7:f9:e4:50:ea:f6:82:fe:76:27:db:83:02:e8:a1:74:
         7a:07:d2:ca:fa:43:be:97:b2:6e:5f:61:cc:de:50:c0:5a:fd:
         a5:eb:3b:99:8f:76:48:eb:69:9d:7b:e1:ec:98:d5:10:37:cc:
         52:49:be:48:bb:95:b8:7f:65:63:d6:86:cc:b3:02:10:0d:61:
         26:61:da:c2:ca:d6:ad:52:6d:67:11:5c:6e:77:ea:67:aa:6a:
         7f:40:f3:24:29:43:9d:3c:e3:e3:a5:0f:f0:e7:79:28:ca:cd:
         a7:58:b5:53:72:b6:7c:28:02:59:e4:e1:a7:05:53:62:35:27:
         98:f2:52:f1:5f:5e:9c:d0:dd:e9:10:ac:c6:fe:7e:1f:30:de:
         4e:eb:90:4b
-----BEGIN CERTIFICATE-----
MIIEQjCCAyqgAwIBAgIBBTANBgkqhkiG9w0BAQsFADBxMQswCQYDVQQGEwJVUzET
MBEGA1UECAwKQ2FsaWZvcm5pYTEUMBIGA1UEBwwLU2FudGEgQ2xhcmExDTALBgNV
BAoMBHBrZzUxEDAOBgNVBAMMB2NoNF90YTExFjAUBgkqhkiG9w0BCQEWB2NoNF90
YTEwHhcNMTgwNzAzMTQxMzU5WhcNMjEwMzI5MTQxMzU5WjBxMQswCQYDVQQGEwJV
UzETMBEGA1UECAwKQ2FsaWZvcm5pYTEUMBIGA1UEBwwLU2FudGEgQ2xhcmExDTAL
BgNVBAoMBHBrZzUxEDAOBgNVBAMMB2NoNV90YTExFjAUBgkqhkiG9w0BCQEWB2No
NV90YTEwggEiMA0GCSqGSIb3DQEBAQUAA4IBDwAwggEKAoIBAQDisrsnMmslwTV9
62CwQhfAcDZpZgeLAcGoILW9LSk3zNY9MYxSad+RS3HMtPUQBZlar5Lk41iMgSSr
qTndG2lLPJG3ZfnyR6z3zygCeTI+tLfne96OZHZMR0R8TF14aNYdIdSJ2Hnf46PM
rsP/nxmnH0+1oXBBciThHLV69kLYT/D97eNUqOPrmxOC7h/flvqJ5bTEx/UdKMe3
fu4x/IQ5QYnieJZTRyPSpibb8Ta9lsMiTqo4CQKZQhcrzs95OVeRps3N7RX7htvA
eOMj8OoIh1GfCR51dekGnIAZ0bhVSmywgHD+nTDKbtU8hVxKscstVwFR3oExc1Cu
jfYdX0k5AgMBAAGjgeQwgeEwHQYDVR0OBBYEFKO6ax2Gqoa5yUvK7/qsdmFv3tNE
MIGbBgNVHSMEgZMwgZCAFNGUgCGQnyWaVAca+41f6MOJFwVjoXWkczBxMQswCQYD
VQQGEwJVUzETMBEGA1UECAwKQ2FsaWZvcm5pYTEUMBIGA1UEBwwLU2FudGEgQ2xh
cmExDTALBgNVBAoMBHBrZzUxEDAOBgNVBAMMB2NoM190YTExFjAUBgkqhkiG9w0B
CQEWB2NoM190YTGCAQQwEgYDVR0TAQH/BAgwBgEB/wIBADAOBgNVHQ8BAf8EBAMC
AQYwDQYJKoZIhvcNAQELBQADggEBAImKYy0aoe/mk6+a0L0uocnaEircMraRyV8P
H3mjC/YLh5WcVkJywnJyI7A0p2D1ydPvhvFJR+FxZ5dG0OgVHEZ81wz+zro9Pkij
ZBKPrQsaseoWAcU6fpUvudwKgoe4Pc9716iwNSx8Q/sgbzq55/nkUOr2gv52J9uD
AuihdHoH0sr6Q76Xsm5fYczeUMBa/aXrO5mPdkjraZ174eyY1RA3zFJJvki7lbh/
ZWPWhsyzAhANYSZh2sLK1q1SbWcRXG536meqan9A8yQpQ5084+OlD/DneSjKzadY
tVNytnwoAlnk4acFU2I1J5jyUvFfXpzQ3ekQrMb+fh8w3k7rkEs=
-----END CERTIFICATE-----
