Certificate:
    Data:
        Version: 3 (0x2)
        Serial Number: 8 (0x8)
    Signature Algorithm: sha256WithRSAEncryption
        Issuer: C=US, ST=California, L=Santa Clara, O=pkg5, CN=ch4_ta1/emailAddress=ch4_ta1
        Validity
            Not Before: Nov 24 01:22:41 2021 GMT
            Not After : Aug 20 01:22:41 2024 GMT
        Subject: C=US, ST=California, L=Santa Clara, O=pkg5, CN=ch5.1_ta1/emailAddress=ch5.1_ta1
        Subject Public Key Info:
            Public Key Algorithm: rsaEncryption
                Public-Key: (2048 bit)
                Modulus:
                    00:b6:ed:af:bb:b1:3d:7f:37:da:00:5a:3c:bc:6e:
                    0b:2f:88:8d:8f:9d:8e:32:c3:e2:bc:d2:8a:09:08:
                    37:82:b6:76:b1:74:bf:76:7d:0b:a1:6c:47:0f:76:
                    3e:65:df:60:b6:74:61:07:f4:6e:65:e0:7b:e2:90:
                    ec:4c:a3:27:74:45:2b:3b:6a:b1:4c:3c:cc:88:32:
                    e3:0f:74:95:07:2f:f8:13:cd:be:33:ef:67:4d:fa:
                    68:50:a0:22:f3:de:e5:ec:b3:72:99:ae:d7:92:ce:
                    8f:6f:2c:92:8e:00:5b:9f:3b:f5:10:c4:6d:cf:4c:
                    fc:55:65:22:18:aa:a9:e3:5e:bb:f3:56:cf:bd:99:
                    04:63:cb:5d:e7:75:cc:01:9f:4f:4f:56:a3:19:e1:
                    23:5e:16:e5:3e:81:33:ba:57:cb:0e:d3:78:f4:d8:
                    72:cf:a3:08:58:05:22:95:fd:84:76:67:03:38:90:
                    ce:f7:f4:f6:c7:d2:0e:5e:ee:8d:52:c5:a3:28:d9:
                    30:d3:a9:be:de:48:38:b8:a1:07:8a:fd:ae:d5:97:
                    54:9c:46:30:cc:5b:2b:ef:1d:56:eb:61:4c:57:27:
                    07:ad:bc:df:f3:03:07:66:b9:d0:fa:64:b2:7c:9a:
                    80:35:68:c1:c1:96:80:60:c0:17:04:98:d0:9c:ff:
                    b8:0b
                Exponent: 65537 (0x10001)
        X509v3 extensions:
            X509v3 Basic Constraints: critical
                CA:TRUE
            X509v3 Issuer Alternative Name: critical
                <EMPTY>

    Signature Algorithm: sha256WithRSAEncryption
         80:c5:5d:fe:f7:4b:22:1a:29:05:b4:58:f4:b8:8b:e1:09:af:
         af:6c:74:6d:2a:00:8f:59:db:ea:64:a0:5a:ff:b5:5f:be:22:
         72:8b:98:37:db:64:33:22:48:dd:be:3c:75:ce:ec:d7:62:52:
         cd:51:2f:35:10:6b:3d:5a:1f:15:d9:32:9c:b0:31:f5:88:98:
         86:df:53:17:77:f4:bc:9f:ba:2a:3c:18:13:e0:9d:e4:ca:6f:
         c3:c6:2f:a8:b0:51:81:6f:d8:d1:0c:da:a2:19:5a:5e:8c:40:
         1d:a8:7b:58:5a:e6:d7:31:38:88:47:7f:13:85:b1:b7:50:00:
         1f:b1:9a:09:7b:c7:69:2a:7f:f9:fd:e9:6c:75:2e:1c:a9:dc:
         5d:a1:8c:16:3a:ee:88:4e:14:d4:f4:42:27:a3:ed:66:3d:14:
         ed:8d:9b:8b:df:06:b9:d7:71:69:e5:85:e4:1a:57:8f:3b:fe:
         e6:6f:db:8d:4f:c1:b7:ad:3e:be:d6:a2:3e:86:b1:93:7c:99:
         28:44:53:63:20:39:47:1c:91:cb:d5:47:c2:f7:67:66:52:92:
         f8:2a:ed:de:7c:27:a6:27:ee:d9:64:3a:ec:94:b1:10:e8:df:
         fc:55:ff:9a:10:a5:ad:63:c3:f1:00:51:0a:25:79:37:7a:5f:
         33:20:bf:12
-----BEGIN CERTIFICATE-----
MIIDgjCCAmqgAwIBAgIBCDANBgkqhkiG9w0BAQsFADBxMQswCQYDVQQGEwJVUzET
MBEGA1UECAwKQ2FsaWZvcm5pYTEUMBIGA1UEBwwLU2FudGEgQ2xhcmExDTALBgNV
BAoMBHBrZzUxEDAOBgNVBAMMB2NoNF90YTExFjAUBgkqhkiG9w0BCQEWB2NoNF90
YTEwHhcNMjExMTI0MDEyMjQxWhcNMjQwODIwMDEyMjQxWjB1MQswCQYDVQQGEwJV
UzETMBEGA1UECAwKQ2FsaWZvcm5pYTEUMBIGA1UEBwwLU2FudGEgQ2xhcmExDTAL
BgNVBAoMBHBrZzUxEjAQBgNVBAMMCWNoNS4xX3RhMTEYMBYGCSqGSIb3DQEJARYJ
Y2g1LjFfdGExMIIBIjANBgkqhkiG9w0BAQEFAAOCAQ8AMIIBCgKCAQEAtu2vu7E9
fzfaAFo8vG4LL4iNj52OMsPivNKKCQg3grZ2sXS/dn0LoWxHD3Y+Zd9gtnRhB/Ru
ZeB74pDsTKMndEUrO2qxTDzMiDLjD3SVBy/4E82+M+9nTfpoUKAi897l7LNyma7X
ks6PbyySjgBbnzv1EMRtz0z8VWUiGKqp416781bPvZkEY8td53XMAZ9PT1ajGeEj
XhblPoEzulfLDtN49Nhyz6MIWAUilf2EdmcDOJDO9/T2x9IOXu6NUsWjKNkw06m+
3kg4uKEHiv2u1ZdUnEYwzFsr7x1W62FMVycHrbzf8wMHZrnQ+mSyfJqANWjBwZaA
YMAXBJjQnP+4CwIDAQABoyEwHzAPBgNVHRMBAf8EBTADAQH/MAwGA1UdEgEB/wQC
MAAwDQYJKoZIhvcNAQELBQADggEBAIDFXf73SyIaKQW0WPS4i+EJr69sdG0qAI9Z
2+pkoFr/tV++InKLmDfbZDMiSN2+PHXO7NdiUs1RLzUQaz1aHxXZMpywMfWImIbf
Uxd39Lyfuio8GBPgneTKb8PGL6iwUYFv2NEM2qIZWl6MQB2oe1ha5tcxOIhHfxOF
sbdQAB+xmgl7x2kqf/n96Wx1Lhyp3F2hjBY67ohOFNT0Qiej7WY9FO2Nm4vfBrnX
cWnlheQaV487/uZv241PwbetPr7Woj6GsZN8mShEU2MgOUcckcvVR8L3Z2ZSkvgq
7d58J6Yn7tlkOuyUsRDo3/xV/5oQpa1jw/EAUQoleTd6XzMgvxI=
-----END CERTIFICATE-----
