Certificate:
    Data:
        Version: 3 (0x2)
        Serial Number: 8 (0x8)
    Signature Algorithm: sha256WithRSAEncryption
        Issuer: C=US, ST=California, L=Santa Clara, O=pkg5, CN=ch4_ta1/emailAddress=ch4_ta1
        Validity
            Not Before: Nov 11 12:38:30 2017 GMT
            Not After : Aug  7 12:38:30 2020 GMT
        Subject: C=US, ST=California, L=Santa Clara, O=pkg5, CN=ch5.1_ta1/emailAddress=ch5.1_ta1
        Subject Public Key Info:
            Public Key Algorithm: rsaEncryption
                Public-Key: (2048 bit)
                Modulus:
                    00:ff:10:fa:1a:7d:4b:cd:fd:84:51:e7:ba:43:1e:
                    92:e7:46:ec:4e:44:cd:32:65:ca:58:57:57:a6:ad:
                    8b:24:84:f1:45:6b:18:c1:c3:7d:c3:f5:d7:7b:9d:
                    63:7e:39:a6:92:3a:5f:5b:63:03:68:7a:1c:3b:38:
                    58:a1:1d:3a:3e:b3:f4:99:a5:dd:82:f5:2a:70:e4:
                    a0:cd:69:cf:2e:c3:93:cf:ce:e8:4f:ed:11:fd:cd:
                    dd:45:36:7f:76:1a:bf:a9:23:d8:36:81:af:f8:60:
                    24:98:b4:d9:40:0d:13:72:db:04:01:49:27:82:95:
                    bd:e5:95:7b:aa:20:51:41:fe:e1:30:62:38:ca:af:
                    3f:fa:27:fc:dc:b8:cd:20:f1:a7:4a:37:08:67:4f:
                    b9:61:44:f0:42:cf:ed:53:fa:70:03:43:ac:3b:98:
                    8f:3d:6c:dd:b9:94:f0:64:22:09:66:eb:6d:eb:7d:
                    13:50:d7:58:0e:72:c4:f0:96:1e:64:5e:2d:e0:37:
                    0e:94:38:f0:58:7f:d7:6a:f6:55:f5:cd:b7:3d:dc:
                    8d:1e:6e:e1:91:bd:20:ea:6d:54:4f:1d:3e:03:db:
                    e4:f1:56:45:b3:6a:9c:19:1f:bf:c0:a4:2f:f3:2e:
                    ae:91:a9:b6:3e:af:9c:fb:fd:c4:1d:82:a2:6b:6f:
                    15:af
                Exponent: 65537 (0x10001)
        X509v3 extensions:
            X509v3 Basic Constraints: critical
                CA:TRUE
            X509v3 Issuer Alternative Name: critical
                <EMPTY>

    Signature Algorithm: sha256WithRSAEncryption
         35:93:ab:80:55:3f:ec:fa:d4:dc:e7:0f:9c:f0:ce:08:1e:2f:
         76:bd:11:25:8e:5e:c5:f4:2b:a4:4d:22:d7:d6:ae:ff:bc:9b:
         68:5c:5a:0d:cf:c4:f1:64:71:32:e8:dd:15:b6:ef:c8:84:10:
         be:40:74:a6:08:c3:ac:2a:14:0c:fc:f5:c4:a6:99:8b:3f:9c:
         c6:c5:1b:82:a4:de:83:88:85:dd:61:b8:ca:a1:52:ff:30:41:
         50:cb:ca:63:a0:a7:bd:cd:6d:70:8b:d7:74:27:a9:1d:40:7e:
         bc:1b:c9:c2:cb:fb:fd:e1:22:ae:0d:6b:63:f0:a1:64:3d:d7:
         48:84:63:04:2e:2c:4e:ff:27:ca:63:f2:ca:54:28:f7:9e:cc:
         fd:fa:45:7b:f9:17:16:0c:ee:58:19:48:d6:95:11:c1:83:f6:
         6c:08:5f:36:b8:13:90:dc:11:19:39:a4:4d:7f:be:6c:cb:a7:
         e4:eb:34:d8:8d:6f:5f:3a:10:3b:f1:0e:fd:da:4d:56:a4:d6:
         d5:ca:0e:45:d9:29:7e:42:80:cb:f9:48:fa:ad:98:ed:06:42:
         29:43:96:5c:3c:20:2f:b9:0a:03:8f:a0:aa:32:05:19:62:b5:
         90:18:c2:6e:bd:9c:ff:4f:cd:70:fa:87:30:38:78:65:5c:a9:
         ae:5b:50:92
-----BEGIN CERTIFICATE-----
MIIDgjCCAmqgAwIBAgIBCDANBgkqhkiG9w0BAQsFADBxMQswCQYDVQQGEwJVUzET
MBEGA1UECAwKQ2FsaWZvcm5pYTEUMBIGA1UEBwwLU2FudGEgQ2xhcmExDTALBgNV
BAoMBHBrZzUxEDAOBgNVBAMMB2NoNF90YTExFjAUBgkqhkiG9w0BCQEWB2NoNF90
YTEwHhcNMTcxMTExMTIzODMwWhcNMjAwODA3MTIzODMwWjB1MQswCQYDVQQGEwJV
UzETMBEGA1UECAwKQ2FsaWZvcm5pYTEUMBIGA1UEBwwLU2FudGEgQ2xhcmExDTAL
BgNVBAoMBHBrZzUxEjAQBgNVBAMMCWNoNS4xX3RhMTEYMBYGCSqGSIb3DQEJARYJ
Y2g1LjFfdGExMIIBIjANBgkqhkiG9w0BAQEFAAOCAQ8AMIIBCgKCAQEA/xD6Gn1L
zf2EUee6Qx6S50bsTkTNMmXKWFdXpq2LJITxRWsYwcN9w/XXe51jfjmmkjpfW2MD
aHocOzhYoR06PrP0maXdgvUqcOSgzWnPLsOTz87oT+0R/c3dRTZ/dhq/qSPYNoGv
+GAkmLTZQA0TctsEAUkngpW95ZV7qiBRQf7hMGI4yq8/+if83LjNIPGnSjcIZ0+5
YUTwQs/tU/pwA0OsO5iPPWzduZTwZCIJZutt630TUNdYDnLE8JYeZF4t4DcOlDjw
WH/XavZV9c23PdyNHm7hkb0g6m1UTx0+A9vk8VZFs2qcGR+/wKQv8y6ukam2Pq+c
+/3EHYKia28VrwIDAQABoyEwHzAPBgNVHRMBAf8EBTADAQH/MAwGA1UdEgEB/wQC
MAAwDQYJKoZIhvcNAQELBQADggEBADWTq4BVP+z61NznD5zwzggeL3a9ESWOXsX0
K6RNItfWrv+8m2hcWg3PxPFkcTLo3RW278iEEL5AdKYIw6wqFAz89cSmmYs/nMbF
G4Kk3oOIhd1huMqhUv8wQVDLymOgp73NbXCL13QnqR1AfrwbycLL+/3hIq4Na2Pw
oWQ910iEYwQuLE7/J8pj8spUKPeezP36RXv5FxYM7lgZSNaVEcGD9mwIXza4E5Dc
ERk5pE1/vmzLp+TrNNiNb186EDvxDv3aTVak1tXKDkXZKX5CgMv5SPqtmO0GQilD
llw8IC+5CgOPoKoyBRlitZAYwm69nP9PzXD6hzA4eGVcqa5bUJI=
-----END CERTIFICATE-----
