Certificate:
    Data:
        Version: 3 (0x2)
        Serial Number: 10 (0xa)
    Signature Algorithm: sha256WithRSAEncryption
        Issuer: C=US, ST=California, L=Santa Clara, O=pkg5, CN=ch4_ta1/emailAddress=ch4_ta1
        Validity
            Not Before: Nov 24 01:22:41 2021 GMT
            Not After : Aug 20 01:22:41 2024 GMT
        Subject: C=US, ST=California, L=Santa Clara, O=pkg5, CN=ch5.2_ta1/emailAddress=ch5.2_ta1
        Subject Public Key Info:
            Public Key Algorithm: rsaEncryption
                Public-Key: (2048 bit)
                Modulus:
                    00:c8:e4:1e:ba:2a:06:74:0e:82:29:02:fa:6b:d2:
                    05:33:b9:c7:57:14:7f:cb:fc:45:3f:da:2a:cb:56:
                    d5:d5:bd:eb:00:4c:ec:ce:e2:a8:0f:20:96:68:f4:
                    f3:c5:e2:07:90:84:5e:d9:55:d4:32:bb:d0:e7:b4:
                    e2:65:e7:9b:f6:d3:8e:1b:47:7f:03:bd:14:01:2d:
                    a8:06:60:76:16:aa:9c:0a:da:3f:dc:d4:3e:be:32:
                    5e:8e:fa:73:69:6f:ff:56:c9:4b:07:06:4d:29:cf:
                    dc:51:e6:22:d0:ec:16:2d:4b:4e:cd:7f:24:fc:27:
                    4a:77:31:88:ed:56:42:56:fa:3f:fd:95:5d:5f:d1:
                    06:b3:12:c3:b9:46:a2:89:6d:93:69:46:bc:46:4e:
                    b5:22:26:c5:69:09:94:20:c5:a3:2d:7a:92:8c:ed:
                    49:2c:d7:11:40:ae:d2:4d:00:22:7e:e3:7a:02:2d:
                    69:7b:33:43:15:09:65:cb:50:84:3f:3e:dc:49:e3:
                    89:89:c3:e9:07:4d:6a:51:92:30:11:ab:45:44:de:
                    36:88:c9:97:45:e1:21:7c:47:19:af:37:19:3f:a5:
                    07:89:76:eb:4f:47:0e:14:e7:ed:4b:1a:c7:bb:51:
                    ae:a7:da:88:71:bf:46:34:f5:c7:58:4c:a8:22:b1:
                    ef:35
                Exponent: 65537 (0x10001)
        X509v3 extensions:
            X509v3 Subject Key Identifier: 
                69:39:B4:D6:36:FE:03:B9:2A:FF:4D:72:48:42:4B:74:21:09:8F:CD
            X509v3 Authority Key Identifier: 
                keyid:E6:E0:E9:49:6F:1C:61:2B:85:D0:19:1E:3C:AA:9F:D8:84:51:75:C7
                DirName:/C=US/ST=California/L=Santa Clara/O=pkg5/CN=ch3_ta1/emailAddress=ch3_ta1
                serial:04

            X509v3 Basic Constraints: critical
                CA:TRUE, pathlen:1
            X509v3 Key Usage: critical
                Certificate Sign, CRL Sign
    Signature Algorithm: sha256WithRSAEncryption
         78:b9:5d:8c:4e:80:4d:05:61:9e:95:e0:db:a9:8d:b0:f3:16:
         9a:04:7c:52:95:d6:8e:a0:c6:0a:b1:de:28:c7:20:7c:be:25:
         51:99:f1:b6:5a:c5:30:9c:3a:85:c6:51:57:f1:2c:fd:48:26:
         7d:04:48:de:24:53:8e:54:7a:9e:f7:f5:65:ff:04:34:c5:db:
         dc:e3:c7:9a:69:cd:3f:f2:66:22:33:05:08:ff:b8:06:a6:c7:
         24:c1:a4:f6:0f:a8:86:7f:a8:f5:1e:30:ab:26:f2:b6:fc:8f:
         b6:9c:a9:14:07:89:93:58:a6:08:b3:84:a9:ef:b1:b2:a0:52:
         07:2c:de:a6:01:22:81:ce:07:fc:f8:03:bb:71:75:14:a0:dc:
         d3:cc:b0:2d:c0:7e:b7:8b:96:9e:41:a5:88:c4:fa:fb:58:08:
         59:cf:41:9a:6e:32:a8:fc:08:42:09:d5:79:ca:55:2c:31:27:
         28:22:e7:6e:10:12:38:85:9a:5b:f7:e8:0d:13:f0:56:03:72:
         b0:23:27:f2:de:34:f2:a6:9c:3b:49:04:0f:d7:40:12:18:03:
         8b:c8:b3:23:f1:20:90:66:a3:1e:54:e7:82:38:c6:2a:6a:38:
         66:fd:b2:af:19:3e:28:35:6b:0f:7b:25:87:e2:06:ee:61:26:
         fe:2d:b2:78
-----BEGIN CERTIFICATE-----
MIIERjCCAy6gAwIBAgIBCjANBgkqhkiG9w0BAQsFADBxMQswCQYDVQQGEwJVUzET
MBEGA1UECAwKQ2FsaWZvcm5pYTEUMBIGA1UEBwwLU2FudGEgQ2xhcmExDTALBgNV
BAoMBHBrZzUxEDAOBgNVBAMMB2NoNF90YTExFjAUBgkqhkiG9w0BCQEWB2NoNF90
YTEwHhcNMjExMTI0MDEyMjQxWhcNMjQwODIwMDEyMjQxWjB1MQswCQYDVQQGEwJV
UzETMBEGA1UECAwKQ2FsaWZvcm5pYTEUMBIGA1UEBwwLU2FudGEgQ2xhcmExDTAL
BgNVBAoMBHBrZzUxEjAQBgNVBAMMCWNoNS4yX3RhMTEYMBYGCSqGSIb3DQEJARYJ
Y2g1LjJfdGExMIIBIjANBgkqhkiG9w0BAQEFAAOCAQ8AMIIBCgKCAQEAyOQeuioG
dA6CKQL6a9IFM7nHVxR/y/xFP9oqy1bV1b3rAEzszuKoDyCWaPTzxeIHkIRe2VXU
MrvQ57TiZeeb9tOOG0d/A70UAS2oBmB2FqqcCto/3NQ+vjJejvpzaW//VslLBwZN
Kc/cUeYi0OwWLUtOzX8k/CdKdzGI7VZCVvo//ZVdX9EGsxLDuUaiiW2TaUa8Rk61
IibFaQmUIMWjLXqSjO1JLNcRQK7STQAifuN6Ai1pezNDFQlly1CEPz7cSeOJicPp
B01qUZIwEatFRN42iMmXReEhfEcZrzcZP6UHiXbrT0cOFOftSxrHu1Gup9qIcb9G
NPXHWEyoIrHvNQIDAQABo4HkMIHhMB0GA1UdDgQWBBRpObTWNv4DuSr/TXJIQkt0
IQmPzTCBmwYDVR0jBIGTMIGQgBTm4OlJbxxhK4XQGR48qp/YhFF1x6F1pHMwcTEL
MAkGA1UEBhMCVVMxEzARBgNVBAgMCkNhbGlmb3JuaWExFDASBgNVBAcMC1NhbnRh
IENsYXJhMQ0wCwYDVQQKDARwa2c1MRAwDgYDVQQDDAdjaDNfdGExMRYwFAYJKoZI
hvcNAQkBFgdjaDNfdGExggEEMBIGA1UdEwEB/wQIMAYBAf8CAQEwDgYDVR0PAQH/
BAQDAgEGMA0GCSqGSIb3DQEBCwUAA4IBAQB4uV2MToBNBWGeleDbqY2w8xaaBHxS
ldaOoMYKsd4oxyB8viVRmfG2WsUwnDqFxlFX8Sz9SCZ9BEjeJFOOVHqe9/Vl/wQ0
xdvc48eaac0/8mYiMwUI/7gGpsckwaT2D6iGf6j1HjCrJvK2/I+2nKkUB4mTWKYI
s4Sp77GyoFIHLN6mASKBzgf8+AO7cXUUoNzTzLAtwH63i5aeQaWIxPr7WAhZz0Ga
bjKo/AhCCdV5ylUsMScoIuduEBI4hZpb9+gNE/BWA3KwIyfy3jTyppw7SQQP10AS
GAOLyLMj8SCQZqMeVOeCOMYqajhm/bKvGT4oNWsPeyWH4gbuYSb+LbJ4
-----END CERTIFICATE-----
