Certificate:
    Data:
        Version: 3 (0x2)
        Serial Number: 10 (0xa)
    Signature Algorithm: sha256WithRSAEncryption
        Issuer: C=US, ST=California, L=Santa Clara, O=pkg5, CN=ch4_ta1/emailAddress=ch4_ta1
        Validity
            Not Before: Nov 11 12:38:30 2017 GMT
            Not After : Aug  7 12:38:30 2020 GMT
        Subject: C=US, ST=California, L=Santa Clara, O=pkg5, CN=ch5.2_ta1/emailAddress=ch5.2_ta1
        Subject Public Key Info:
            Public Key Algorithm: rsaEncryption
                Public-Key: (2048 bit)
                Modulus:
                    00:a9:3e:b4:fc:58:1a:ed:25:12:ef:55:74:e6:ac:
                    fe:09:18:70:6f:23:ab:63:6f:2b:f5:1f:07:99:3a:
                    e6:af:cd:87:84:76:d2:c6:3d:23:60:cb:3f:18:c0:
                    2d:9d:2f:89:5f:eb:0b:6a:43:0c:17:2d:fe:99:b8:
                    f6:e9:7e:b5:0e:5f:11:78:a0:a5:09:8b:79:df:d1:
                    48:55:db:47:ed:f5:6c:05:39:e6:3d:2a:f9:cf:fe:
                    a5:3e:0f:5f:f4:c6:28:34:13:49:c1:c0:39:1a:4f:
                    f7:ba:40:c4:27:63:cb:ca:23:8e:8e:95:61:96:5f:
                    a3:be:d7:86:3a:73:0e:a5:3b:c5:c3:f7:ca:c3:6f:
                    3f:df:2d:62:b7:e4:43:29:2f:14:54:da:62:67:d2:
                    2d:80:2b:25:40:b3:69:5e:32:b2:10:81:2f:50:7c:
                    67:40:f3:c7:31:af:68:13:8e:e1:cd:72:c4:c4:78:
                    90:ae:55:81:f7:88:81:46:2b:9e:89:e9:39:93:f9:
                    f0:f8:92:4c:05:52:cb:63:48:2f:c6:97:ee:58:bb:
                    87:05:46:38:e9:de:46:05:5f:5c:7a:e8:d2:1d:bb:
                    54:57:fe:12:aa:2e:9d:4e:cc:a1:09:24:23:d8:d7:
                    e4:68:4e:4b:ae:d6:75:6c:16:66:7e:c6:30:3d:5a:
                    61:11
                Exponent: 65537 (0x10001)
        X509v3 extensions:
            X509v3 Subject Key Identifier: 
                52:6F:B6:46:F5:77:A9:95:80:2E:5F:7A:2B:DE:19:FF:BD:4E:57:98
            X509v3 Authority Key Identifier: 
                keyid:2A:ED:87:4A:F1:61:C7:64:E5:FF:94:06:BB:62:6D:6D:51:62:77:84
                DirName:/C=US/ST=California/L=Santa Clara/O=pkg5/CN=ch3_ta1/emailAddress=ch3_ta1
                serial:04

            X509v3 Basic Constraints: critical
                CA:TRUE, pathlen:1
            X509v3 Key Usage: critical
                Certificate Sign, CRL Sign
    Signature Algorithm: sha256WithRSAEncryption
         77:21:6b:73:02:ff:66:c3:82:87:73:c0:c8:2e:f9:3b:61:ba:
         cc:75:35:31:76:b1:d7:a4:64:6f:9e:3d:ad:60:61:40:8d:06:
         7a:70:7e:5c:d7:42:26:0e:f1:87:d7:5e:70:2a:a4:f6:03:9d:
         26:e4:80:ed:36:0c:62:64:06:ed:17:46:52:08:33:3c:fd:d4:
         43:cc:c9:6b:b3:62:38:db:18:69:36:8b:89:f0:26:63:14:8b:
         d2:25:69:ec:45:35:8f:42:ad:70:3e:46:84:6d:a7:28:3f:66:
         3c:11:f7:ce:11:30:05:16:36:b7:d7:87:e0:f2:92:f7:44:21:
         0a:13:2f:bb:2e:d0:7d:4f:8b:5c:bb:36:c5:32:20:86:3e:29:
         2a:48:5f:0e:8d:81:13:e6:10:86:82:83:07:d1:6c:cc:74:6c:
         59:e8:59:04:fa:93:1b:f2:72:4c:e6:5e:45:a3:8d:42:49:d8:
         6b:ec:c7:94:2a:5d:3b:71:41:45:d7:6e:54:9c:67:cf:9c:cb:
         40:33:20:5d:c5:40:b6:95:1f:9d:2e:3d:c1:8e:5b:0c:03:aa:
         10:59:f1:17:c8:26:28:28:73:3b:98:b6:b1:8c:4d:26:e3:99:
         87:8b:9c:0f:8b:c0:68:77:b2:62:d2:04:5b:6c:3e:93:43:c8:
         55:c4:ac:09
-----BEGIN CERTIFICATE-----
MIIERjCCAy6gAwIBAgIBCjANBgkqhkiG9w0BAQsFADBxMQswCQYDVQQGEwJVUzET
MBEGA1UECAwKQ2FsaWZvcm5pYTEUMBIGA1UEBwwLU2FudGEgQ2xhcmExDTALBgNV
BAoMBHBrZzUxEDAOBgNVBAMMB2NoNF90YTExFjAUBgkqhkiG9w0BCQEWB2NoNF90
YTEwHhcNMTcxMTExMTIzODMwWhcNMjAwODA3MTIzODMwWjB1MQswCQYDVQQGEwJV
UzETMBEGA1UECAwKQ2FsaWZvcm5pYTEUMBIGA1UEBwwLU2FudGEgQ2xhcmExDTAL
BgNVBAoMBHBrZzUxEjAQBgNVBAMMCWNoNS4yX3RhMTEYMBYGCSqGSIb3DQEJARYJ
Y2g1LjJfdGExMIIBIjANBgkqhkiG9w0BAQEFAAOCAQ8AMIIBCgKCAQEAqT60/Fga
7SUS71V05qz+CRhwbyOrY28r9R8HmTrmr82HhHbSxj0jYMs/GMAtnS+JX+sLakMM
Fy3+mbj26X61Dl8ReKClCYt539FIVdtH7fVsBTnmPSr5z/6lPg9f9MYoNBNJwcA5
Gk/3ukDEJ2PLyiOOjpVhll+jvteGOnMOpTvFw/fKw28/3y1it+RDKS8UVNpiZ9It
gCslQLNpXjKyEIEvUHxnQPPHMa9oE47hzXLExHiQrlWB94iBRiueiek5k/nw+JJM
BVLLY0gvxpfuWLuHBUY46d5GBV9ceujSHbtUV/4Sqi6dTsyhCSQj2NfkaE5LrtZ1
bBZmfsYwPVphEQIDAQABo4HkMIHhMB0GA1UdDgQWBBRSb7ZG9XeplYAuX3or3hn/
vU5XmDCBmwYDVR0jBIGTMIGQgBQq7YdK8WHHZOX/lAa7Ym1tUWJ3hKF1pHMwcTEL
MAkGA1UEBhMCVVMxEzARBgNVBAgMCkNhbGlmb3JuaWExFDASBgNVBAcMC1NhbnRh
IENsYXJhMQ0wCwYDVQQKDARwa2c1MRAwDgYDVQQDDAdjaDNfdGExMRYwFAYJKoZI
hvcNAQkBFgdjaDNfdGExggEEMBIGA1UdEwEB/wQIMAYBAf8CAQEwDgYDVR0PAQH/
BAQDAgEGMA0GCSqGSIb3DQEBCwUAA4IBAQB3IWtzAv9mw4KHc8DILvk7YbrMdTUx
drHXpGRvnj2tYGFAjQZ6cH5c10ImDvGH115wKqT2A50m5IDtNgxiZAbtF0ZSCDM8
/dRDzMlrs2I42xhpNouJ8CZjFIvSJWnsRTWPQq1wPkaEbacoP2Y8EffOETAFFja3
14fg8pL3RCEKEy+7LtB9T4tcuzbFMiCGPikqSF8OjYET5hCGgoMH0WzMdGxZ6FkE
+pMb8nJM5l5Fo41CSdhr7MeUKl07cUFF125UnGfPnMtAMyBdxUC2lR+dLj3BjlsM
A6oQWfEXyCYoKHM7mLaxjE0m45mHi5wPi8Bod7Ji0gRbbD6TQ8hVxKwJ
-----END CERTIFICATE-----
