Certificate:
    Data:
        Version: 3 (0x2)
        Serial Number: 12 (0xc)
    Signature Algorithm: sha256WithRSAEncryption
        Issuer: C=US, ST=California, L=Santa Clara, O=pkg5, CN=ch3_ta1/emailAddress=ch3_ta1
        Validity
            Not Before: Nov 11 12:38:30 2017 GMT
            Not After : Aug  7 12:38:30 2020 GMT
        Subject: C=US, ST=California, L=Santa Clara, O=pkg5, CN=ch4.3_ta1/emailAddress=ch4.3_ta1
        Subject Public Key Info:
            Public Key Algorithm: rsaEncryption
                Public-Key: (2048 bit)
                Modulus:
                    00:bc:90:8b:b6:c0:a8:f0:39:e7:95:d4:5b:ab:15:
                    8a:df:73:c7:03:68:cb:e2:63:43:d1:b4:57:0a:d7:
                    b0:1f:0e:49:80:78:44:7f:57:d0:d5:45:e2:0f:b7:
                    50:da:7d:12:08:22:30:f2:4c:4b:47:5c:b5:0e:e1:
                    a3:d7:fe:c5:fa:5e:6d:f4:14:c7:e8:d1:d7:59:bb:
                    88:0c:7e:8b:c4:c3:de:04:2a:98:a8:5b:01:8c:d9:
                    b5:95:41:1b:4a:c5:06:32:ea:73:01:da:8c:0c:38:
                    d4:f9:0a:b2:c4:7e:d4:1c:ff:22:db:45:ae:c3:f9:
                    70:07:ba:e3:9c:01:81:b2:06:d6:27:1d:80:17:f7:
                    db:a7:0e:43:d5:28:27:73:18:c7:fe:fe:e2:33:a4:
                    35:ce:bf:58:a0:f1:31:9f:59:61:ac:36:72:e4:79:
                    d7:f1:af:19:fa:67:35:6c:13:ba:dc:60:31:c9:cf:
                    54:7d:61:d4:8e:ce:8a:a0:fe:17:52:d2:9e:09:eb:
                    9b:51:ee:77:33:b9:a1:1a:f5:20:b5:45:86:f6:c9:
                    aa:72:28:a2:27:71:e6:fb:7d:52:69:1c:6e:ed:72:
                    97:55:88:6f:88:72:c2:a5:fd:1a:c5:fa:84:d4:46:
                    28:85:6d:fa:73:74:c7:40:3d:9a:5c:c0:f6:66:da:
                    76:8f
                Exponent: 65537 (0x10001)
        X509v3 extensions:
            X509v3 Subject Key Identifier: 
                96:EC:71:31:FF:4C:BF:13:0E:EF:D8:21:99:C2:BD:30:D1:3A:BA:69
            X509v3 Authority Key Identifier: 
                keyid:8D:DD:94:B0:1D:B5:CB:D0:E3:C4:66:4F:FD:8A:15:F1:5F:75:2E:62
                DirName:/C=US/ST=California/L=Santa Clara/O=pkg5/CN=ch2_ta1/emailAddress=ch2_ta1
                serial:03

            X509v3 Basic Constraints: critical
                CA:TRUE, pathlen:0
            X509v3 Key Usage: critical
                Certificate Sign, CRL Sign
    Signature Algorithm: sha256WithRSAEncryption
         85:1a:d8:46:89:ee:fa:34:4c:a9:00:35:ce:9e:48:13:ba:da:
         fc:c0:e9:74:18:95:72:09:12:21:df:5a:7a:a3:bf:aa:91:92:
         3c:54:48:77:75:79:c0:37:a6:73:c1:d1:23:6e:09:56:0d:40:
         a5:fc:26:00:33:d2:53:aa:d2:34:97:50:8b:d5:2c:83:f8:6f:
         42:05:43:64:87:a7:2a:1c:77:35:94:6b:d2:1f:89:bb:c8:5b:
         2c:46:8f:3c:2c:9b:62:51:ef:9f:85:16:bb:3e:d0:b4:09:ce:
         60:1e:ee:e4:d4:37:fd:4a:2d:e1:5b:95:11:2f:66:dc:2b:55:
         38:78:b6:12:44:7f:07:e1:82:9e:c9:e9:35:9f:71:bc:8f:bc:
         b2:00:c3:62:9d:fe:ad:36:3a:90:95:bf:36:f8:4b:1b:b9:70:
         82:d8:db:0d:98:8d:64:16:4f:41:3b:da:a6:9e:f1:85:8e:15:
         04:56:11:0a:76:d3:9a:3b:d4:0a:b7:d2:2f:29:bd:44:db:69:
         64:cf:09:03:50:72:f0:29:dd:97:5c:c9:18:39:28:34:7b:8a:
         5d:27:78:2d:e6:2f:12:1e:4f:aa:20:76:7c:49:88:87:66:72:
         5f:79:38:24:17:23:bf:09:56:b5:fc:c2:03:3e:23:ce:c4:cd:
         22:87:a4:33
-----BEGIN CERTIFICATE-----
MIIERjCCAy6gAwIBAgIBDDANBgkqhkiG9w0BAQsFADBxMQswCQYDVQQGEwJVUzET
MBEGA1UECAwKQ2FsaWZvcm5pYTEUMBIGA1UEBwwLU2FudGEgQ2xhcmExDTALBgNV
BAoMBHBrZzUxEDAOBgNVBAMMB2NoM190YTExFjAUBgkqhkiG9w0BCQEWB2NoM190
YTEwHhcNMTcxMTExMTIzODMwWhcNMjAwODA3MTIzODMwWjB1MQswCQYDVQQGEwJV
UzETMBEGA1UECAwKQ2FsaWZvcm5pYTEUMBIGA1UEBwwLU2FudGEgQ2xhcmExDTAL
BgNVBAoMBHBrZzUxEjAQBgNVBAMMCWNoNC4zX3RhMTEYMBYGCSqGSIb3DQEJARYJ
Y2g0LjNfdGExMIIBIjANBgkqhkiG9w0BAQEFAAOCAQ8AMIIBCgKCAQEAvJCLtsCo
8DnnldRbqxWK33PHA2jL4mND0bRXCtewHw5JgHhEf1fQ1UXiD7dQ2n0SCCIw8kxL
R1y1DuGj1/7F+l5t9BTH6NHXWbuIDH6LxMPeBCqYqFsBjNm1lUEbSsUGMupzAdqM
DDjU+QqyxH7UHP8i20Wuw/lwB7rjnAGBsgbWJx2AF/fbpw5D1SgncxjH/v7iM6Q1
zr9YoPExn1lhrDZy5HnX8a8Z+mc1bBO63GAxyc9UfWHUjs6KoP4XUtKeCeubUe53
M7mhGvUgtUWG9smqciiiJ3Hm+31SaRxu7XKXVYhviHLCpf0axfqE1EYohW36c3TH
QD2aXMD2Ztp2jwIDAQABo4HkMIHhMB0GA1UdDgQWBBSW7HEx/0y/Ew7v2CGZwr0w
0Tq6aTCBmwYDVR0jBIGTMIGQgBSN3ZSwHbXL0OPEZk/9ihXxX3UuYqF1pHMwcTEL
MAkGA1UEBhMCVVMxEzARBgNVBAgMCkNhbGlmb3JuaWExFDASBgNVBAcMC1NhbnRh
IENsYXJhMQ0wCwYDVQQKDARwa2c1MRAwDgYDVQQDDAdjaDJfdGExMRYwFAYJKoZI
hvcNAQkBFgdjaDJfdGExggEDMBIGA1UdEwEB/wQIMAYBAf8CAQAwDgYDVR0PAQH/
BAQDAgEGMA0GCSqGSIb3DQEBCwUAA4IBAQCFGthGie76NEypADXOnkgTutr8wOl0
GJVyCRIh31p6o7+qkZI8VEh3dXnAN6ZzwdEjbglWDUCl/CYAM9JTqtI0l1CL1SyD
+G9CBUNkh6cqHHc1lGvSH4m7yFssRo88LJtiUe+fhRa7PtC0Cc5gHu7k1Df9Si3h
W5URL2bcK1U4eLYSRH8H4YKeyek1n3G8j7yyAMNinf6tNjqQlb82+EsbuXCC2NsN
mI1kFk9BO9qmnvGFjhUEVhEKdtOaO9QKt9IvKb1E22lkzwkDUHLwKd2XXMkYOSg0
e4pdJ3gt5i8SHk+qIHZ8SYiHZnJfeTgkFyO/CVa1/MIDPiPOxM0ih6Qz
-----END CERTIFICATE-----
