Certificate:
    Data:
        Version: 3 (0x2)
        Serial Number: 12 (0xc)
    Signature Algorithm: sha256WithRSAEncryption
        Issuer: C=US, ST=California, L=Santa Clara, O=pkg5, CN=ch3_ta1/emailAddress=ch3_ta1
        Validity
            Not Before: Nov 24 01:22:41 2021 GMT
            Not After : Aug 20 01:22:41 2024 GMT
        Subject: C=US, ST=California, L=Santa Clara, O=pkg5, CN=ch4.3_ta1/emailAddress=ch4.3_ta1
        Subject Public Key Info:
            Public Key Algorithm: rsaEncryption
                Public-Key: (2048 bit)
                Modulus:
                    00:b5:e5:3d:f9:07:2f:d7:ef:ad:ce:d4:23:25:00:
                    de:5d:20:f5:a1:a5:57:26:38:b9:cf:6e:39:1e:8e:
                    9d:1e:a1:68:d0:7c:9c:e4:96:77:fb:b1:23:7b:ad:
                    48:63:47:74:41:18:4f:5e:7b:e6:8a:dd:6d:7f:84:
                    9c:ec:c0:04:b4:73:e3:5a:fe:7f:6e:9b:4c:66:f2:
                    2c:47:77:8e:46:5f:04:63:df:a2:b2:d2:3c:bf:89:
                    e0:56:4a:62:46:f9:34:d3:81:e0:aa:75:09:5f:92:
                    ea:05:a7:48:92:0e:e5:77:36:b0:51:12:8f:5e:35:
                    e8:da:3a:81:5a:63:7e:21:4a:de:87:97:14:f1:0b:
                    f4:3c:b5:56:86:bd:c8:ff:cf:f6:b4:0c:ae:c1:de:
                    68:95:6c:f6:82:eb:6b:b7:68:6c:df:77:84:f7:9c:
                    28:0d:50:ae:cc:15:14:eb:42:a9:1e:aa:78:e4:d3:
                    e3:f4:2c:39:30:10:ae:08:ea:6f:db:f9:ce:8f:fa:
                    89:d7:c5:95:43:3e:17:67:07:34:01:6d:27:27:8e:
                    47:be:78:77:34:d4:e8:c9:c6:a6:9f:5f:fc:c8:35:
                    fd:8a:06:2e:32:28:91:9d:92:f7:e4:49:37:bf:3d:
                    f2:59:a2:db:5f:96:91:c3:b3:0d:e4:43:6d:a9:e5:
                    b1:c9
                Exponent: 65537 (0x10001)
        X509v3 extensions:
            X509v3 Subject Key Identifier: 
                6C:DE:9B:26:89:90:9F:6A:EA:AA:50:95:A2:01:EB:27:6F:77:EE:B6
            X509v3 Authority Key Identifier: 
                keyid:8A:11:85:C1:33:94:13:3C:EE:34:20:43:7A:1C:B5:6F:9E:9C:7F:44
                DirName:/C=US/ST=California/L=Santa Clara/O=pkg5/CN=ch2_ta1/emailAddress=ch2_ta1
                serial:03

            X509v3 Basic Constraints: critical
                CA:TRUE, pathlen:0
            X509v3 Key Usage: critical
                Certificate Sign, CRL Sign
    Signature Algorithm: sha256WithRSAEncryption
         77:ae:a5:cb:96:0d:25:95:d6:3c:35:29:0f:fa:33:74:15:99:
         a0:95:3f:f4:6b:05:95:62:c2:9b:b2:5c:dc:33:01:a1:b0:5a:
         06:59:e1:0d:76:c3:a2:63:cb:59:b8:23:2d:79:c5:ac:00:70:
         3c:b5:b6:cf:41:40:04:49:75:11:c5:e9:b1:d8:eb:30:dc:f0:
         7b:0f:e1:89:46:b9:3d:0f:18:9f:84:f4:11:7a:47:7f:45:19:
         a2:6a:62:8a:e2:e6:88:c4:47:dd:ec:e0:42:fe:d6:f1:3f:6a:
         1b:ea:df:58:33:d0:c4:16:d6:5a:28:a6:73:b7:2d:2f:9a:27:
         4f:8e:82:63:df:5c:a9:74:db:2e:bd:85:d8:2a:d0:fe:08:d7:
         88:2e:5f:1e:dc:3c:14:c6:a9:f6:a5:d3:d2:7b:d5:c5:83:78:
         ad:c1:53:b2:f2:21:70:c5:6e:c3:37:4c:4a:59:aa:7a:d2:fa:
         eb:94:92:7f:e6:1a:d3:86:bc:c8:7a:46:9b:4f:c9:c2:aa:71:
         8b:45:3f:fc:90:6f:dd:a7:15:ee:68:23:be:9a:35:7f:57:4a:
         df:91:72:88:0d:b5:7c:4f:02:cb:d6:e8:02:8c:f5:07:22:3f:
         fe:64:e4:f6:c6:14:b3:b0:6b:33:96:18:43:cc:30:a7:2e:db:
         e3:23:5a:1d
-----BEGIN CERTIFICATE-----
MIIERjCCAy6gAwIBAgIBDDANBgkqhkiG9w0BAQsFADBxMQswCQYDVQQGEwJVUzET
MBEGA1UECAwKQ2FsaWZvcm5pYTEUMBIGA1UEBwwLU2FudGEgQ2xhcmExDTALBgNV
BAoMBHBrZzUxEDAOBgNVBAMMB2NoM190YTExFjAUBgkqhkiG9w0BCQEWB2NoM190
YTEwHhcNMjExMTI0MDEyMjQxWhcNMjQwODIwMDEyMjQxWjB1MQswCQYDVQQGEwJV
UzETMBEGA1UECAwKQ2FsaWZvcm5pYTEUMBIGA1UEBwwLU2FudGEgQ2xhcmExDTAL
BgNVBAoMBHBrZzUxEjAQBgNVBAMMCWNoNC4zX3RhMTEYMBYGCSqGSIb3DQEJARYJ
Y2g0LjNfdGExMIIBIjANBgkqhkiG9w0BAQEFAAOCAQ8AMIIBCgKCAQEAteU9+Qcv
1++tztQjJQDeXSD1oaVXJji5z245Ho6dHqFo0Hyc5JZ3+7Eje61IY0d0QRhPXnvm
it1tf4Sc7MAEtHPjWv5/bptMZvIsR3eORl8EY9+istI8v4ngVkpiRvk004HgqnUJ
X5LqBadIkg7ldzawURKPXjXo2jqBWmN+IUreh5cU8Qv0PLVWhr3I/8/2tAyuwd5o
lWz2gutrt2hs33eE95woDVCuzBUU60KpHqp45NPj9Cw5MBCuCOpv2/nOj/qJ18WV
Qz4XZwc0AW0nJ45Hvnh3NNToycamn1/8yDX9igYuMiiRnZL35Ek3vz3yWaLbX5aR
w7MN5ENtqeWxyQIDAQABo4HkMIHhMB0GA1UdDgQWBBRs3psmiZCfauqqUJWiAesn
b3futjCBmwYDVR0jBIGTMIGQgBSKEYXBM5QTPO40IEN6HLVvnpx/RKF1pHMwcTEL
MAkGA1UEBhMCVVMxEzARBgNVBAgMCkNhbGlmb3JuaWExFDASBgNVBAcMC1NhbnRh
IENsYXJhMQ0wCwYDVQQKDARwa2c1MRAwDgYDVQQDDAdjaDJfdGExMRYwFAYJKoZI
hvcNAQkBFgdjaDJfdGExggEDMBIGA1UdEwEB/wQIMAYBAf8CAQAwDgYDVR0PAQH/
BAQDAgEGMA0GCSqGSIb3DQEBCwUAA4IBAQB3rqXLlg0lldY8NSkP+jN0FZmglT/0
awWVYsKbslzcMwGhsFoGWeENdsOiY8tZuCMtecWsAHA8tbbPQUAESXURxemx2Osw
3PB7D+GJRrk9DxifhPQRekd/RRmiamKK4uaIxEfd7OBC/tbxP2ob6t9YM9DEFtZa
KKZzty0vmidPjoJj31ypdNsuvYXYKtD+CNeILl8e3DwUxqn2pdPSe9XFg3itwVOy
8iFwxW7DN0xKWap60vrrlJJ/5hrThrzIekabT8nCqnGLRT/8kG/dpxXuaCO+mjV/
V0rfkXKIDbV8TwLL1ugCjPUHIj/+ZOT2xhSzsGszlhhDzDCnLtvjI1od
-----END CERTIFICATE-----
