Certificate:
    Data:
        Version: 3 (0x2)
        Serial Number: 13 (0xd)
    Signature Algorithm: sha256WithRSAEncryption
        Issuer: C=US, ST=California, L=Santa Clara, O=pkg5, CN=ch4.3_ta1/emailAddress=ch4.3_ta1
        Validity
            Not Before: Jul  3 14:14:00 2018 GMT
            Not After : Mar 29 14:14:00 2021 GMT
        Subject: C=US, ST=California, L=Santa Clara, O=pkg5, CN=ch5.3_ta1/emailAddress=ch5.3_ta1
        Subject Public Key Info:
            Public Key Algorithm: rsaEncryption
                Public-Key: (2048 bit)
                Modulus:
                    00:d7:67:b7:ab:ce:cf:54:23:ea:12:55:ee:da:7c:
                    a0:c6:72:61:c9:92:0b:85:97:37:f0:f3:e4:9c:25:
                    2a:a2:0b:4f:61:b1:c7:8b:64:91:b3:74:55:20:91:
                    1d:c1:85:46:26:d8:7d:75:a3:80:d0:50:63:98:51:
                    b9:1b:24:00:8b:99:91:e9:de:b5:42:7c:23:91:30:
                    ec:85:9c:8b:4f:d2:2d:f1:e7:36:55:ac:0e:f1:3d:
                    df:b1:bf:c3:53:ed:1f:de:8b:13:aa:cb:aa:6b:4f:
                    70:c6:97:98:c4:3d:1f:c0:c1:ae:ae:19:9a:89:12:
                    ec:f2:b9:b3:5c:d3:27:20:54:76:b5:7b:67:59:c0:
                    c3:6e:89:17:4e:9e:bb:a1:7c:14:bf:44:da:51:f7:
                    ed:c7:2c:62:9d:64:17:2f:ee:92:2f:6e:b0:c3:7f:
                    b6:23:42:75:99:04:d9:0e:9c:ce:e0:ef:f7:3d:90:
                    c7:36:f4:9a:5e:7d:47:ea:88:3b:25:20:e9:46:5d:
                    96:79:e3:4f:7f:8d:df:9e:5c:4e:26:c8:a1:57:fc:
                    5d:25:06:08:3c:dc:2b:61:6b:25:f2:85:73:2b:c7:
                    52:a7:5f:79:0e:40:7c:7c:37:36:3c:53:16:4a:4f:
                    b0:e0:43:eb:50:cf:5a:1d:b8:9c:36:14:71:89:f7:
                    56:11
                Exponent: 65537 (0x10001)
        X509v3 extensions:
            X509v3 Subject Key Identifier: 
                2F:03:A9:44:A4:AE:8D:6F:E4:A9:5C:97:DC:AD:4F:32:BF:B6:83:07
            X509v3 Authority Key Identifier: 
                keyid:68:7A:F9:32:88:81:0D:0A:0A:C4:49:AC:B4:49:57:B4:CB:DF:F3:B0
                DirName:/C=US/ST=California/L=Santa Clara/O=pkg5/CN=ch3_ta1/emailAddress=ch3_ta1
                serial:0C

            X509v3 Basic Constraints: critical
                CA:TRUE, pathlen:0
            X509v3 Key Usage: critical
                Certificate Sign, CRL Sign
    Signature Algorithm: sha256WithRSAEncryption
         95:9e:b8:d2:b4:c7:41:da:04:59:cc:1e:2a:f0:25:3d:2e:e5:
         07:55:0e:27:1f:7e:b4:71:e0:75:01:4e:33:5b:7e:9f:a4:f7:
         84:17:d2:a7:b2:4d:ee:79:ac:5e:b5:5e:57:8f:e9:59:e5:63:
         54:b9:36:f9:b5:c7:b9:13:5c:79:0d:01:57:00:8a:98:fc:c5:
         45:31:30:97:af:0f:14:bb:be:5f:ea:98:6f:f8:47:05:0a:a7:
         7c:f9:b1:95:d3:9b:24:4f:11:d8:bc:7e:59:bc:ea:bb:e2:ae:
         45:ca:4d:4b:dc:bf:1c:1c:67:8c:6b:09:73:40:ca:88:e7:d0:
         76:c9:e7:2c:1c:b9:53:9f:96:d0:a1:5d:ca:12:46:75:22:46:
         92:e1:f1:ea:1c:f4:ee:1a:01:58:0b:37:b7:0b:9f:5f:fd:4c:
         9f:3b:2f:09:3d:2e:50:21:1b:e5:2c:f9:3f:11:ba:f2:93:50:
         42:f6:68:9f:3d:96:0e:a9:a9:7a:10:9b:ab:70:db:8a:bb:82:
         42:ec:e3:ed:64:ba:6c:3b:23:74:f5:ba:93:79:33:2f:c7:50:
         80:19:77:bc:af:53:ed:84:7c:35:2f:11:15:53:d5:25:8c:a4:
         a4:c1:9d:29:22:a1:10:20:6a:58:30:a5:8e:63:cb:87:36:c9:
         e7:f7:e1:2f
-----BEGIN CERTIFICATE-----
MIIESjCCAzKgAwIBAgIBDTANBgkqhkiG9w0BAQsFADB1MQswCQYDVQQGEwJVUzET
MBEGA1UECAwKQ2FsaWZvcm5pYTEUMBIGA1UEBwwLU2FudGEgQ2xhcmExDTALBgNV
BAoMBHBrZzUxEjAQBgNVBAMMCWNoNC4zX3RhMTEYMBYGCSqGSIb3DQEJARYJY2g0
LjNfdGExMB4XDTE4MDcwMzE0MTQwMFoXDTIxMDMyOTE0MTQwMFowdTELMAkGA1UE
BhMCVVMxEzARBgNVBAgMCkNhbGlmb3JuaWExFDASBgNVBAcMC1NhbnRhIENsYXJh
MQ0wCwYDVQQKDARwa2c1MRIwEAYDVQQDDAljaDUuM190YTExGDAWBgkqhkiG9w0B
CQEWCWNoNS4zX3RhMTCCASIwDQYJKoZIhvcNAQEBBQADggEPADCCAQoCggEBANdn
t6vOz1Qj6hJV7tp8oMZyYcmSC4WXN/Dz5JwlKqILT2Gxx4tkkbN0VSCRHcGFRibY
fXWjgNBQY5hRuRskAIuZkenetUJ8I5Ew7IWci0/SLfHnNlWsDvE937G/w1PtH96L
E6rLqmtPcMaXmMQ9H8DBrq4ZmokS7PK5s1zTJyBUdrV7Z1nAw26JF06eu6F8FL9E
2lH37ccsYp1kFy/uki9usMN/tiNCdZkE2Q6czuDv9z2Qxzb0ml59R+qIOyUg6UZd
lnnjT3+N355cTibIoVf8XSUGCDzcK2FrJfKFcyvHUqdfeQ5AfHw3NjxTFkpPsOBD
61DPWh24nDYUcYn3VhECAwEAAaOB5DCB4TAdBgNVHQ4EFgQULwOpRKSujW/kqVyX
3K1PMr+2gwcwgZsGA1UdIwSBkzCBkIAUaHr5MoiBDQoKxEmstElXtMvf87ChdaRz
MHExCzAJBgNVBAYTAlVTMRMwEQYDVQQIDApDYWxpZm9ybmlhMRQwEgYDVQQHDAtT
YW50YSBDbGFyYTENMAsGA1UECgwEcGtnNTEQMA4GA1UEAwwHY2gzX3RhMTEWMBQG
CSqGSIb3DQEJARYHY2gzX3RhMYIBDDASBgNVHRMBAf8ECDAGAQH/AgEAMA4GA1Ud
DwEB/wQEAwIBBjANBgkqhkiG9w0BAQsFAAOCAQEAlZ640rTHQdoEWcweKvAlPS7l
B1UOJx9+tHHgdQFOM1t+n6T3hBfSp7JN7nmsXrVeV4/pWeVjVLk2+bXHuRNceQ0B
VwCKmPzFRTEwl68PFLu+X+qYb/hHBQqnfPmxldObJE8R2Lx+Wbzqu+KuRcpNS9y/
HBxnjGsJc0DKiOfQdsnnLBy5U5+W0KFdyhJGdSJGkuHx6hz07hoBWAs3twufX/1M
nzsvCT0uUCEb5Sz5PxG68pNQQvZonz2WDqmpehCbq3DbiruCQuzj7WS6bDsjdPW6
k3kzL8dQgBl3vK9T7YR8NS8RFVPVJYykpMGdKSKhECBqWDCljmPLhzbJ5/fhLw==
-----END CERTIFICATE-----
