Certificate:
    Data:
        Version: 3 (0x2)
        Serial Number: 13 (0xd)
    Signature Algorithm: sha256WithRSAEncryption
        Issuer: C=US, ST=California, L=Santa Clara, O=pkg5, CN=ch4.3_ta1/emailAddress=ch4.3_ta1
        Validity
            Not Before: Nov 24 01:22:41 2021 GMT
            Not After : Aug 20 01:22:41 2024 GMT
        Subject: C=US, ST=California, L=Santa Clara, O=pkg5, CN=ch5.3_ta1/emailAddress=ch5.3_ta1
        Subject Public Key Info:
            Public Key Algorithm: rsaEncryption
                Public-Key: (2048 bit)
                Modulus:
                    00:ad:a3:6b:bf:44:4d:6a:54:81:49:80:df:24:b9:
                    f3:3c:b1:b2:29:01:5d:6b:8d:2f:42:2e:64:7c:05:
                    3e:f2:8e:6b:11:a5:48:34:ce:39:a4:5a:4f:67:6a:
                    ad:76:3c:3b:0a:f2:db:aa:a0:8a:10:86:fa:48:1b:
                    0c:e7:92:7f:58:6d:06:c8:d2:4a:39:7b:60:dc:b0:
                    35:74:7e:a0:eb:ac:01:aa:98:78:69:38:41:99:38:
                    10:0b:42:c8:45:49:a4:f0:97:13:8f:df:34:7d:24:
                    80:09:b0:fb:24:9a:d8:42:2c:a6:5c:4c:9d:91:03:
                    39:e3:29:2b:54:73:28:59:36:dd:82:94:ee:4b:a9:
                    da:b8:f7:54:a2:e3:e9:c3:15:b3:a2:92:8b:1d:46:
                    aa:ee:87:30:7c:fa:a2:21:f1:9d:c7:a0:69:d8:41:
                    af:4c:53:60:bd:1f:e9:14:7a:87:0c:17:8c:af:fe:
                    1d:d7:49:22:a4:25:bf:13:b8:15:2c:1c:17:50:6f:
                    7c:d3:c0:31:7a:97:25:11:5f:75:65:45:bd:da:75:
                    ab:a5:65:4f:cb:e8:35:f4:43:9b:2a:7a:ee:e0:bf:
                    ec:6f:a0:ed:ec:0a:15:94:ac:59:7e:56:d3:64:3f:
                    ea:ed:1e:f0:ec:97:8b:bd:ca:3d:90:9c:69:d7:26:
                    07:b9
                Exponent: 65537 (0x10001)
        X509v3 extensions:
            X509v3 Subject Key Identifier: 
                AE:8E:51:62:2C:AD:C9:65:84:A3:2D:5B:98:D8:6D:9D:05:58:59:81
            X509v3 Authority Key Identifier: 
                keyid:6C:DE:9B:26:89:90:9F:6A:EA:AA:50:95:A2:01:EB:27:6F:77:EE:B6
                DirName:/C=US/ST=California/L=Santa Clara/O=pkg5/CN=ch3_ta1/emailAddress=ch3_ta1
                serial:0C

            X509v3 Basic Constraints: critical
                CA:TRUE, pathlen:0
            X509v3 Key Usage: critical
                Certificate Sign, CRL Sign
    Signature Algorithm: sha256WithRSAEncryption
         ad:1e:5a:c2:a1:d7:88:3b:fa:5b:c0:1b:f6:5f:ae:8a:64:b5:
         1c:42:19:7c:f3:60:f8:27:5f:b7:7c:3a:c4:55:ce:85:07:70:
         94:07:35:1a:b2:68:d0:e4:8a:43:5e:b5:91:d6:2b:e1:e9:70:
         3a:c8:db:c5:97:8f:b0:20:07:7e:f2:9a:d5:ef:6e:b5:e8:80:
         3a:17:40:fe:eb:27:bb:e5:08:f1:cf:a1:8c:0f:14:7f:20:78:
         66:eb:f5:d6:27:39:c9:cf:bd:5e:c8:67:0f:fd:e6:ae:04:98:
         67:66:27:50:bf:b0:4c:34:90:df:0e:31:5d:74:23:cf:96:7a:
         e0:ee:b2:82:1c:74:c4:b7:72:41:76:d2:58:17:c9:f5:72:6d:
         ee:99:a8:04:67:bf:2f:19:63:f8:5b:9e:dd:29:83:70:24:e1:
         a4:a8:ac:d0:8d:79:2c:b9:1a:f7:e0:bd:17:04:51:14:84:e7:
         24:45:0b:bf:7a:fc:92:f4:6e:70:13:e4:42:17:16:03:95:96:
         bd:8d:21:d3:2e:ca:a7:9e:10:dd:ec:cc:c7:a4:92:2f:7f:d5:
         6c:b1:af:6e:3e:13:24:36:f4:32:6e:cb:ee:c8:ac:a3:6d:f7:
         ae:56:84:f7:ca:c4:27:5d:e3:89:d7:3d:b7:c4:fd:84:f7:4f:
         79:0d:e3:db
-----BEGIN CERTIFICATE-----
MIIESjCCAzKgAwIBAgIBDTANBgkqhkiG9w0BAQsFADB1MQswCQYDVQQGEwJVUzET
MBEGA1UECAwKQ2FsaWZvcm5pYTEUMBIGA1UEBwwLU2FudGEgQ2xhcmExDTALBgNV
BAoMBHBrZzUxEjAQBgNVBAMMCWNoNC4zX3RhMTEYMBYGCSqGSIb3DQEJARYJY2g0
LjNfdGExMB4XDTIxMTEyNDAxMjI0MVoXDTI0MDgyMDAxMjI0MVowdTELMAkGA1UE
BhMCVVMxEzARBgNVBAgMCkNhbGlmb3JuaWExFDASBgNVBAcMC1NhbnRhIENsYXJh
MQ0wCwYDVQQKDARwa2c1MRIwEAYDVQQDDAljaDUuM190YTExGDAWBgkqhkiG9w0B
CQEWCWNoNS4zX3RhMTCCASIwDQYJKoZIhvcNAQEBBQADggEPADCCAQoCggEBAK2j
a79ETWpUgUmA3yS58zyxsikBXWuNL0IuZHwFPvKOaxGlSDTOOaRaT2dqrXY8Owry
26qgihCG+kgbDOeSf1htBsjSSjl7YNywNXR+oOusAaqYeGk4QZk4EAtCyEVJpPCX
E4/fNH0kgAmw+ySa2EIsplxMnZEDOeMpK1RzKFk23YKU7kup2rj3VKLj6cMVs6KS
ix1Gqu6HMHz6oiHxncegadhBr0xTYL0f6RR6hwwXjK/+HddJIqQlvxO4FSwcF1Bv
fNPAMXqXJRFfdWVFvdp1q6VlT8voNfRDmyp67uC/7G+g7ewKFZSsWX5W02Q/6u0e
8OyXi73KPZCcadcmB7kCAwEAAaOB5DCB4TAdBgNVHQ4EFgQUro5RYiytyWWEoy1b
mNhtnQVYWYEwgZsGA1UdIwSBkzCBkIAUbN6bJomQn2rqqlCVogHrJ2937rahdaRz
MHExCzAJBgNVBAYTAlVTMRMwEQYDVQQIDApDYWxpZm9ybmlhMRQwEgYDVQQHDAtT
YW50YSBDbGFyYTENMAsGA1UECgwEcGtnNTEQMA4GA1UEAwwHY2gzX3RhMTEWMBQG
CSqGSIb3DQEJARYHY2gzX3RhMYIBDDASBgNVHRMBAf8ECDAGAQH/AgEAMA4GA1Ud
DwEB/wQEAwIBBjANBgkqhkiG9w0BAQsFAAOCAQEArR5awqHXiDv6W8Ab9l+uimS1
HEIZfPNg+Cdft3w6xFXOhQdwlAc1GrJo0OSKQ161kdYr4elwOsjbxZePsCAHfvKa
1e9uteiAOhdA/usnu+UI8c+hjA8UfyB4Zuv11ic5yc+9XshnD/3mrgSYZ2YnUL+w
TDSQ3w4xXXQjz5Z64O6yghx0xLdyQXbSWBfJ9XJt7pmoBGe/Lxlj+Fue3SmDcCTh
pKis0I15LLka9+C9FwRRFITnJEULv3r8kvRucBPkQhcWA5WWvY0h0y7Kp54Q3ezM
x6SSL3/VbLGvbj4TJDb0Mm7L7siso233rlaE98rEJ13jidc9t8T9hPdPeQ3j2w==
-----END CERTIFICATE-----
