Certificate:
    Data:
        Version: 3 (0x2)
        Serial Number: 16 (0x10)
    Signature Algorithm: sha256WithRSAEncryption
        Issuer: C=US, ST=California, L=Santa Clara, O=pkg5, CN=ta3/emailAddress=ta3
        Validity
            Not Before: Nov 11 12:38:31 2017 GMT
            Not After : Aug  7 12:38:31 2020 GMT
        Subject: C=US, ST=California, L=Santa Clara, O=pkg5, CN=ch1_ta3/emailAddress=ch1_ta3
        Subject Public Key Info:
            Public Key Algorithm: rsaEncryption
                Public-Key: (2048 bit)
                Modulus:
                    00:b8:05:eb:82:f5:54:53:6f:8b:86:21:85:4c:81:
                    7a:dc:5c:51:00:ac:89:4d:39:47:c9:2c:19:5f:6e:
                    58:64:2b:bc:82:6c:db:a6:2e:2e:ed:af:82:19:28:
                    42:58:0a:5f:a4:64:81:48:e0:10:2d:70:b9:e8:43:
                    79:33:de:47:7a:13:80:ee:c7:ed:6b:6a:25:b6:ef:
                    7e:bb:5d:c8:12:77:d5:44:6f:fc:6e:c9:62:00:57:
                    5d:0f:cf:7c:b1:6c:e7:fe:29:57:d7:6d:55:a3:5c:
                    d2:ce:71:a1:aa:c3:24:fb:17:b7:1d:54:2e:40:93:
                    3a:cb:7a:e9:a3:37:7b:43:05:aa:04:c8:4f:0f:24:
                    87:27:2f:ae:d2:d0:cc:59:0e:8d:a4:06:1a:8e:d2:
                    71:7a:49:71:2e:6c:af:b9:5b:9f:ca:b9:3a:88:b4:
                    10:5f:d7:80:73:e5:d1:c4:ba:bf:dd:54:cc:3b:40:
                    04:fc:6c:6b:8d:ad:a6:6d:25:d9:61:dd:0d:bc:56:
                    78:c0:de:6c:98:ae:66:04:44:5f:27:dc:5e:b4:ce:
                    9d:08:f8:af:45:3e:22:8e:18:ca:20:f2:6a:a6:5c:
                    6b:56:84:8f:96:20:e0:85:d2:0e:98:e5:44:cb:af:
                    07:f5:83:30:2c:38:f5:f1:ba:da:7a:23:77:de:0e:
                    97:77
                Exponent: 65537 (0x10001)
        X509v3 extensions:
            X509v3 Subject Key Identifier: 
                C0:15:A5:E5:8A:94:B2:77:4B:2F:BF:C8:9D:2D:8D:36:AE:F9:E4:27
            X509v3 Authority Key Identifier: 
                keyid:57:CF:1E:CF:91:35:77:E9:FA:49:76:FD:9C:6C:D9:E5:DF:4C:B3:4E
                DirName:/C=US/ST=California/L=Santa Clara/O=pkg5/CN=ta3/emailAddress=ta3
                serial:E1:43:D2:D2:D3:D6:B7:D6

            X509v3 Basic Constraints: critical
                CA:TRUE
            X509v3 Key Usage: critical
                Certificate Sign, CRL Sign
    Signature Algorithm: sha256WithRSAEncryption
         81:68:0b:22:7a:68:a6:9c:e6:dc:5a:7e:f8:b3:3e:02:07:8d:
         f8:34:11:69:a5:45:28:12:4a:df:6a:55:2e:ae:41:71:ed:eb:
         c2:65:65:66:51:a8:f6:c3:19:ef:e2:7c:ab:6a:e3:16:e8:5d:
         d8:ba:58:68:16:54:d1:05:55:30:f7:5f:f5:ae:41:d1:98:e9:
         66:6f:cf:5f:29:ad:4c:01:8f:3e:3b:66:18:f7:b2:fc:74:c7:
         44:66:76:5c:43:c6:dc:4f:14:34:dd:45:c1:41:3e:27:23:bd:
         70:46:d8:6e:eb:44:56:bf:dd:0a:13:6d:a1:ae:86:86:f8:ab:
         fb:9c:b8:61:97:22:87:ed:05:fc:14:d7:ac:63:f5:55:ee:8f:
         84:b8:f1:20:35:2c:d5:e8:3b:3b:1c:aa:6c:ac:70:b2:cc:99:
         d0:97:94:08:f0:e2:73:f6:69:2d:7c:d6:95:2d:b1:cc:3f:50:
         eb:5e:6a:34:ef:f9:2c:84:a3:b8:c4:01:9e:f2:7b:6f:e1:81:
         b2:04:69:7e:d0:5d:5c:a3:2f:c1:32:e7:b2:79:f8:19:40:b7:
         32:77:02:4b:8c:83:a7:79:f1:fb:7f:19:16:01:02:90:b8:56:
         4e:ed:c1:95:a4:61:33:38:b2:ce:d4:99:2d:70:c2:9e:4d:c0:
         b0:b0:4a:9d
-----BEGIN CERTIFICATE-----
MIIENzCCAx+gAwIBAgIBEDANBgkqhkiG9w0BAQsFADBpMQswCQYDVQQGEwJVUzET
MBEGA1UECAwKQ2FsaWZvcm5pYTEUMBIGA1UEBwwLU2FudGEgQ2xhcmExDTALBgNV
BAoMBHBrZzUxDDAKBgNVBAMMA3RhMzESMBAGCSqGSIb3DQEJARYDdGEzMB4XDTE3
MTExMTEyMzgzMVoXDTIwMDgwNzEyMzgzMVowcTELMAkGA1UEBhMCVVMxEzARBgNV
BAgMCkNhbGlmb3JuaWExFDASBgNVBAcMC1NhbnRhIENsYXJhMQ0wCwYDVQQKDARw
a2c1MRAwDgYDVQQDDAdjaDFfdGEzMRYwFAYJKoZIhvcNAQkBFgdjaDFfdGEzMIIB
IjANBgkqhkiG9w0BAQEFAAOCAQ8AMIIBCgKCAQEAuAXrgvVUU2+LhiGFTIF63FxR
AKyJTTlHySwZX25YZCu8gmzbpi4u7a+CGShCWApfpGSBSOAQLXC56EN5M95HehOA
7sfta2oltu9+u13IEnfVRG/8bsliAFddD898sWzn/ilX121Vo1zSznGhqsMk+xe3
HVQuQJM6y3rpozd7QwWqBMhPDySHJy+u0tDMWQ6NpAYajtJxeklxLmyvuVufyrk6
iLQQX9eAc+XRxLq/3VTMO0AE/Gxrja2mbSXZYd0NvFZ4wN5smK5mBERfJ9xetM6d
CPivRT4ijhjKIPJqplxrVoSPliDghdIOmOVEy68H9YMwLDj18braeiN33g6XdwID
AQABo4HhMIHeMB0GA1UdDgQWBBTAFaXlipSyd0svv8idLY02rvnkJzCBmwYDVR0j
BIGTMIGQgBRXzx7PkTV36fpJdv2cbNnl30yzTqFtpGswaTELMAkGA1UEBhMCVVMx
EzARBgNVBAgMCkNhbGlmb3JuaWExFDASBgNVBAcMC1NhbnRhIENsYXJhMQ0wCwYD
VQQKDARwa2c1MQwwCgYDVQQDDAN0YTMxEjAQBgkqhkiG9w0BCQEWA3RhM4IJAOFD
0tLT1rfWMA8GA1UdEwEB/wQFMAMBAf8wDgYDVR0PAQH/BAQDAgEGMA0GCSqGSIb3
DQEBCwUAA4IBAQCBaAsiemimnObcWn74sz4CB434NBFppUUoEkrfalUurkFx7evC
ZWVmUaj2wxnv4nyrauMW6F3YulhoFlTRBVUw91/1rkHRmOlmb89fKa1MAY8+O2YY
97L8dMdEZnZcQ8bcTxQ03UXBQT4nI71wRthu60RWv90KE22hroaG+Kv7nLhhlyKH
7QX8FNesY/VV7o+EuPEgNSzV6Ds7HKpsrHCyzJnQl5QI8OJz9mktfNaVLbHMP1Dr
Xmo07/kshKO4xAGe8ntv4YGyBGl+0F1coy/BMueyefgZQLcydwJLjIOnefH7fxkW
AQKQuFZO7cGVpGEzOLLO1JktcMKeTcCwsEqd
-----END CERTIFICATE-----
