Certificate:
    Data:
        Version: 3 (0x2)
        Serial Number: 16 (0x10)
    Signature Algorithm: sha256WithRSAEncryption
        Issuer: C=US, ST=California, L=Santa Clara, O=pkg5, CN=ta3/emailAddress=ta3
        Validity
            Not Before: Jul  3 14:14:00 2018 GMT
            Not After : Mar 29 14:14:00 2021 GMT
        Subject: C=US, ST=California, L=Santa Clara, O=pkg5, CN=ch1_ta3/emailAddress=ch1_ta3
        Subject Public Key Info:
            Public Key Algorithm: rsaEncryption
                Public-Key: (2048 bit)
                Modulus:
                    00:cb:ef:15:e0:13:00:e8:77:39:a5:f4:94:30:a6:
                    5e:e3:17:d4:c7:aa:f3:4f:16:a7:52:4f:23:d1:eb:
                    b2:08:f5:c7:d7:19:cc:ce:f3:11:55:f2:51:0c:10:
                    92:1b:3d:93:dd:18:5e:3f:59:8a:b9:bb:27:33:43:
                    dd:5d:31:43:f1:7e:69:c3:8f:dd:c4:b9:20:4f:26:
                    00:0a:e1:69:a6:8f:d9:57:a3:83:5a:1c:4f:e5:26:
                    22:31:04:af:9f:8f:c6:1e:0d:81:a3:fb:df:e0:87:
                    3d:ac:1f:23:32:d8:98:02:d9:dd:01:fe:79:8c:61:
                    18:4c:49:6a:b8:a2:26:ff:a5:a5:74:8e:71:8e:68:
                    e9:ee:40:56:4c:06:c8:be:d5:85:13:31:b8:b1:cb:
                    f3:d6:2e:a7:b5:4a:f3:13:f1:58:e2:7c:34:01:46:
                    4f:73:a0:32:5c:cf:14:f4:f8:5f:48:88:ac:3c:d7:
                    3a:01:8c:38:55:48:1a:10:20:2b:52:ff:fc:d3:9e:
                    f9:e3:7c:c7:cf:5b:14:a6:a6:0e:b7:50:8f:90:b2:
                    71:9f:2a:f9:12:e8:c5:b0:11:f5:2d:78:71:7a:0d:
                    f4:98:e0:13:a9:d0:35:d6:09:6b:1e:6c:f3:03:06:
                    b2:58:07:77:f2:9f:8f:1d:66:a0:76:da:5f:cd:ab:
                    10:a5
                Exponent: 65537 (0x10001)
        X509v3 extensions:
            X509v3 Subject Key Identifier: 
                D5:24:25:D7:9B:5C:2B:8A:6E:FD:E7:EF:D2:FE:51:6A:98:E4:C5:10
            X509v3 Authority Key Identifier: 
                keyid:37:1D:9A:B3:38:2B:C2:B3:A4:55:A9:A3:82:6E:C1:93:53:B0:08:E4
                DirName:/C=US/ST=California/L=Santa Clara/O=pkg5/CN=ta3/emailAddress=ta3
                serial:B6:8C:60:A6:70:E5:3D:44

            X509v3 Basic Constraints: critical
                CA:TRUE
            X509v3 Key Usage: critical
                Certificate Sign, CRL Sign
    Signature Algorithm: sha256WithRSAEncryption
         63:c2:24:10:5f:c9:a0:28:31:e8:4f:40:fc:f3:27:06:27:9b:
         8e:fd:bf:72:7e:67:1a:cd:1a:50:09:ca:78:16:e3:8d:7a:f1:
         86:36:ba:ea:26:3e:74:b9:b4:1b:27:9c:85:3e:4e:2c:ff:15:
         87:be:ec:45:54:98:87:4e:c1:ba:8a:b0:6c:18:38:24:5c:cc:
         41:7e:ab:cc:3f:b5:3f:7f:e7:96:c5:9a:f9:fd:13:54:12:c2:
         f1:53:7a:e3:fd:32:0a:41:2b:60:f0:40:81:06:d1:eb:d6:3e:
         42:fe:d6:ba:6d:11:15:60:d6:55:cb:2e:bd:d1:17:13:93:72:
         46:35:a5:1f:16:f9:b5:4c:69:e4:0b:80:fe:05:47:a8:4f:68:
         af:2a:6c:b2:92:75:c8:4d:f4:bb:30:57:ad:15:84:8e:e2:f0:
         96:2b:06:a6:13:98:5f:e4:98:ae:04:ac:36:2a:52:0c:dc:e0:
         b3:df:b9:92:18:eb:3c:26:b5:d4:41:49:c2:f6:c6:f8:1a:e8:
         22:05:80:03:05:1c:2b:8a:c7:84:24:9a:b4:61:3b:65:36:58:
         79:40:6d:87:41:2f:58:75:64:7a:d4:28:07:ec:0c:1b:4e:53:
         7c:c6:8d:05:8a:94:b1:32:78:99:f0:6e:e6:8d:5b:07:fd:6a:
         6b:94:bd:fd
-----BEGIN CERTIFICATE-----
MIIENzCCAx+gAwIBAgIBEDANBgkqhkiG9w0BAQsFADBpMQswCQYDVQQGEwJVUzET
MBEGA1UECAwKQ2FsaWZvcm5pYTEUMBIGA1UEBwwLU2FudGEgQ2xhcmExDTALBgNV
BAoMBHBrZzUxDDAKBgNVBAMMA3RhMzESMBAGCSqGSIb3DQEJARYDdGEzMB4XDTE4
MDcwMzE0MTQwMFoXDTIxMDMyOTE0MTQwMFowcTELMAkGA1UEBhMCVVMxEzARBgNV
BAgMCkNhbGlmb3JuaWExFDASBgNVBAcMC1NhbnRhIENsYXJhMQ0wCwYDVQQKDARw
a2c1MRAwDgYDVQQDDAdjaDFfdGEzMRYwFAYJKoZIhvcNAQkBFgdjaDFfdGEzMIIB
IjANBgkqhkiG9w0BAQEFAAOCAQ8AMIIBCgKCAQEAy+8V4BMA6Hc5pfSUMKZe4xfU
x6rzTxanUk8j0euyCPXH1xnMzvMRVfJRDBCSGz2T3RheP1mKubsnM0PdXTFD8X5p
w4/dxLkgTyYACuFppo/ZV6ODWhxP5SYiMQSvn4/GHg2Bo/vf4Ic9rB8jMtiYAtnd
Af55jGEYTElquKIm/6WldI5xjmjp7kBWTAbIvtWFEzG4scvz1i6ntUrzE/FY4nw0
AUZPc6AyXM8U9PhfSIisPNc6AYw4VUgaECArUv/8057543zHz1sUpqYOt1CPkLJx
nyr5EujFsBH1LXhxeg30mOATqdA11glrHmzzAwayWAd38p+PHWagdtpfzasQpQID
AQABo4HhMIHeMB0GA1UdDgQWBBTVJCXXm1wrim795+/S/lFqmOTFEDCBmwYDVR0j
BIGTMIGQgBQ3HZqzOCvCs6RVqaOCbsGTU7AI5KFtpGswaTELMAkGA1UEBhMCVVMx
EzARBgNVBAgMCkNhbGlmb3JuaWExFDASBgNVBAcMC1NhbnRhIENsYXJhMQ0wCwYD
VQQKDARwa2c1MQwwCgYDVQQDDAN0YTMxEjAQBgkqhkiG9w0BCQEWA3RhM4IJALaM
YKZw5T1EMA8GA1UdEwEB/wQFMAMBAf8wDgYDVR0PAQH/BAQDAgEGMA0GCSqGSIb3
DQEBCwUAA4IBAQBjwiQQX8mgKDHoT0D88ycGJ5uO/b9yfmcazRpQCcp4FuONevGG
NrrqJj50ubQbJ5yFPk4s/xWHvuxFVJiHTsG6irBsGDgkXMxBfqvMP7U/f+eWxZr5
/RNUEsLxU3rj/TIKQStg8ECBBtHr1j5C/ta6bREVYNZVyy690RcTk3JGNaUfFvm1
TGnkC4D+BUeoT2ivKmyyknXITfS7MFetFYSO4vCWKwamE5hf5JiuBKw2KlIM3OCz
37mSGOs8JrXUQUnC9sb4GugiBYADBRwriseEJJq0YTtlNlh5QG2HQS9YdWR61CgH
7AwbTlN8xo0FipSxMniZ8G7mjVsH/WprlL39
-----END CERTIFICATE-----
