Certificate:
    Data:
        Version: 3 (0x2)
        Serial Number: 26 (0x1a)
    Signature Algorithm: sha256WithRSAEncryption
        Issuer: C=US, ST=California, L=Santa Clara, O=pkg5, CN=ta3/emailAddress=ta3
        Validity
            Not Before: Nov 11 12:38:32 2017 GMT
            Not After : Aug  7 12:38:32 2020 GMT
        Subject: C=US, ST=California, L=Santa Clara, O=pkg5, CN=ch1.1_ta3/emailAddress=ch1.1_ta3
        Subject Public Key Info:
            Public Key Algorithm: rsaEncryption
                Public-Key: (2048 bit)
                Modulus:
                    00:c5:2b:37:b3:b7:cd:ad:8a:5a:6d:50:4a:c1:8f:
                    94:11:21:c8:9c:c2:f6:2e:09:e0:9a:2a:a5:1b:f1:
                    1b:ec:79:03:66:22:00:98:2e:ec:d9:e3:aa:59:e3:
                    b6:f2:9c:f6:14:21:31:47:db:fe:37:d4:41:a9:a5:
                    d5:38:49:4b:f3:dd:08:91:27:2c:f3:ca:f4:f7:00:
                    a1:cc:a8:9a:18:90:5d:0a:37:08:b4:e6:ec:31:a0:
                    e5:9c:b9:3a:4c:12:78:17:2a:1c:53:b5:da:e3:90:
                    7a:26:a2:a5:27:7d:4a:60:5c:ef:13:0c:1d:ef:a5:
                    41:a1:29:be:09:6a:0b:a1:01:8b:9c:ad:c5:b2:5b:
                    2b:0f:50:9e:15:aa:e2:1e:5c:7b:b6:31:85:8a:f9:
                    31:de:2b:c7:e6:90:65:e5:d7:15:41:21:b9:3e:8a:
                    33:3c:6c:00:b5:21:73:3f:34:95:03:47:7f:8b:39:
                    b9:e2:44:a6:4c:c5:f9:61:91:1d:e7:4e:10:e4:8b:
                    f6:ae:bc:1d:22:d9:fc:03:11:7b:a9:f3:1a:3f:a8:
                    1b:89:3c:ce:57:ea:2e:44:11:a2:e3:3f:c5:a0:8b:
                    0e:dc:1e:d3:88:3f:7a:30:5a:a2:a2:9f:e0:84:55:
                    02:3e:a2:61:ea:1a:04:f5:dd:e5:de:7f:6c:46:76:
                    b7:1d
                Exponent: 65537 (0x10001)
        X509v3 extensions:
            X509v3 Basic Constraints: critical
                CA:TRUE
            X509v3 Issuer Alternative Name: critical
                <EMPTY>

    Signature Algorithm: sha256WithRSAEncryption
         73:fa:fc:87:3d:08:57:9f:00:1d:7a:81:8c:9d:a8:ab:b9:8b:
         06:dc:55:11:08:b0:2a:25:54:2e:31:56:65:63:e7:48:38:3f:
         a5:d7:91:d3:52:cb:d3:45:7b:9d:11:27:ce:5d:4b:fa:b9:41:
         00:84:d4:65:5b:c7:e1:55:eb:5a:1a:7a:e0:e7:40:8f:16:17:
         af:ae:1e:9d:6a:16:5a:91:97:31:bd:22:fc:bd:74:a3:41:d9:
         f4:a9:b5:3a:5b:a7:31:7a:7b:39:e7:26:6b:4f:6a:9c:05:b6:
         46:e7:93:bf:ee:ae:0d:63:09:93:8e:f9:1f:ca:f7:04:3b:a9:
         71:79:37:57:dc:0c:c3:e4:ab:6c:89:f4:37:0b:21:c8:db:3a:
         1e:77:ec:05:dd:9a:57:89:9a:55:bb:4a:c2:43:fa:e4:74:0f:
         7d:26:5a:78:f3:20:e7:23:c5:b4:23:59:5b:57:6d:94:27:d1:
         09:e4:9b:7f:e8:91:ef:d5:8d:0d:f5:e2:01:65:7d:b1:6e:5d:
         4e:5a:2e:15:0b:c4:c4:20:04:2f:b2:88:63:42:78:6e:59:ee:
         a6:ed:80:23:5b:e0:a2:82:f0:b9:91:11:28:8d:fc:c8:c5:46:
         c2:47:f6:ea:a9:62:3f:e9:d3:54:98:5c:5f:55:23:47:9c:fb:
         3c:bc:e3:7d
-----BEGIN CERTIFICATE-----
MIIDejCCAmKgAwIBAgIBGjANBgkqhkiG9w0BAQsFADBpMQswCQYDVQQGEwJVUzET
MBEGA1UECAwKQ2FsaWZvcm5pYTEUMBIGA1UEBwwLU2FudGEgQ2xhcmExDTALBgNV
BAoMBHBrZzUxDDAKBgNVBAMMA3RhMzESMBAGCSqGSIb3DQEJARYDdGEzMB4XDTE3
MTExMTEyMzgzMloXDTIwMDgwNzEyMzgzMlowdTELMAkGA1UEBhMCVVMxEzARBgNV
BAgMCkNhbGlmb3JuaWExFDASBgNVBAcMC1NhbnRhIENsYXJhMQ0wCwYDVQQKDARw
a2c1MRIwEAYDVQQDDAljaDEuMV90YTMxGDAWBgkqhkiG9w0BCQEWCWNoMS4xX3Rh
MzCCASIwDQYJKoZIhvcNAQEBBQADggEPADCCAQoCggEBAMUrN7O3za2KWm1QSsGP
lBEhyJzC9i4J4JoqpRvxG+x5A2YiAJgu7NnjqlnjtvKc9hQhMUfb/jfUQaml1ThJ
S/PdCJEnLPPK9PcAocyomhiQXQo3CLTm7DGg5Zy5OkwSeBcqHFO12uOQeiaipSd9
SmBc7xMMHe+lQaEpvglqC6EBi5ytxbJbKw9QnhWq4h5ce7YxhYr5Md4rx+aQZeXX
FUEhuT6KMzxsALUhcz80lQNHf4s5ueJEpkzF+WGRHedOEOSL9q68HSLZ/AMRe6nz
Gj+oG4k8zlfqLkQRouM/xaCLDtwe04g/ejBaoqKf4IRVAj6iYeoaBPXd5d5/bEZ2
tx0CAwEAAaMhMB8wDwYDVR0TAQH/BAUwAwEB/zAMBgNVHRIBAf8EAjAAMA0GCSqG
SIb3DQEBCwUAA4IBAQBz+vyHPQhXnwAdeoGMnairuYsG3FURCLAqJVQuMVZlY+dI
OD+l15HTUsvTRXudESfOXUv6uUEAhNRlW8fhVetaGnrg50CPFhevrh6dahZakZcx
vSL8vXSjQdn0qbU6W6cxens55yZrT2qcBbZG55O/7q4NYwmTjvkfyvcEO6lxeTdX
3AzD5KtsifQ3CyHI2zoed+wF3ZpXiZpVu0rCQ/rkdA99Jlp48yDnI8W0I1lbV22U
J9EJ5Jt/6JHv1Y0N9eIBZX2xbl1OWi4VC8TEIAQvsohjQnhuWe6m7YAjW+CigvC5
kREojfzIxUbCR/bqqWI/6dNUmFxfVSNHnPs8vON9
-----END CERTIFICATE-----
