Certificate:
    Data:
        Version: 3 (0x2)
        Serial Number: 27 (0x1b)
    Signature Algorithm: sha256WithRSAEncryption
        Issuer: C=US, ST=California, L=Santa Clara, O=pkg5, CN=ta3/emailAddress=ta3
        Validity
            Not Before: Jul  3 14:14:01 2018 GMT
            Not After : Mar 29 14:14:01 2021 GMT
        Subject: C=US, ST=California, L=Santa Clara, O=pkg5, CN=ch1.1_ta3/emailAddress=ch1.1_ta3
        Subject Public Key Info:
            Public Key Algorithm: rsaEncryption
                Public-Key: (2048 bit)
                Modulus:
                    00:ca:f0:ee:b6:ef:ee:41:9c:c2:00:02:81:c3:92:
                    90:1e:32:0c:5f:c4:34:37:ad:05:2f:34:54:ff:db:
                    80:fe:42:6a:86:39:06:50:87:7d:6f:b5:43:45:7a:
                    91:45:8a:32:e8:86:d3:29:5c:60:a0:1d:d7:44:25:
                    a4:c7:fa:44:3f:99:9e:02:b7:ee:c4:52:26:b7:b3:
                    d2:3c:59:cd:95:e3:11:15:6b:65:41:5c:4c:b2:fe:
                    7b:fe:b9:e8:cc:62:52:8d:49:32:85:b1:24:7c:51:
                    9d:ec:62:76:22:55:d0:72:92:e8:61:75:68:12:d3:
                    0d:21:0c:b3:1b:1e:d6:ce:6e:76:1a:48:7e:e5:70:
                    12:60:28:f1:de:78:f1:61:cc:ec:d4:37:dc:79:90:
                    c4:f2:6c:50:30:bb:6e:89:59:29:23:d9:8c:c4:4d:
                    39:09:ab:6e:c5:d8:ca:84:9c:29:9e:53:27:41:9d:
                    cf:eb:3b:de:2e:25:c7:fa:9c:51:e5:05:a5:85:af:
                    5a:c0:0b:f9:52:f0:51:15:09:40:82:e2:36:3a:d3:
                    e6:c9:52:bf:28:97:fa:92:2f:aa:5c:81:d7:db:b0:
                    d5:6c:ed:3e:f2:16:6e:3e:5e:0b:ad:01:00:fb:f9:
                    4b:a8:69:7c:70:f2:39:bd:e5:7c:f0:cd:a6:84:d0:
                    b8:35
                Exponent: 65537 (0x10001)
        X509v3 extensions:
            X509v3 Basic Constraints: critical
                CA:TRUE
            X509v3 Issuer Alternative Name: critical
                <EMPTY>

    Signature Algorithm: sha256WithRSAEncryption
         6b:b5:35:29:54:35:20:ce:c2:40:b5:a6:78:07:10:f0:f7:91:
         dc:2f:fb:83:a5:d8:81:d4:c8:fb:76:53:97:b6:72:72:c0:5d:
         4d:27:bb:90:81:59:9a:38:99:39:09:07:35:7b:c2:4f:b4:3b:
         ee:0c:eb:c8:5c:b1:c2:c6:b2:55:47:19:01:92:61:72:01:be:
         75:90:67:ac:fa:dd:e6:57:93:6d:4d:74:53:6a:92:33:09:26:
         d3:c4:a7:ea:15:e0:84:4e:7b:89:1f:45:84:b2:60:9a:0b:5d:
         7f:2d:87:7f:bf:dc:a4:ba:f0:73:d4:90:7c:95:99:95:ea:a8:
         6f:2e:07:19:1e:13:0b:4b:4c:2a:b4:b8:cd:35:23:b1:da:47:
         04:82:c3:b2:d1:f7:d6:62:66:26:7f:76:86:7e:ac:8d:73:09:
         02:3c:a6:2b:ca:53:e4:19:ac:f4:a3:c7:0c:22:5d:95:d9:a3:
         64:dd:80:e5:3b:5f:e8:98:c6:94:42:81:03:e3:07:60:c6:20:
         83:43:a3:1f:d4:ae:93:10:d9:e8:8d:44:37:b8:e6:e3:f9:15:
         f9:3f:10:68:ad:fa:e3:4c:fc:95:0b:c6:e0:25:ec:f1:9e:a4:
         54:34:a9:ef:e3:c9:10:f9:41:c9:d4:cf:d2:93:19:26:90:7a:
         d3:8d:8d:98
-----BEGIN CERTIFICATE-----
MIIDejCCAmKgAwIBAgIBGzANBgkqhkiG9w0BAQsFADBpMQswCQYDVQQGEwJVUzET
MBEGA1UECAwKQ2FsaWZvcm5pYTEUMBIGA1UEBwwLU2FudGEgQ2xhcmExDTALBgNV
BAoMBHBrZzUxDDAKBgNVBAMMA3RhMzESMBAGCSqGSIb3DQEJARYDdGEzMB4XDTE4
MDcwMzE0MTQwMVoXDTIxMDMyOTE0MTQwMVowdTELMAkGA1UEBhMCVVMxEzARBgNV
BAgMCkNhbGlmb3JuaWExFDASBgNVBAcMC1NhbnRhIENsYXJhMQ0wCwYDVQQKDARw
a2c1MRIwEAYDVQQDDAljaDEuMV90YTMxGDAWBgkqhkiG9w0BCQEWCWNoMS4xX3Rh
MzCCASIwDQYJKoZIhvcNAQEBBQADggEPADCCAQoCggEBAMrw7rbv7kGcwgACgcOS
kB4yDF/ENDetBS80VP/bgP5CaoY5BlCHfW+1Q0V6kUWKMuiG0ylcYKAd10QlpMf6
RD+ZngK37sRSJrez0jxZzZXjERVrZUFcTLL+e/656MxiUo1JMoWxJHxRnexidiJV
0HKS6GF1aBLTDSEMsxse1s5udhpIfuVwEmAo8d548WHM7NQ33HmQxPJsUDC7bolZ
KSPZjMRNOQmrbsXYyoScKZ5TJ0Gdz+s73i4lx/qcUeUFpYWvWsAL+VLwURUJQILi
NjrT5slSvyiX+pIvqlyB19uw1WztPvIWbj5eC60BAPv5S6hpfHDyOb3lfPDNpoTQ
uDUCAwEAAaMhMB8wDwYDVR0TAQH/BAUwAwEB/zAMBgNVHRIBAf8EAjAAMA0GCSqG
SIb3DQEBCwUAA4IBAQBrtTUpVDUgzsJAtaZ4BxDw95HcL/uDpdiB1Mj7dlOXtnJy
wF1NJ7uQgVmaOJk5CQc1e8JPtDvuDOvIXLHCxrJVRxkBkmFyAb51kGes+t3mV5Nt
TXRTapIzCSbTxKfqFeCETnuJH0WEsmCaC11/LYd/v9ykuvBz1JB8lZmV6qhvLgcZ
HhMLS0wqtLjNNSOx2kcEgsOy0ffWYmYmf3aGfqyNcwkCPKYrylPkGaz0o8cMIl2V
2aNk3YDlO1/omMaUQoED4wdgxiCDQ6Mf1K6TENnojUQ3uObj+RX5PxBorfrjTPyV
C8bgJezxnqRUNKnv48kQ+UHJ1M/SkxkmkHrTjY2Y
-----END CERTIFICATE-----
