Certificate:
    Data:
        Version: 3 (0x2)
        Serial Number: 27 (0x1b)
    Signature Algorithm: sha256WithRSAEncryption
        Issuer: C=US, ST=California, L=Santa Clara, O=pkg5, CN=ta3/emailAddress=ta3
        Validity
            Not Before: Nov 24 01:22:42 2021 GMT
            Not After : Aug 20 01:22:42 2024 GMT
        Subject: C=US, ST=California, L=Santa Clara, O=pkg5, CN=ch1.1_ta3/emailAddress=ch1.1_ta3
        Subject Public Key Info:
            Public Key Algorithm: rsaEncryption
                Public-Key: (2048 bit)
                Modulus:
                    00:dc:77:d3:46:cb:bc:67:16:e5:c1:92:ca:c8:79:
                    c8:73:5a:dc:67:8f:b0:c3:ef:07:27:9d:9f:b4:9d:
                    81:20:ff:65:66:ba:e3:d1:7f:53:e4:a4:51:c4:85:
                    8f:77:fb:6c:ef:02:d3:ad:0b:a4:c8:85:29:da:41:
                    db:50:a7:c9:91:c6:30:36:5c:12:bc:93:c3:a2:76:
                    e8:d7:fc:04:1b:37:0a:e8:75:f8:3f:c6:a3:92:a8:
                    b5:6a:8e:bd:dd:a8:68:1c:43:85:bc:c3:12:d9:fc:
                    af:ee:d2:61:4a:07:2f:42:70:34:af:bb:34:fa:d3:
                    79:db:b7:fd:93:3f:28:e5:c0:a5:60:38:7c:40:54:
                    7d:f4:fa:c1:b2:af:42:6c:9b:20:33:02:fb:8b:22:
                    b1:5f:fc:eb:49:5f:c9:d8:7d:c3:db:24:0b:4c:f1:
                    40:79:6b:91:04:85:24:6d:68:47:fa:76:6e:c0:c5:
                    09:55:fa:e3:66:ad:d7:30:dc:81:23:ff:0b:73:af:
                    dd:f8:63:2e:45:55:0c:09:a4:f3:a1:08:86:49:fe:
                    d2:3d:5c:52:c5:47:47:55:4c:1b:2e:b0:a9:2b:29:
                    4e:8b:cf:e4:e2:ad:26:6c:77:4e:8e:64:7a:db:cd:
                    10:0c:f0:5a:9e:8b:ba:73:26:2e:05:8f:df:c8:3f:
                    50:b3
                Exponent: 65537 (0x10001)
        X509v3 extensions:
            X509v3 Basic Constraints: critical
                CA:TRUE
            X509v3 Issuer Alternative Name: critical
                <EMPTY>

    Signature Algorithm: sha256WithRSAEncryption
         a8:62:85:bc:4e:77:5f:ef:45:97:58:35:50:25:95:23:b1:95:
         5b:d9:b4:21:b4:9e:65:34:58:db:a8:e9:f2:8a:fc:8c:45:ec:
         0a:30:5d:be:28:9e:ae:9f:84:92:1c:2c:8f:46:f6:88:f6:2e:
         9e:e9:24:bc:d5:2c:bd:83:86:5b:0a:b6:6c:bc:33:9b:b1:3a:
         7e:2e:12:5a:fe:41:dc:5d:87:71:af:9a:7d:37:38:90:6b:bd:
         90:d8:03:94:e9:43:81:40:cf:e2:92:d1:d2:55:39:b9:7f:e8:
         29:70:58:ee:49:e3:51:9a:9e:39:33:ba:4b:ac:8d:88:9e:b3:
         30:ea:a6:c0:56:10:51:e2:e1:85:06:a8:5d:f0:c5:db:68:24:
         cf:ba:87:53:b4:cd:a0:66:c8:52:c5:a8:91:9f:6a:a1:31:a1:
         31:89:e5:f9:76:19:96:eb:ee:1f:7f:8c:8e:b0:30:52:9b:4b:
         79:a0:07:e5:6f:dc:3b:f0:3e:63:38:a3:ce:73:17:5b:9d:4f:
         20:9e:4f:f6:fd:f2:7d:9b:9e:11:5e:5a:09:59:92:b2:aa:81:
         3d:e3:7a:75:08:be:b6:13:1c:3a:8b:0c:6f:b2:0b:81:44:fc:
         df:99:9a:05:b2:86:5c:f4:01:8c:c3:04:e4:a5:74:0e:93:29:
         48:02:13:c3
-----BEGIN CERTIFICATE-----
MIIDejCCAmKgAwIBAgIBGzANBgkqhkiG9w0BAQsFADBpMQswCQYDVQQGEwJVUzET
MBEGA1UECAwKQ2FsaWZvcm5pYTEUMBIGA1UEBwwLU2FudGEgQ2xhcmExDTALBgNV
BAoMBHBrZzUxDDAKBgNVBAMMA3RhMzESMBAGCSqGSIb3DQEJARYDdGEzMB4XDTIx
MTEyNDAxMjI0MloXDTI0MDgyMDAxMjI0MlowdTELMAkGA1UEBhMCVVMxEzARBgNV
BAgMCkNhbGlmb3JuaWExFDASBgNVBAcMC1NhbnRhIENsYXJhMQ0wCwYDVQQKDARw
a2c1MRIwEAYDVQQDDAljaDEuMV90YTMxGDAWBgkqhkiG9w0BCQEWCWNoMS4xX3Rh
MzCCASIwDQYJKoZIhvcNAQEBBQADggEPADCCAQoCggEBANx300bLvGcW5cGSysh5
yHNa3GePsMPvByedn7SdgSD/ZWa649F/U+SkUcSFj3f7bO8C060LpMiFKdpB21Cn
yZHGMDZcEryTw6J26Nf8BBs3Cuh1+D/Go5KotWqOvd2oaBxDhbzDEtn8r+7SYUoH
L0JwNK+7NPrTedu3/ZM/KOXApWA4fEBUffT6wbKvQmybIDMC+4sisV/860lfydh9
w9skC0zxQHlrkQSFJG1oR/p2bsDFCVX642at1zDcgSP/C3Ov3fhjLkVVDAmk86EI
hkn+0j1cUsVHR1VMGy6wqSspTovP5OKtJmx3To5ketvNEAzwWp6LunMmLgWP38g/
ULMCAwEAAaMhMB8wDwYDVR0TAQH/BAUwAwEB/zAMBgNVHRIBAf8EAjAAMA0GCSqG
SIb3DQEBCwUAA4IBAQCoYoW8Tndf70WXWDVQJZUjsZVb2bQhtJ5lNFjbqOnyivyM
RewKMF2+KJ6un4SSHCyPRvaI9i6e6SS81Sy9g4ZbCrZsvDObsTp+LhJa/kHcXYdx
r5p9NziQa72Q2AOU6UOBQM/iktHSVTm5f+gpcFjuSeNRmp45M7pLrI2InrMw6qbA
VhBR4uGFBqhd8MXbaCTPuodTtM2gZshSxaiRn2qhMaExieX5dhmW6+4ff4yOsDBS
m0t5oAflb9w78D5jOKPOcxdbnU8gnk/2/fJ9m54RXloJWZKyqoE943p1CL62Exw6
iwxvsguBRPzfmZoFsoZc9AGMwwTkpXQOkylIAhPD
-----END CERTIFICATE-----
