Certificate:
    Data:
        Version: 3 (0x2)
        Serial Number: 29 (0x1d)
    Signature Algorithm: sha256WithRSAEncryption
        Issuer: C=US, ST=California, L=Santa Clara, O=pkg5, CN=ta3/emailAddress=ta3
        Validity
            Not Before: Jan  1 01:01:01 2009 GMT
            Not After : Jan  2 01:01:01 2009 GMT
        Subject: C=US, ST=California, L=Santa Clara, O=pkg5, CN=ch1.2_ta3/emailAddress=ch1.2_ta3
        Subject Public Key Info:
            Public Key Algorithm: rsaEncryption
                Public-Key: (2048 bit)
                Modulus:
                    00:be:dd:f9:d3:1b:e5:16:5d:b2:da:4a:4a:60:05:
                    20:7e:a9:3f:cc:65:fc:37:6d:ba:1c:88:a0:f3:95:
                    5e:9e:dc:45:7a:de:7e:42:ca:77:a9:03:a0:f5:0c:
                    3e:da:60:5b:60:2f:0a:2c:e8:9f:11:54:6d:09:91:
                    21:7f:25:b8:33:d1:64:bd:e5:97:24:51:d2:f5:1e:
                    d5:07:ce:4c:d0:16:ef:66:ac:eb:fa:2a:d9:b8:d7:
                    a5:73:66:68:59:9e:1d:20:a7:3b:2f:60:bc:61:bf:
                    d5:c8:21:af:3f:b4:1d:77:ff:f4:fd:af:f4:e0:95:
                    5d:e9:71:c6:f7:72:02:f4:b4:f4:2a:cf:69:fa:91:
                    e6:c2:63:42:6f:db:c4:bc:40:3c:c9:e5:10:97:e8:
                    f3:e0:93:60:18:3d:71:47:75:90:57:e4:ab:bc:0a:
                    d9:99:15:16:c0:fe:00:52:82:25:86:34:0c:94:3d:
                    0f:7d:ef:7f:47:25:ec:06:19:53:bf:c0:17:06:3b:
                    7b:56:32:02:43:a8:a1:1f:aa:b0:fe:62:7d:d5:bf:
                    fd:24:aa:45:1a:bd:17:75:81:ed:50:77:37:e7:f4:
                    9d:d1:81:db:7b:36:a9:85:82:b5:5a:9e:a3:b0:52:
                    23:35:54:45:c5:92:00:51:a4:58:b8:2b:23:19:79:
                    85:51
                Exponent: 65537 (0x10001)
        X509v3 extensions:
            X509v3 Subject Key Identifier: 
                59:E7:A3:01:BF:D4:00:DD:09:0C:98:4B:1E:5A:72:EF:56:13:34:C1
            X509v3 Authority Key Identifier: 
                keyid:37:1D:9A:B3:38:2B:C2:B3:A4:55:A9:A3:82:6E:C1:93:53:B0:08:E4
                DirName:/C=US/ST=California/L=Santa Clara/O=pkg5/CN=ta3/emailAddress=ta3
                serial:B6:8C:60:A6:70:E5:3D:44

            X509v3 Basic Constraints: critical
                CA:TRUE
            X509v3 Key Usage: critical
                Certificate Sign, CRL Sign
    Signature Algorithm: sha256WithRSAEncryption
         1c:df:f5:af:29:d8:bd:86:3f:d5:32:91:a3:3e:c4:fe:71:04:
         f2:9f:09:f6:5b:58:c3:d8:e0:8c:fc:79:99:ca:b8:91:05:5c:
         e3:68:93:44:bb:44:ca:79:0d:a5:d6:85:40:66:ec:4f:fd:d2:
         d9:39:07:61:25:e0:15:9e:6a:eb:5a:e5:5d:1d:51:4e:4e:3f:
         19:7b:9e:99:a9:5c:b9:bc:60:be:dc:96:fb:34:83:ce:b5:e3:
         43:d8:dd:fc:7e:00:a7:8a:20:00:91:a4:4f:34:1d:b5:f9:e4:
         8d:60:3b:a8:8a:6c:c7:ca:41:a7:c6:15:eb:20:90:6d:bd:8e:
         95:63:bb:77:d9:5f:6a:0c:25:89:87:d5:9a:a0:d3:96:24:b0:
         58:d3:ee:ac:a7:28:cf:9e:58:e3:ea:87:94:c4:af:3a:87:83:
         bd:11:b8:9a:ed:68:09:61:59:b2:e9:cb:96:15:79:4a:30:48:
         05:aa:50:33:45:e7:16:0e:b6:2f:1a:90:40:32:a0:ed:8e:04:
         cf:46:98:d6:9f:5b:3e:23:d7:2b:92:d3:0f:0d:9f:27:ad:35:
         4b:43:4d:f1:0a:9f:41:e4:33:d2:d4:05:05:e9:b1:b9:f5:3c:
         69:18:95:6c:76:32:98:18:ee:c0:1a:76:4a:74:7e:ec:4e:d4:
         d8:b9:23:5b
-----BEGIN CERTIFICATE-----
MIIEOzCCAyOgAwIBAgIBHTANBgkqhkiG9w0BAQsFADBpMQswCQYDVQQGEwJVUzET
MBEGA1UECAwKQ2FsaWZvcm5pYTEUMBIGA1UEBwwLU2FudGEgQ2xhcmExDTALBgNV
BAoMBHBrZzUxDDAKBgNVBAMMA3RhMzESMBAGCSqGSIb3DQEJARYDdGEzMB4XDTA5
MDEwMTAxMDEwMVoXDTA5MDEwMjAxMDEwMVowdTELMAkGA1UEBhMCVVMxEzARBgNV
BAgMCkNhbGlmb3JuaWExFDASBgNVBAcMC1NhbnRhIENsYXJhMQ0wCwYDVQQKDARw
a2c1MRIwEAYDVQQDDAljaDEuMl90YTMxGDAWBgkqhkiG9w0BCQEWCWNoMS4yX3Rh
MzCCASIwDQYJKoZIhvcNAQEBBQADggEPADCCAQoCggEBAL7d+dMb5RZdstpKSmAF
IH6pP8xl/DdtuhyIoPOVXp7cRXrefkLKd6kDoPUMPtpgW2AvCizonxFUbQmRIX8l
uDPRZL3llyRR0vUe1QfOTNAW72as6/oq2bjXpXNmaFmeHSCnOy9gvGG/1cghrz+0
HXf/9P2v9OCVXelxxvdyAvS09CrPafqR5sJjQm/bxLxAPMnlEJfo8+CTYBg9cUd1
kFfkq7wK2ZkVFsD+AFKCJYY0DJQ9D33vf0cl7AYZU7/AFwY7e1YyAkOooR+qsP5i
fdW//SSqRRq9F3WB7VB3N+f0ndGB23s2qYWCtVqeo7BSIzVURcWSAFGkWLgrIxl5
hVECAwEAAaOB4TCB3jAdBgNVHQ4EFgQUWeejAb/UAN0JDJhLHlpy71YTNMEwgZsG
A1UdIwSBkzCBkIAUNx2aszgrwrOkVamjgm7Bk1OwCOShbaRrMGkxCzAJBgNVBAYT
AlVTMRMwEQYDVQQIDApDYWxpZm9ybmlhMRQwEgYDVQQHDAtTYW50YSBDbGFyYTEN
MAsGA1UECgwEcGtnNTEMMAoGA1UEAwwDdGEzMRIwEAYJKoZIhvcNAQkBFgN0YTOC
CQC2jGCmcOU9RDAPBgNVHRMBAf8EBTADAQH/MA4GA1UdDwEB/wQEAwIBBjANBgkq
hkiG9w0BAQsFAAOCAQEAHN/1rynYvYY/1TKRoz7E/nEE8p8J9ltYw9jgjPx5mcq4
kQVc42iTRLtEynkNpdaFQGbsT/3S2TkHYSXgFZ5q61rlXR1RTk4/GXuemalcubxg
vtyW+zSDzrXjQ9jd/H4Ap4ogAJGkTzQdtfnkjWA7qIpsx8pBp8YV6yCQbb2OlWO7
d9lfagwliYfVmqDTliSwWNPurKcoz55Y4+qHlMSvOoeDvRG4mu1oCWFZsunLlhV5
SjBIBapQM0XnFg62LxqQQDKg7Y4Ez0aY1p9bPiPXK5LTDw2fJ601S0NN8QqfQeQz
0tQFBemxufU8aRiVbHYymBjuwBp2SnR+7E7U2LkjWw==
-----END CERTIFICATE-----
