Certificate:
    Data:
        Version: 3 (0x2)
        Serial Number: 31 (0x1f)
    Signature Algorithm: sha256WithRSAEncryption
        Issuer: C=US, ST=California, L=Santa Clara, O=pkg5, CN=ta3/emailAddress=ta3
        Validity
            Not Before: Jan  1 01:01:01 2035 GMT
            Not After : Jan  2 01:01:01 2035 GMT
        Subject: C=US, ST=California, L=Santa Clara, O=pkg5, CN=ch1.3_ta3/emailAddress=ch1.3_ta3
        Subject Public Key Info:
            Public Key Algorithm: rsaEncryption
                Public-Key: (2048 bit)
                Modulus:
                    00:cf:76:9e:24:2a:49:90:a2:01:d5:df:7d:e5:e4:
                    24:db:69:70:11:3d:5d:7d:d8:bf:77:ba:d2:1c:d1:
                    26:62:8b:2e:23:e6:3a:41:51:14:84:ea:b3:aa:69:
                    08:88:bd:5b:e2:cb:53:5a:b3:57:09:64:4f:96:0f:
                    92:45:04:00:3a:76:0b:b1:b5:7a:71:4d:73:fc:cd:
                    b0:93:53:02:b7:77:bf:b5:93:ce:3f:26:17:05:41:
                    09:e8:fb:e7:fc:81:1b:d4:54:e4:f0:9a:0a:1c:ec:
                    6e:09:61:d6:34:a4:73:fa:3a:cd:d6:4f:c1:6d:08:
                    c8:8d:3a:cd:45:42:b0:3f:9e:86:3d:b7:26:03:4f:
                    d9:96:b0:3c:5f:76:4b:41:ad:ea:bc:00:ab:9d:86:
                    f7:8e:77:55:b3:50:f9:1c:fc:9c:1a:b4:ff:5d:65:
                    7b:d7:e6:28:ec:0f:c6:1c:14:2a:e0:44:cf:1d:5f:
                    fd:69:f6:86:b2:a7:6a:86:13:16:9e:bc:d8:51:f9:
                    24:28:66:b6:cb:3c:d6:a7:f0:00:0a:1f:7c:c8:c2:
                    a9:ea:4a:52:ce:09:52:a4:fa:4e:15:a4:36:67:84:
                    f2:bf:fa:8c:1c:60:1e:74:a1:36:c3:35:0c:9a:40:
                    04:8c:cc:f6:92:8f:1a:01:10:a7:30:de:70:97:ed:
                    07:35
                Exponent: 65537 (0x10001)
        X509v3 extensions:
            X509v3 Subject Key Identifier: 
                F6:B8:91:66:FE:0A:82:9C:77:B0:A0:62:08:F0:33:77:FB:11:D3:47
            X509v3 Authority Key Identifier: 
                keyid:37:1D:9A:B3:38:2B:C2:B3:A4:55:A9:A3:82:6E:C1:93:53:B0:08:E4
                DirName:/C=US/ST=California/L=Santa Clara/O=pkg5/CN=ta3/emailAddress=ta3
                serial:B6:8C:60:A6:70:E5:3D:44

            X509v3 Basic Constraints: critical
                CA:TRUE
            X509v3 Key Usage: critical
                Certificate Sign, CRL Sign
    Signature Algorithm: sha256WithRSAEncryption
         2e:7e:2c:20:fc:a1:4e:26:04:62:32:b7:5f:06:ed:14:7e:c2:
         c0:11:df:f6:a0:d9:7b:9e:32:7d:ef:a5:d9:50:85:f6:2d:bb:
         a2:b5:77:b2:a9:58:98:80:22:65:c9:8e:e4:0b:6d:60:df:61:
         df:35:a3:69:1a:86:35:91:13:f1:41:c0:e2:87:a4:dd:21:b3:
         75:30:cd:b7:1e:99:02:f4:e9:cb:ba:4d:92:32:b2:17:27:47:
         9c:c4:26:99:99:90:01:ad:cc:26:6f:28:e9:8c:4f:93:34:7d:
         51:20:07:e0:a3:ac:3d:35:47:aa:3d:d3:72:c1:0e:9a:9a:f0:
         67:84:da:1f:ae:0c:41:4d:0f:f8:33:b9:c6:46:d5:6f:f8:0d:
         e9:af:18:83:a6:30:34:4c:4e:87:1e:4e:b2:6e:7a:41:ec:a7:
         35:b5:88:70:43:66:23:e5:68:f4:a0:ea:64:3d:b8:3b:df:b9:
         0e:db:cc:81:17:71:35:08:89:62:e3:a1:93:31:ef:09:05:ee:
         27:e8:43:5f:5b:05:41:ff:1b:aa:11:97:be:9a:89:2c:56:2d:
         fc:f5:eb:cf:1b:c1:c0:1b:60:4f:bd:c7:c7:4c:24:bd:79:40:
         e4:07:30:da:b3:c3:61:85:67:ef:b4:30:37:12:c6:67:b0:74:
         6f:99:d6:e1
-----BEGIN CERTIFICATE-----
MIIEOzCCAyOgAwIBAgIBHzANBgkqhkiG9w0BAQsFADBpMQswCQYDVQQGEwJVUzET
MBEGA1UECAwKQ2FsaWZvcm5pYTEUMBIGA1UEBwwLU2FudGEgQ2xhcmExDTALBgNV
BAoMBHBrZzUxDDAKBgNVBAMMA3RhMzESMBAGCSqGSIb3DQEJARYDdGEzMB4XDTM1
MDEwMTAxMDEwMVoXDTM1MDEwMjAxMDEwMVowdTELMAkGA1UEBhMCVVMxEzARBgNV
BAgMCkNhbGlmb3JuaWExFDASBgNVBAcMC1NhbnRhIENsYXJhMQ0wCwYDVQQKDARw
a2c1MRIwEAYDVQQDDAljaDEuM190YTMxGDAWBgkqhkiG9w0BCQEWCWNoMS4zX3Rh
MzCCASIwDQYJKoZIhvcNAQEBBQADggEPADCCAQoCggEBAM92niQqSZCiAdXffeXk
JNtpcBE9XX3Yv3e60hzRJmKLLiPmOkFRFITqs6ppCIi9W+LLU1qzVwlkT5YPkkUE
ADp2C7G1enFNc/zNsJNTArd3v7WTzj8mFwVBCej75/yBG9RU5PCaChzsbglh1jSk
c/o6zdZPwW0IyI06zUVCsD+ehj23JgNP2ZawPF92S0Gt6rwAq52G9453VbNQ+Rz8
nBq0/11le9fmKOwPxhwUKuBEzx1f/Wn2hrKnaoYTFp682FH5JChmtss81qfwAAof
fMjCqepKUs4JUqT6ThWkNmeE8r/6jBxgHnShNsM1DJpABIzM9pKPGgEQpzDecJft
BzUCAwEAAaOB4TCB3jAdBgNVHQ4EFgQU9riRZv4Kgpx3sKBiCPAzd/sR00cwgZsG
A1UdIwSBkzCBkIAUNx2aszgrwrOkVamjgm7Bk1OwCOShbaRrMGkxCzAJBgNVBAYT
AlVTMRMwEQYDVQQIDApDYWxpZm9ybmlhMRQwEgYDVQQHDAtTYW50YSBDbGFyYTEN
MAsGA1UECgwEcGtnNTEMMAoGA1UEAwwDdGEzMRIwEAYJKoZIhvcNAQkBFgN0YTOC
CQC2jGCmcOU9RDAPBgNVHRMBAf8EBTADAQH/MA4GA1UdDwEB/wQEAwIBBjANBgkq
hkiG9w0BAQsFAAOCAQEALn4sIPyhTiYEYjK3XwbtFH7CwBHf9qDZe54yfe+l2VCF
9i27orV3sqlYmIAiZcmO5AttYN9h3zWjaRqGNZET8UHA4oek3SGzdTDNtx6ZAvTp
y7pNkjKyFydHnMQmmZmQAa3MJm8o6YxPkzR9USAH4KOsPTVHqj3TcsEOmprwZ4Ta
H64MQU0P+DO5xkbVb/gN6a8Yg6YwNExOhx5Osm56QeynNbWIcENmI+Vo9KDqZD24
O9+5DtvMgRdxNQiJYuOhkzHvCQXuJ+hDX1sFQf8bqhGXvpqJLFYt/PXrzxvBwBtg
T73Hx0wkvXlA5Acw2rPDYYVn77QwNxLGZ7B0b5nW4Q==
-----END CERTIFICATE-----
