Certificate:
    Data:
        Version: 3 (0x2)
        Serial Number: 31 (0x1f)
    Signature Algorithm: sha256WithRSAEncryption
        Issuer: C=US, ST=California, L=Santa Clara, O=pkg5, CN=ta3/emailAddress=ta3
        Validity
            Not Before: Jan  1 01:01:01 2035 GMT
            Not After : Jan  2 01:01:01 2035 GMT
        Subject: C=US, ST=California, L=Santa Clara, O=pkg5, CN=ch1.3_ta3/emailAddress=ch1.3_ta3
        Subject Public Key Info:
            Public Key Algorithm: rsaEncryption
                Public-Key: (2048 bit)
                Modulus:
                    00:aa:1e:e1:7b:20:f0:27:21:7f:06:69:78:29:64:
                    df:f8:8d:f4:1f:2a:82:48:af:e8:ee:a0:6f:5c:48:
                    dc:5b:e2:6c:a3:18:a8:b0:1a:a9:20:36:05:1a:5a:
                    61:29:4a:bc:a8:13:f9:ad:35:be:24:b1:bd:a9:d8:
                    4b:68:89:de:73:b4:01:d9:5d:0c:1f:1c:ca:68:1e:
                    64:41:11:0f:bd:a3:c1:dd:40:c5:8b:0d:95:dc:8b:
                    ce:ce:55:14:59:02:d6:55:93:f7:7a:96:b0:20:01:
                    0d:b9:ff:b5:c9:32:a7:74:66:eb:a0:81:af:bd:43:
                    a0:1f:ac:13:d7:b7:3b:49:44:fd:e2:be:2e:e2:a5:
                    34:38:a4:86:6f:7a:28:55:39:56:43:8d:fa:78:0e:
                    94:4f:2b:f7:25:70:e7:e8:fb:18:74:58:57:73:96:
                    27:7b:0a:57:82:cd:2c:b1:08:e7:6e:31:fc:b9:df:
                    aa:b7:a4:65:3f:81:90:ce:19:95:b9:f7:44:e0:1d:
                    13:ae:ec:7e:8c:8c:bb:8e:32:6f:13:64:c7:a1:6c:
                    ce:a4:0b:3a:88:3a:76:ee:44:36:d7:38:6f:5d:03:
                    12:ce:1b:49:ef:72:38:bf:d2:62:7f:22:f2:73:ed:
                    d3:87:ee:fa:07:31:ef:0e:cd:94:31:5a:e3:9d:f4:
                    56:83
                Exponent: 65537 (0x10001)
        X509v3 extensions:
            X509v3 Subject Key Identifier: 
                60:EC:A4:DC:66:19:5F:4E:03:FD:6C:90:3C:EB:C9:A4:D4:BB:05:6B
            X509v3 Authority Key Identifier: 
                keyid:4C:EE:7A:92:F7:45:DA:A1:2E:59:D7:E3:23:97:1A:D5:42:CD:2D:5D
                DirName:/C=US/ST=California/L=Santa Clara/O=pkg5/CN=ta3/emailAddress=ta3
                serial:A8:47:DE:86:A2:39:3F:56

            X509v3 Basic Constraints: critical
                CA:TRUE
            X509v3 Key Usage: critical
                Certificate Sign, CRL Sign
    Signature Algorithm: sha256WithRSAEncryption
         13:96:e9:44:4c:15:a1:1f:e0:6a:4b:65:90:a2:64:8c:97:61:
         91:be:6f:b5:d6:a3:7c:de:dc:b4:3e:0e:84:9f:5d:c3:6b:cb:
         03:25:e8:fb:70:29:ca:4f:c9:48:51:f0:78:18:8c:03:ef:fe:
         46:ba:0c:d1:c4:ee:3a:92:d1:13:4d:aa:47:ad:b1:7f:aa:82:
         3e:b4:95:7e:4b:ad:ef:90:24:48:4e:58:87:7a:3e:ea:93:e8:
         86:cc:f6:cb:f7:e5:37:33:c0:38:9f:e4:d5:e8:4a:38:6f:ac:
         94:a5:e0:66:89:25:da:90:70:c0:4b:c7:2e:af:f2:63:43:21:
         ec:d9:e1:51:6b:5d:bb:1d:0d:21:6f:56:ea:be:12:42:74:9b:
         ff:2e:92:59:81:7f:5d:78:c2:db:c5:1b:0f:3f:34:bb:aa:d3:
         55:73:0d:28:a4:94:b7:56:a3:73:1c:30:30:b8:fd:a6:ef:c2:
         99:60:87:bd:45:45:ee:c7:8b:69:03:da:bd:8e:76:ae:97:36:
         43:fc:5a:a1:1b:ec:2a:45:fa:1f:48:95:6b:ec:40:7a:13:12:
         49:b9:c0:9b:b8:be:a2:fe:54:66:f0:9d:61:c9:8b:e6:8d:a7:
         2a:0c:f3:eb:aa:7b:79:68:3f:a5:6a:e2:51:ad:bd:93:d8:33:
         70:92:5f:46
-----BEGIN CERTIFICATE-----
MIIEOzCCAyOgAwIBAgIBHzANBgkqhkiG9w0BAQsFADBpMQswCQYDVQQGEwJVUzET
MBEGA1UECAwKQ2FsaWZvcm5pYTEUMBIGA1UEBwwLU2FudGEgQ2xhcmExDTALBgNV
BAoMBHBrZzUxDDAKBgNVBAMMA3RhMzESMBAGCSqGSIb3DQEJARYDdGEzMB4XDTM1
MDEwMTAxMDEwMVoXDTM1MDEwMjAxMDEwMVowdTELMAkGA1UEBhMCVVMxEzARBgNV
BAgMCkNhbGlmb3JuaWExFDASBgNVBAcMC1NhbnRhIENsYXJhMQ0wCwYDVQQKDARw
a2c1MRIwEAYDVQQDDAljaDEuM190YTMxGDAWBgkqhkiG9w0BCQEWCWNoMS4zX3Rh
MzCCASIwDQYJKoZIhvcNAQEBBQADggEPADCCAQoCggEBAKoe4Xsg8CchfwZpeClk
3/iN9B8qgkiv6O6gb1xI3FvibKMYqLAaqSA2BRpaYSlKvKgT+a01viSxvanYS2iJ
3nO0AdldDB8cymgeZEERD72jwd1AxYsNldyLzs5VFFkC1lWT93qWsCABDbn/tcky
p3Rm66CBr71DoB+sE9e3O0lE/eK+LuKlNDikhm96KFU5VkON+ngOlE8r9yVw5+j7
GHRYV3OWJ3sKV4LNLLEI524x/LnfqrekZT+BkM4Zlbn3ROAdE67sfoyMu44ybxNk
x6FszqQLOog6du5ENtc4b10DEs4bSe9yOL/SYn8i8nPt04fu+gcx7w7NlDFa4530
VoMCAwEAAaOB4TCB3jAdBgNVHQ4EFgQUYOyk3GYZX04D/WyQPOvJpNS7BWswgZsG
A1UdIwSBkzCBkIAUTO56kvdF2qEuWdfjI5ca1ULNLV2hbaRrMGkxCzAJBgNVBAYT
AlVTMRMwEQYDVQQIDApDYWxpZm9ybmlhMRQwEgYDVQQHDAtTYW50YSBDbGFyYTEN
MAsGA1UECgwEcGtnNTEMMAoGA1UEAwwDdGEzMRIwEAYJKoZIhvcNAQkBFgN0YTOC
CQCoR96Gojk/VjAPBgNVHRMBAf8EBTADAQH/MA4GA1UdDwEB/wQEAwIBBjANBgkq
hkiG9w0BAQsFAAOCAQEAE5bpREwVoR/gaktlkKJkjJdhkb5vtdajfN7ctD4OhJ9d
w2vLAyXo+3Apyk/JSFHweBiMA+/+RroM0cTuOpLRE02qR62xf6qCPrSVfkut75Ak
SE5Yh3o+6pPohsz2y/flNzPAOJ/k1ehKOG+slKXgZokl2pBwwEvHLq/yY0Mh7Nnh
UWtdux0NIW9W6r4SQnSb/y6SWYF/XXjC28UbDz80u6rTVXMNKKSUt1ajcxwwMLj9
pu/CmWCHvUVF7seLaQPavY52rpc2Q/xaoRvsKkX6H0iVa+xAehMSSbnAm7i+ov5U
ZvCdYcmL5o2nKgzz66p7eWg/pWriUa29k9gzcJJfRg==
-----END CERTIFICATE-----
