Certificate:
    Data:
        Version: 3 (0x2)
        Serial Number: 33 (0x21)
    Signature Algorithm: sha256WithRSAEncryption
        Issuer: C=US, ST=California, L=Santa Clara, O=pkg5, CN=ta3/emailAddress=ta3
        Validity
            Not Before: Jan  1 01:01:01 2035 GMT
            Not After : Jan  2 01:01:01 2035 GMT
        Subject: C=US, ST=California, L=Santa Clara, O=pkg5, CN=ch1.4_ta3/emailAddress=ch1.4_ta3
        Subject Public Key Info:
            Public Key Algorithm: rsaEncryption
                Public-Key: (2048 bit)
                Modulus:
                    00:ef:80:67:3f:85:18:d8:97:65:4e:a9:55:7b:d8:
                    52:c9:d1:44:ec:ff:98:7f:4f:7a:5c:f1:90:5d:37:
                    79:a2:2a:5a:5a:5c:2c:fc:99:33:e5:35:96:12:20:
                    1c:b5:b6:97:31:47:89:a8:6d:cc:79:cd:42:f5:db:
                    98:31:97:f2:25:cd:d0:74:56:81:8e:13:bf:c8:6a:
                    49:fb:78:79:19:01:f9:af:cb:2f:3c:b2:c0:15:ac:
                    7f:32:f9:b7:b6:91:9f:ed:4c:06:f7:8e:32:35:8d:
                    5d:e9:95:31:3d:95:5b:1c:bd:28:7f:94:3c:24:c0:
                    a3:06:bb:b1:1c:fc:2e:6f:79:52:11:e8:8c:07:3c:
                    a2:3c:6f:33:61:93:94:60:2f:2a:63:18:fd:21:f6:
                    71:db:c3:89:b4:84:d8:7c:75:54:5f:30:e5:a4:49:
                    5c:2d:54:43:e9:fa:d8:0f:1e:78:bd:90:c1:c5:a6:
                    18:97:cb:27:df:1c:7f:e0:c2:90:9b:d4:88:2f:3c:
                    54:ca:34:3c:b6:d9:9a:70:4d:86:ba:7b:23:36:a7:
                    7b:0b:06:e8:d9:d9:83:4f:96:ea:50:4a:47:a6:4c:
                    e7:e1:c4:8f:42:20:41:b6:03:99:5a:86:1d:96:c6:
                    53:31:24:6a:ef:d0:27:1c:21:14:61:b1:21:6e:50:
                    92:43
                Exponent: 65537 (0x10001)
        X509v3 extensions:
            X509v3 Subject Key Identifier: 
                D7:56:D8:04:09:C8:C8:C5:EC:48:4B:BB:0B:51:0E:04:14:40:C4:B1
            X509v3 Authority Key Identifier: 
                keyid:37:1D:9A:B3:38:2B:C2:B3:A4:55:A9:A3:82:6E:C1:93:53:B0:08:E4
                DirName:/C=US/ST=California/L=Santa Clara/O=pkg5/CN=ta3/emailAddress=ta3
                serial:B6:8C:60:A6:70:E5:3D:44

            X509v3 Basic Constraints: critical
                CA:TRUE
    Signature Algorithm: sha256WithRSAEncryption
         66:fa:b3:13:f2:7a:13:86:e9:4c:95:11:3b:3f:9f:b2:be:0e:
         19:ed:7a:f9:69:5c:74:c6:9a:8c:a3:7a:cd:b4:c8:27:7e:ca:
         c8:e1:46:e1:05:4e:84:68:8a:cf:48:f1:57:8e:a4:40:d2:fb:
         29:29:9d:0d:48:23:40:ad:8d:34:c7:5c:f1:69:5d:98:13:51:
         a2:7f:0f:30:41:fe:e9:d6:da:60:dd:15:4d:9c:0f:1d:de:a1:
         e5:19:43:ce:e3:49:b0:04:e7:ef:42:30:a6:90:fe:0a:cf:da:
         05:63:56:9e:f7:ad:c0:db:9f:b8:09:99:76:16:7a:d1:63:2d:
         1f:20:b7:71:f2:b5:ca:d7:a6:9c:dc:06:6a:cd:dc:78:b7:36:
         b6:3e:db:0b:85:b0:f9:fe:e1:39:fb:9a:5d:3a:ea:b3:b8:b5:
         48:8e:51:fd:48:4f:00:33:63:0c:4f:9f:9f:c1:59:80:e1:77:
         98:07:65:94:1e:bf:f3:c3:4f:df:02:99:9f:20:a8:fe:fc:e4:
         b0:22:6f:03:e2:23:e4:53:a3:8d:83:3d:1b:ab:64:f7:fa:e4:
         f8:95:aa:67:07:7e:b9:fb:1b:85:e8:b2:c3:25:4a:ed:2d:cb:
         01:5e:75:33:21:6d:64:5d:b3:48:fa:6e:34:12:d9:2e:e3:c3:
         22:80:2f:3e
-----BEGIN CERTIFICATE-----
MIIEKzCCAxOgAwIBAgIBITANBgkqhkiG9w0BAQsFADBpMQswCQYDVQQGEwJVUzET
MBEGA1UECAwKQ2FsaWZvcm5pYTEUMBIGA1UEBwwLU2FudGEgQ2xhcmExDTALBgNV
BAoMBHBrZzUxDDAKBgNVBAMMA3RhMzESMBAGCSqGSIb3DQEJARYDdGEzMB4XDTM1
MDEwMTAxMDEwMVoXDTM1MDEwMjAxMDEwMVowdTELMAkGA1UEBhMCVVMxEzARBgNV
BAgMCkNhbGlmb3JuaWExFDASBgNVBAcMC1NhbnRhIENsYXJhMQ0wCwYDVQQKDARw
a2c1MRIwEAYDVQQDDAljaDEuNF90YTMxGDAWBgkqhkiG9w0BCQEWCWNoMS40X3Rh
MzCCASIwDQYJKoZIhvcNAQEBBQADggEPADCCAQoCggEBAO+AZz+FGNiXZU6pVXvY
UsnRROz/mH9PelzxkF03eaIqWlpcLPyZM+U1lhIgHLW2lzFHiahtzHnNQvXbmDGX
8iXN0HRWgY4Tv8hqSft4eRkB+a/LLzyywBWsfzL5t7aRn+1MBveOMjWNXemVMT2V
Wxy9KH+UPCTAowa7sRz8Lm95UhHojAc8ojxvM2GTlGAvKmMY/SH2cdvDibSE2Hx1
VF8w5aRJXC1UQ+n62A8eeL2QwcWmGJfLJ98cf+DCkJvUiC88VMo0PLbZmnBNhrp7
IzanewsG6NnZg0+W6lBKR6ZM5+HEj0IgQbYDmVqGHZbGUzEkau/QJxwhFGGxIW5Q
kkMCAwEAAaOB0TCBzjAdBgNVHQ4EFgQU11bYBAnIyMXsSEu7C1EOBBRAxLEwgZsG
A1UdIwSBkzCBkIAUNx2aszgrwrOkVamjgm7Bk1OwCOShbaRrMGkxCzAJBgNVBAYT
AlVTMRMwEQYDVQQIDApDYWxpZm9ybmlhMRQwEgYDVQQHDAtTYW50YSBDbGFyYTEN
MAsGA1UECgwEcGtnNTEMMAoGA1UEAwwDdGEzMRIwEAYJKoZIhvcNAQkBFgN0YTOC
CQC2jGCmcOU9RDAPBgNVHRMBAf8EBTADAQH/MA0GCSqGSIb3DQEBCwUAA4IBAQBm
+rMT8noThulMlRE7P5+yvg4Z7Xr5aVx0xpqMo3rNtMgnfsrI4UbhBU6EaIrPSPFX
jqRA0vspKZ0NSCNArY00x1zxaV2YE1Gifw8wQf7p1tpg3RVNnA8d3qHlGUPO40mw
BOfvQjCmkP4Kz9oFY1ae963A25+4CZl2FnrRYy0fILdx8rXK16ac3AZqzdx4tza2
PtsLhbD5/uE5+5pdOuqzuLVIjlH9SE8AM2MMT5+fwVmA4XeYB2WUHr/zw0/fApmf
IKj+/OSwIm8D4iPkU6ONgz0bq2T3+uT4lapnB365+xuF6LLDJUrtLcsBXnUzIW1k
XbNI+m40Etku48MigC8+
-----END CERTIFICATE-----
