Certificate:
    Data:
        Version: 3 (0x2)
        Serial Number: 35 (0x23)
    Signature Algorithm: sha256WithRSAEncryption
        Issuer: C=US, ST=California, L=Santa Clara, O=pkg5, CN=ta4/emailAddress=ta4
        Validity
            Not Before: Jul  3 14:14:03 2018 GMT
            Not After : Mar 29 14:14:03 2021 GMT
        Subject: C=US, ST=California, L=Santa Clara, O=pkg5, CN=ch1_ta4/emailAddress=ch1_ta4
        Subject Public Key Info:
            Public Key Algorithm: rsaEncryption
                Public-Key: (2048 bit)
                Modulus:
                    00:b4:c1:5a:5d:12:5a:e8:bb:25:fb:b4:4a:89:69:
                    6f:3c:d8:cb:0a:47:72:2c:e7:e2:64:26:10:78:42:
                    c3:d5:95:3d:ea:65:a9:d1:01:00:17:b7:62:34:b1:
                    2c:9a:25:e9:ca:a6:d5:19:12:2c:ca:aa:8e:c7:6e:
                    79:2b:6e:b6:fc:5d:a1:b0:72:80:87:2b:bd:84:72:
                    f3:54:11:92:a8:b7:36:6b:07:6e:be:85:7d:aa:4a:
                    b8:9c:72:ba:f6:57:a6:ad:19:b6:45:7a:9c:64:44:
                    96:b0:1e:ef:8c:92:6c:d0:ed:92:94:0f:b6:47:98:
                    46:a4:98:4c:4c:33:13:a5:70:c9:7c:2e:34:8f:11:
                    56:40:a3:d8:75:7a:a3:62:17:ba:b4:4a:6e:71:cc:
                    63:c2:03:7e:d9:55:02:76:3a:4a:8a:35:71:d7:86:
                    cc:4a:d3:ee:ad:36:9c:33:da:20:ce:10:fd:a4:e7:
                    0b:4c:bc:43:bb:d3:c1:37:49:a6:3b:cc:9b:3f:ae:
                    25:1f:37:53:6a:66:d2:fb:ca:a4:cd:25:1c:82:df:
                    b1:f1:27:27:c9:b0:c4:68:42:ed:5a:92:17:97:1d:
                    09:0d:04:02:89:1c:65:6b:f6:88:70:f4:49:b6:3c:
                    50:98:6f:bc:42:58:9f:6c:8a:5f:18:17:19:52:5c:
                    6f:6d
                Exponent: 65537 (0x10001)
        X509v3 extensions:
            X509v3 Subject Key Identifier: 
                AF:51:12:88:C2:0B:00:D2:AB:12:6E:1B:39:A6:3F:63:13:91:96:2D
            X509v3 Authority Key Identifier: 
                keyid:74:4E:D1:2B:75:46:D3:51:EA:C5:FF:DB:07:3A:0A:33:F3:EF:57:22
                DirName:/C=US/ST=California/L=Santa Clara/O=pkg5/CN=ta4/emailAddress=ta4
                serial:FB:35:3E:25:6B:BC:07:65

            X509v3 Basic Constraints: critical
                CA:TRUE
            X509v3 Key Usage: critical
                Certificate Sign, CRL Sign
    Signature Algorithm: sha256WithRSAEncryption
         9f:7e:6f:fa:98:de:67:bd:8d:8c:b6:de:bf:bb:a0:b7:7d:52:
         03:4e:8f:e9:84:aa:25:ab:ff:61:91:06:12:62:6c:17:9f:35:
         23:43:32:41:e8:df:2d:9d:a0:e9:86:ed:fc:d0:99:e6:a9:98:
         f5:55:cf:ec:5c:d5:e9:6c:64:6e:d7:71:5b:fc:8e:8e:71:22:
         33:9b:ec:0e:97:11:23:a9:6c:27:92:5d:04:ac:b5:91:92:67:
         0b:e4:22:f1:34:9a:e9:f5:02:7b:1c:fc:08:3a:2f:d5:25:46:
         99:b2:1f:b8:c8:07:ee:27:4c:a6:af:3f:7d:33:a4:a1:60:39:
         49:66:cf:da:e1:82:eb:9a:91:fb:52:37:ec:c3:5e:db:0b:15:
         ff:8d:c2:17:69:26:4a:81:3a:f2:37:a7:1c:d6:d2:cb:cb:ce:
         ed:e4:88:bb:da:31:7b:bd:30:c3:6c:82:11:43:d4:d5:cc:bf:
         fb:9a:b2:80:5c:cc:c7:1e:d1:32:e2:27:52:76:ae:75:1b:56:
         f5:04:44:ce:a8:30:6f:af:3e:75:09:59:61:9a:7e:cb:6e:6d:
         f2:d9:0b:84:d0:81:d8:ca:b9:be:8b:24:c7:00:83:1b:1a:23:
         63:40:fe:eb:41:9b:27:23:cd:2b:c5:38:0d:e0:f2:d8:b2:80:
         0b:1c:f7:c1
-----BEGIN CERTIFICATE-----
MIIENzCCAx+gAwIBAgIBIzANBgkqhkiG9w0BAQsFADBpMQswCQYDVQQGEwJVUzET
MBEGA1UECAwKQ2FsaWZvcm5pYTEUMBIGA1UEBwwLU2FudGEgQ2xhcmExDTALBgNV
BAoMBHBrZzUxDDAKBgNVBAMMA3RhNDESMBAGCSqGSIb3DQEJARYDdGE0MB4XDTE4
MDcwMzE0MTQwM1oXDTIxMDMyOTE0MTQwM1owcTELMAkGA1UEBhMCVVMxEzARBgNV
BAgMCkNhbGlmb3JuaWExFDASBgNVBAcMC1NhbnRhIENsYXJhMQ0wCwYDVQQKDARw
a2c1MRAwDgYDVQQDDAdjaDFfdGE0MRYwFAYJKoZIhvcNAQkBFgdjaDFfdGE0MIIB
IjANBgkqhkiG9w0BAQEFAAOCAQ8AMIIBCgKCAQEAtMFaXRJa6Lsl+7RKiWlvPNjL
CkdyLOfiZCYQeELD1ZU96mWp0QEAF7diNLEsmiXpyqbVGRIsyqqOx255K262/F2h
sHKAhyu9hHLzVBGSqLc2awduvoV9qkq4nHK69lemrRm2RXqcZESWsB7vjJJs0O2S
lA+2R5hGpJhMTDMTpXDJfC40jxFWQKPYdXqjYhe6tEpuccxjwgN+2VUCdjpKijVx
14bMStPurTacM9ogzhD9pOcLTLxDu9PBN0mmO8ybP64lHzdTambS+8qkzSUcgt+x
8ScnybDEaELtWpIXlx0JDQQCiRxla/aIcPRJtjxQmG+8QlifbIpfGBcZUlxvbQID
AQABo4HhMIHeMB0GA1UdDgQWBBSvURKIwgsA0qsSbhs5pj9jE5GWLTCBmwYDVR0j
BIGTMIGQgBR0TtErdUbTUerF/9sHOgoz8+9XIqFtpGswaTELMAkGA1UEBhMCVVMx
EzARBgNVBAgMCkNhbGlmb3JuaWExFDASBgNVBAcMC1NhbnRhIENsYXJhMQ0wCwYD
VQQKDARwa2c1MQwwCgYDVQQDDAN0YTQxEjAQBgkqhkiG9w0BCQEWA3RhNIIJAPs1
PiVrvAdlMA8GA1UdEwEB/wQFMAMBAf8wDgYDVR0PAQH/BAQDAgEGMA0GCSqGSIb3
DQEBCwUAA4IBAQCffm/6mN5nvY2Mtt6/u6C3fVIDTo/phKolq/9hkQYSYmwXnzUj
QzJB6N8tnaDphu380JnmqZj1Vc/sXNXpbGRu13Fb/I6OcSIzm+wOlxEjqWwnkl0E
rLWRkmcL5CLxNJrp9QJ7HPwIOi/VJUaZsh+4yAfuJ0ymrz99M6ShYDlJZs/a4YLr
mpH7Ujfsw17bCxX/jcIXaSZKgTryN6cc1tLLy87t5Ii72jF7vTDDbIIRQ9TVzL/7
mrKAXMzHHtEy4idSdq51G1b1BETOqDBvrz51CVlhmn7Lbm3y2QuE0IHYyrm+iyTH
AIMbGiNjQP7rQZsnI80rxTgN4PLYsoALHPfB
-----END CERTIFICATE-----
