Certificate:
    Data:
        Version: 3 (0x2)
        Serial Number: 38 (0x26)
    Signature Algorithm: sha256WithRSAEncryption
        Issuer: C=US, ST=California, L=Santa Clara, O=pkg5, CN=ta4/emailAddress=ta4
        Validity
            Not Before: Nov 11 12:38:33 2017 GMT
            Not After : Aug  7 12:38:33 2020 GMT
        Subject: C=US, ST=California, L=Santa Clara, O=pkg5, CN=ch1.1_ta4/emailAddress=ch1.1_ta4
        Subject Public Key Info:
            Public Key Algorithm: rsaEncryption
                Public-Key: (2048 bit)
                Modulus:
                    00:e2:f9:07:25:38:2f:2f:34:a1:15:28:4e:2a:70:
                    e3:a2:40:eb:69:78:71:26:a2:35:6b:a2:00:b3:8a:
                    62:0c:6c:77:75:1e:66:bd:3b:c9:bf:88:dd:2f:bf:
                    b1:d1:cd:fd:e3:9f:6f:3d:1e:10:c2:db:98:7b:e1:
                    1d:22:48:d8:9b:2d:0b:92:3b:6f:e3:7b:3b:ca:76:
                    d9:6f:15:f2:ab:ac:c6:17:5a:2c:62:fb:bd:e1:bf:
                    7d:f8:2f:56:6a:db:a8:b0:e5:5a:c7:00:f2:5d:a1:
                    a7:8c:2f:82:d6:53:9e:f4:60:dc:77:0e:06:7f:ad:
                    33:e8:1c:42:da:44:68:7d:54:73:2d:c7:89:74:f0:
                    72:22:35:14:26:7b:98:50:2d:8c:9e:d5:b3:fe:87:
                    31:9e:32:33:47:8b:08:9e:9b:f2:74:b6:59:88:e4:
                    7c:a4:e3:ea:ac:92:dc:93:2c:f8:c5:c1:a7:17:ca:
                    5a:fb:98:f8:35:84:50:67:3c:b5:d1:f9:fc:60:25:
                    6b:51:60:bf:70:8f:cd:d6:5c:a2:41:36:08:d9:91:
                    ae:9a:67:af:c0:0c:5a:8d:3a:65:65:a0:a9:48:a4:
                    73:36:52:5e:bb:6c:fd:c3:a4:cb:17:25:77:17:9d:
                    3e:1c:da:fb:1c:18:82:85:53:b8:3d:46:a7:8e:a3:
                    64:d1
                Exponent: 65537 (0x10001)
        X509v3 extensions:
            X509v3 Subject Key Identifier: 
                00:FF:48:5D:F1:5A:ED:63:6C:A2:A3:19:90:FF:5B:13:3B:2B:F7:8C
            X509v3 Authority Key Identifier: 
                keyid:3B:B7:A1:3E:10:9F:0F:E4:EC:DE:30:8A:9A:41:5B:09:3D:C7:FA:29
                DirName:/C=US/ST=California/L=Santa Clara/O=pkg5/CN=ta4/emailAddress=ta4
                serial:D8:8B:82:45:DD:71:02:6E

            X509v3 Basic Constraints: critical
                CA:TRUE
            X509v3 Key Usage: critical
                Certificate Sign
    Signature Algorithm: sha256WithRSAEncryption
         92:13:78:0b:7f:88:b4:13:ff:d8:26:62:98:1a:ec:0f:e0:c9:
         af:5f:ff:94:cb:64:8e:75:af:e9:dc:ca:06:e8:9f:1c:bb:c6:
         df:b7:12:34:d2:7c:04:3a:d9:bc:65:d8:76:a0:48:b6:6d:df:
         88:8d:d2:c5:7c:2d:77:c5:ad:92:67:16:8a:ea:8e:46:2d:fe:
         f2:8e:1b:c3:4b:7f:62:ef:62:75:3e:f7:a6:6b:39:07:ec:e2:
         57:ab:0d:eb:b1:98:78:44:1f:72:01:95:f4:f2:f0:0e:fd:ce:
         1f:21:ff:7b:8b:65:98:7e:5c:85:8b:2f:d4:2d:52:65:31:ed:
         34:ff:35:84:de:ac:c1:52:1e:4e:dc:a1:e7:9a:54:61:71:0d:
         ba:fd:1a:34:5a:48:1d:fe:59:08:13:5d:2e:62:8a:73:84:70:
         2d:af:e6:d5:f4:fc:01:e3:4c:b6:8c:e8:1a:ba:ca:2c:5e:52:
         53:d2:33:01:7f:78:3b:d3:6a:46:b1:fa:0c:03:dc:4f:57:86:
         4d:b1:8b:70:74:98:6d:06:bb:56:65:27:48:45:87:03:37:b8:
         30:5c:53:9c:40:74:2c:f0:72:7a:48:85:f2:f9:5e:c0:d7:d0:
         ef:ba:6b:84:40:1b:cc:2a:e6:fb:67:22:53:18:13:2d:4a:68:
         80:13:97:e9
-----BEGIN CERTIFICATE-----
MIIEOzCCAyOgAwIBAgIBJjANBgkqhkiG9w0BAQsFADBpMQswCQYDVQQGEwJVUzET
MBEGA1UECAwKQ2FsaWZvcm5pYTEUMBIGA1UEBwwLU2FudGEgQ2xhcmExDTALBgNV
BAoMBHBrZzUxDDAKBgNVBAMMA3RhNDESMBAGCSqGSIb3DQEJARYDdGE0MB4XDTE3
MTExMTEyMzgzM1oXDTIwMDgwNzEyMzgzM1owdTELMAkGA1UEBhMCVVMxEzARBgNV
BAgMCkNhbGlmb3JuaWExFDASBgNVBAcMC1NhbnRhIENsYXJhMQ0wCwYDVQQKDARw
a2c1MRIwEAYDVQQDDAljaDEuMV90YTQxGDAWBgkqhkiG9w0BCQEWCWNoMS4xX3Rh
NDCCASIwDQYJKoZIhvcNAQEBBQADggEPADCCAQoCggEBAOL5ByU4Ly80oRUoTipw
46JA62l4cSaiNWuiALOKYgxsd3UeZr07yb+I3S+/sdHN/eOfbz0eEMLbmHvhHSJI
2JstC5I7b+N7O8p22W8V8qusxhdaLGL7veG/ffgvVmrbqLDlWscA8l2hp4wvgtZT
nvRg3HcOBn+tM+gcQtpEaH1Ucy3HiXTwciI1FCZ7mFAtjJ7Vs/6HMZ4yM0eLCJ6b
8nS2WYjkfKTj6qyS3JMs+MXBpxfKWvuY+DWEUGc8tdH5/GAla1Fgv3CPzdZcokE2
CNmRrppnr8AMWo06ZWWgqUikczZSXrts/cOkyxcldxedPhza+xwYgoVTuD1Gp46j
ZNECAwEAAaOB4TCB3jAdBgNVHQ4EFgQUAP9IXfFa7WNsoqMZkP9bEzsr94wwgZsG
A1UdIwSBkzCBkIAUO7ehPhCfD+Ts3jCKmkFbCT3H+imhbaRrMGkxCzAJBgNVBAYT
AlVTMRMwEQYDVQQIDApDYWxpZm9ybmlhMRQwEgYDVQQHDAtTYW50YSBDbGFyYTEN
MAsGA1UECgwEcGtnNTEMMAoGA1UEAwwDdGE0MRIwEAYJKoZIhvcNAQkBFgN0YTSC
CQDYi4JF3XECbjAPBgNVHRMBAf8EBTADAQH/MA4GA1UdDwEB/wQEAwICBDANBgkq
hkiG9w0BAQsFAAOCAQEAkhN4C3+ItBP/2CZimBrsD+DJr1//lMtkjnWv6dzKBuif
HLvG37cSNNJ8BDrZvGXYdqBItm3fiI3SxXwtd8WtkmcWiuqORi3+8o4bw0t/Yu9i
dT73pms5B+ziV6sN67GYeEQfcgGV9PLwDv3OHyH/e4tlmH5chYsv1C1SZTHtNP81
hN6swVIeTtyh55pUYXENuv0aNFpIHf5ZCBNdLmKKc4RwLa/m1fT8AeNMtozoGrrK
LF5SU9IzAX94O9NqRrH6DAPcT1eGTbGLcHSYbQa7VmUnSEWHAze4MFxTnEB0LPBy
ekiF8vlewNfQ77prhEAbzCrm+2ciUxgTLUpogBOX6Q==
-----END CERTIFICATE-----
