Certificate:
    Data:
        Version: 3 (0x2)
        Serial Number: 39 (0x27)
    Signature Algorithm: sha256WithRSAEncryption
        Issuer: C=US, ST=California, L=Santa Clara, O=pkg5, CN=ta4/emailAddress=ta4
        Validity
            Not Before: Jul  3 14:14:03 2018 GMT
            Not After : Mar 29 14:14:03 2021 GMT
        Subject: C=US, ST=California, L=Santa Clara, O=pkg5, CN=ch1.1_ta4/emailAddress=ch1.1_ta4
        Subject Public Key Info:
            Public Key Algorithm: rsaEncryption
                Public-Key: (2048 bit)
                Modulus:
                    00:e6:26:63:9a:ff:78:aa:1b:94:28:41:75:17:ab:
                    28:be:7b:c3:ca:02:f4:b2:a0:ff:87:65:da:e1:76:
                    aa:d5:b0:32:fa:aa:fe:a3:ca:76:74:9f:86:1d:7f:
                    2c:79:0b:a7:80:f6:21:a4:3d:57:63:46:b9:72:14:
                    1e:ad:57:a2:f8:cb:55:f6:21:a7:88:29:e2:30:fc:
                    54:22:71:a8:56:08:58:16:94:44:6c:07:3b:9f:05:
                    96:11:cb:a7:9f:f3:02:f8:1e:6c:de:e4:2b:c0:45:
                    50:a3:55:bf:6f:47:bb:76:a6:3f:8a:9e:46:f8:00:
                    1a:d5:c4:1f:02:ba:17:e0:da:be:47:28:2b:9e:e9:
                    79:12:0b:d6:af:f1:d5:f8:c7:55:e2:ad:25:72:34:
                    a2:ce:99:ba:5d:f4:47:c1:3d:c6:fe:d5:21:01:15:
                    4d:94:5e:54:2c:56:80:ef:a9:43:06:8c:fc:96:4e:
                    fb:d3:6d:70:a4:b8:9e:16:90:fc:12:73:2e:e7:4c:
                    3c:ff:74:ac:02:d2:cf:1c:43:d8:cc:fb:37:51:eb:
                    44:a7:df:e3:7b:99:05:72:be:b5:e4:b5:62:cf:56:
                    e3:a2:d8:ec:78:11:b7:fa:0b:fb:f3:cf:0a:c5:d3:
                    64:f4:ea:8b:6f:ed:9a:3f:bb:65:b4:ea:df:2c:d9:
                    69:63
                Exponent: 65537 (0x10001)
        X509v3 extensions:
            X509v3 Subject Key Identifier: 
                EC:1C:AA:57:F5:A8:5F:30:4D:69:E0:DF:9F:DA:42:25:41:48:6F:D2
            X509v3 Authority Key Identifier: 
                keyid:74:4E:D1:2B:75:46:D3:51:EA:C5:FF:DB:07:3A:0A:33:F3:EF:57:22
                DirName:/C=US/ST=California/L=Santa Clara/O=pkg5/CN=ta4/emailAddress=ta4
                serial:FB:35:3E:25:6B:BC:07:65

            X509v3 Basic Constraints: critical
                CA:TRUE
            X509v3 Key Usage: critical
                Certificate Sign
    Signature Algorithm: sha256WithRSAEncryption
         30:11:89:b1:c4:5b:71:24:92:06:93:d3:d5:77:59:1a:c3:3c:
         1d:3a:57:6f:b5:9a:e0:d9:1b:95:85:02:34:55:57:e3:ae:de:
         f4:5a:3b:4a:9c:45:63:aa:3d:b4:6e:d9:b4:63:e0:47:47:7c:
         b1:db:94:73:68:0c:29:64:07:07:d9:f2:9a:d7:88:4a:66:cc:
         d2:17:50:0d:17:34:2c:c7:c6:7d:6f:64:57:b6:8f:7e:9a:97:
         32:1e:04:6a:97:17:60:80:57:0e:00:7f:f7:3f:02:46:d5:1d:
         11:44:d0:68:42:02:24:05:80:6c:6e:48:52:91:b0:68:72:fd:
         0a:03:09:8c:93:12:e8:b2:bf:71:74:ea:42:46:04:70:2e:23:
         fa:28:0e:2f:f6:5a:43:1e:b7:1e:30:c4:4d:79:c9:d7:34:d5:
         fd:e3:47:ae:c0:6c:87:fb:f3:34:2d:60:b4:57:a8:b2:40:63:
         a2:da:0e:c3:8f:f7:83:64:be:5f:b5:2b:98:0e:2b:5a:e3:d3:
         4f:53:ef:9e:d4:bc:d2:b8:d8:8f:35:05:94:fb:ca:38:5a:19:
         0c:35:f8:f4:83:34:bb:9a:75:8a:ac:54:f9:26:df:45:28:d5:
         2d:1d:e5:15:82:d8:98:bb:ec:48:45:7e:ea:07:28:f8:de:42:
         22:3a:c2:d0
-----BEGIN CERTIFICATE-----
MIIEOzCCAyOgAwIBAgIBJzANBgkqhkiG9w0BAQsFADBpMQswCQYDVQQGEwJVUzET
MBEGA1UECAwKQ2FsaWZvcm5pYTEUMBIGA1UEBwwLU2FudGEgQ2xhcmExDTALBgNV
BAoMBHBrZzUxDDAKBgNVBAMMA3RhNDESMBAGCSqGSIb3DQEJARYDdGE0MB4XDTE4
MDcwMzE0MTQwM1oXDTIxMDMyOTE0MTQwM1owdTELMAkGA1UEBhMCVVMxEzARBgNV
BAgMCkNhbGlmb3JuaWExFDASBgNVBAcMC1NhbnRhIENsYXJhMQ0wCwYDVQQKDARw
a2c1MRIwEAYDVQQDDAljaDEuMV90YTQxGDAWBgkqhkiG9w0BCQEWCWNoMS4xX3Rh
NDCCASIwDQYJKoZIhvcNAQEBBQADggEPADCCAQoCggEBAOYmY5r/eKoblChBdRer
KL57w8oC9LKg/4dl2uF2qtWwMvqq/qPKdnSfhh1/LHkLp4D2IaQ9V2NGuXIUHq1X
ovjLVfYhp4gp4jD8VCJxqFYIWBaURGwHO58FlhHLp5/zAvgebN7kK8BFUKNVv29H
u3amP4qeRvgAGtXEHwK6F+DavkcoK57peRIL1q/x1fjHVeKtJXI0os6Zul30R8E9
xv7VIQEVTZReVCxWgO+pQwaM/JZO+9NtcKS4nhaQ/BJzLudMPP90rALSzxxD2Mz7
N1HrRKff43uZBXK+teS1Ys9W46LY7HgRt/oL+/PPCsXTZPTqi2/tmj+7ZbTq3yzZ
aWMCAwEAAaOB4TCB3jAdBgNVHQ4EFgQU7ByqV/WoXzBNaeDfn9pCJUFIb9IwgZsG
A1UdIwSBkzCBkIAUdE7RK3VG01Hqxf/bBzoKM/PvVyKhbaRrMGkxCzAJBgNVBAYT
AlVTMRMwEQYDVQQIDApDYWxpZm9ybmlhMRQwEgYDVQQHDAtTYW50YSBDbGFyYTEN
MAsGA1UECgwEcGtnNTEMMAoGA1UEAwwDdGE0MRIwEAYJKoZIhvcNAQkBFgN0YTSC
CQD7NT4la7wHZTAPBgNVHRMBAf8EBTADAQH/MA4GA1UdDwEB/wQEAwICBDANBgkq
hkiG9w0BAQsFAAOCAQEAMBGJscRbcSSSBpPT1XdZGsM8HTpXb7Wa4NkblYUCNFVX
467e9Fo7SpxFY6o9tG7ZtGPgR0d8sduUc2gMKWQHB9nymteISmbM0hdQDRc0LMfG
fW9kV7aPfpqXMh4EapcXYIBXDgB/9z8CRtUdEUTQaEICJAWAbG5IUpGwaHL9CgMJ
jJMS6LK/cXTqQkYEcC4j+igOL/ZaQx63HjDETXnJ1zTV/eNHrsBsh/vzNC1gtFeo
skBjotoOw4/3g2S+X7UrmA4rWuPTT1PvntS80rjYjzUFlPvKOFoZDDX49IM0u5p1
iqxU+SbfRSjVLR3lFYLYmLvsSEV+6gco+N5CIjrC0A==
-----END CERTIFICATE-----
