Certificate:
    Data:
        Version: 3 (0x2)
        Serial Number: 39 (0x27)
    Signature Algorithm: sha256WithRSAEncryption
        Issuer: C=US, ST=California, L=Santa Clara, O=pkg5, CN=ta4/emailAddress=ta4
        Validity
            Not Before: Nov 24 01:22:43 2021 GMT
            Not After : Aug 20 01:22:43 2024 GMT
        Subject: C=US, ST=California, L=Santa Clara, O=pkg5, CN=ch1.1_ta4/emailAddress=ch1.1_ta4
        Subject Public Key Info:
            Public Key Algorithm: rsaEncryption
                Public-Key: (2048 bit)
                Modulus:
                    00:ad:14:b8:39:76:bc:e1:4c:2c:45:1b:bb:e2:cc:
                    f6:c7:49:6c:d9:63:12:5e:0a:3f:95:c3:04:31:89:
                    83:3c:03:e7:e8:1a:65:ca:20:9f:2b:63:b6:1c:af:
                    3a:5d:d9:5e:03:ac:12:28:31:19:3f:22:4f:eb:ce:
                    87:5b:c3:0a:48:bd:87:ea:53:2b:37:fe:3e:ec:9c:
                    aa:ee:93:c0:44:30:f5:da:53:37:de:01:d4:96:7b:
                    39:89:26:72:56:8d:1f:ce:8d:88:57:a5:68:bd:f3:
                    7d:5c:d5:83:75:22:f5:a2:e4:46:df:48:50:0b:7b:
                    f8:38:95:c9:1f:58:0a:95:1a:80:4e:bc:c1:6b:66:
                    40:a7:d8:5a:0a:b1:2a:ef:04:14:1d:0b:18:90:41:
                    7f:0f:f9:ed:0b:4a:cc:ec:1f:e2:9f:23:86:52:06:
                    20:06:b6:33:9b:7e:00:b4:7a:00:7a:9f:ef:00:02:
                    89:8c:40:10:d2:9b:20:18:21:21:56:28:5c:a4:77:
                    86:42:02:eb:f8:6f:7c:98:93:6e:1d:b4:3d:af:0c:
                    95:eb:05:47:d7:a5:12:82:22:b4:88:68:76:ce:e7:
                    a6:a4:45:da:6a:a0:d0:de:a4:9d:ea:56:b4:3e:e2:
                    c2:26:c0:50:8e:85:4b:7c:32:11:d4:26:96:71:5c:
                    0d:31
                Exponent: 65537 (0x10001)
        X509v3 extensions:
            X509v3 Subject Key Identifier: 
                88:78:C1:2A:D8:32:84:FA:CA:5E:04:AC:52:86:0F:12:87:C1:66:E9
            X509v3 Authority Key Identifier: 
                keyid:55:7A:9D:41:52:38:8C:2D:17:A2:CA:1F:4D:1E:89:FD:55:FB:97:49
                DirName:/C=US/ST=California/L=Santa Clara/O=pkg5/CN=ta4/emailAddress=ta4
                serial:BE:58:81:8C:D4:C3:CD:40

            X509v3 Basic Constraints: critical
                CA:TRUE
            X509v3 Key Usage: critical
                Certificate Sign
    Signature Algorithm: sha256WithRSAEncryption
         a3:21:57:7d:61:6f:40:92:69:ea:25:b4:8c:97:59:d8:58:78:
         25:84:c2:6a:b6:d0:a4:7e:9b:a0:79:7a:3f:c3:32:1b:55:5b:
         f5:b1:5e:42:2e:4b:a9:9d:96:76:4f:ae:33:4d:91:c2:e9:e4:
         b0:88:89:35:03:6e:88:9d:7d:ca:d0:e7:74:3d:60:a8:82:7a:
         d3:59:77:4f:04:3b:d6:76:e5:38:21:07:c6:77:cc:ea:46:c8:
         99:6f:6e:b7:f7:17:0f:c2:8b:b2:87:a9:44:de:f3:2b:46:fc:
         3a:ef:bc:ed:ff:aa:73:34:04:e6:20:0e:1a:0f:82:f8:87:ca:
         dd:04:88:4b:0f:bc:d5:a8:ee:d4:4a:ee:d8:b5:ab:df:4b:f1:
         2f:1c:91:19:60:9c:01:db:ad:f4:41:3d:26:62:5a:f6:ed:e2:
         bb:76:dc:6d:71:51:55:0d:1d:60:32:e1:6c:b0:11:f8:76:f5:
         eb:a0:ef:7c:e7:2b:5e:29:79:0e:ea:e1:03:1e:98:64:fc:b8:
         a4:6e:da:b9:a8:e5:0e:b0:78:b6:ed:08:55:78:f2:ca:68:e7:
         fc:5d:e3:32:c4:c1:7f:fd:a8:98:05:75:f3:5e:60:ee:f9:fc:
         72:eb:9e:6e:9e:4d:95:9e:c4:c9:61:01:5c:e3:82:a3:3d:07:
         36:29:18:d6
-----BEGIN CERTIFICATE-----
MIIEOzCCAyOgAwIBAgIBJzANBgkqhkiG9w0BAQsFADBpMQswCQYDVQQGEwJVUzET
MBEGA1UECAwKQ2FsaWZvcm5pYTEUMBIGA1UEBwwLU2FudGEgQ2xhcmExDTALBgNV
BAoMBHBrZzUxDDAKBgNVBAMMA3RhNDESMBAGCSqGSIb3DQEJARYDdGE0MB4XDTIx
MTEyNDAxMjI0M1oXDTI0MDgyMDAxMjI0M1owdTELMAkGA1UEBhMCVVMxEzARBgNV
BAgMCkNhbGlmb3JuaWExFDASBgNVBAcMC1NhbnRhIENsYXJhMQ0wCwYDVQQKDARw
a2c1MRIwEAYDVQQDDAljaDEuMV90YTQxGDAWBgkqhkiG9w0BCQEWCWNoMS4xX3Rh
NDCCASIwDQYJKoZIhvcNAQEBBQADggEPADCCAQoCggEBAK0UuDl2vOFMLEUbu+LM
9sdJbNljEl4KP5XDBDGJgzwD5+gaZcognytjthyvOl3ZXgOsEigxGT8iT+vOh1vD
Cki9h+pTKzf+Puycqu6TwEQw9dpTN94B1JZ7OYkmclaNH86NiFelaL3zfVzVg3Ui
9aLkRt9IUAt7+DiVyR9YCpUagE68wWtmQKfYWgqxKu8EFB0LGJBBfw/57QtKzOwf
4p8jhlIGIAa2M5t+ALR6AHqf7wACiYxAENKbIBghIVYoXKR3hkIC6/hvfJiTbh20
Pa8MlesFR9elEoIitIhods7npqRF2mqg0N6knepWtD7iwibAUI6FS3wyEdQmlnFc
DTECAwEAAaOB4TCB3jAdBgNVHQ4EFgQUiHjBKtgyhPrKXgSsUoYPEofBZukwgZsG
A1UdIwSBkzCBkIAUVXqdQVI4jC0XosofTR6J/VX7l0mhbaRrMGkxCzAJBgNVBAYT
AlVTMRMwEQYDVQQIDApDYWxpZm9ybmlhMRQwEgYDVQQHDAtTYW50YSBDbGFyYTEN
MAsGA1UECgwEcGtnNTEMMAoGA1UEAwwDdGE0MRIwEAYJKoZIhvcNAQkBFgN0YTSC
CQC+WIGM1MPNQDAPBgNVHRMBAf8EBTADAQH/MA4GA1UdDwEB/wQEAwICBDANBgkq
hkiG9w0BAQsFAAOCAQEAoyFXfWFvQJJp6iW0jJdZ2Fh4JYTCarbQpH6boHl6P8My
G1Vb9bFeQi5LqZ2Wdk+uM02RwunksIiJNQNuiJ19ytDndD1gqIJ601l3TwQ71nbl
OCEHxnfM6kbImW9ut/cXD8KLsoepRN7zK0b8Ou+87f+qczQE5iAOGg+C+IfK3QSI
Sw+81aju1Eru2LWr30vxLxyRGWCcAdut9EE9JmJa9u3iu3bcbXFRVQ0dYDLhbLAR
+Hb166DvfOcrXil5DurhAx6YZPy4pG7auajlDrB4tu0IVXjyymjn/F3jMsTBf/2o
mAV1815g7vn8cuuebp5NlZ7EyWEBXOOCoz0HNikY1g==
-----END CERTIFICATE-----
