Certificate:
    Data:
        Version: 3 (0x2)
        Serial Number: 40 (0x28)
    Signature Algorithm: sha256WithRSAEncryption
        Issuer: C=US, ST=California, L=Santa Clara, O=pkg5, CN=ta5/emailAddress=ta5
        Validity
            Not Before: Nov 11 12:38:33 2017 GMT
            Not After : Aug  7 12:38:33 2020 GMT
        Subject: C=US, ST=California, L=Santa Clara, O=pkg5, CN=ch1_ta5/emailAddress=ch1_ta5
        Subject Public Key Info:
            Public Key Algorithm: rsaEncryption
                Public-Key: (2048 bit)
                Modulus:
                    00:c9:36:59:2f:95:bd:84:27:0c:43:1c:b9:77:db:
                    d4:17:2e:18:9a:f5:a4:ba:06:03:eb:00:13:d9:b9:
                    e7:47:35:f7:17:2a:06:0c:8a:da:20:ca:14:9b:f9:
                    4c:b5:3d:10:ea:b9:db:cc:eb:d8:58:62:f5:df:97:
                    bb:af:2e:d2:5b:a2:0b:fd:90:ba:4f:47:8a:44:56:
                    74:12:f4:90:35:fe:82:43:52:0f:9d:bd:6f:0c:33:
                    39:f4:54:1e:ee:08:a0:42:ed:33:b2:1b:bc:9d:93:
                    41:8a:b2:16:ad:eb:84:c3:f0:f7:39:50:41:5b:2a:
                    dc:4c:a4:30:fd:30:fd:50:5b:a5:74:dc:aa:cf:99:
                    58:af:bf:73:71:fb:04:8c:c1:6b:24:32:1b:d1:36:
                    82:71:87:fb:d8:d6:84:a7:2b:b9:cc:89:b2:ad:ed:
                    fa:93:b5:66:da:70:d7:6f:c8:3f:79:c9:fe:ff:e1:
                    3c:ed:bb:12:18:69:55:db:98:16:ff:c9:8b:b2:17:
                    36:51:aa:f1:6d:7b:30:14:a1:39:8d:47:ca:94:61:
                    53:9b:a8:9d:b3:03:63:31:73:be:bc:c9:43:12:0e:
                    4f:85:48:a6:53:09:ed:a6:3d:72:b5:99:75:16:b5:
                    2b:5e:0d:ee:16:32:85:5f:e0:7b:92:66:75:a7:4e:
                    f9:37
                Exponent: 65537 (0x10001)
        X509v3 extensions:
            X509v3 Subject Key Identifier: 
                D6:58:67:F1:5F:07:09:00:6A:B7:F8:B8:BE:B1:72:37:7A:68:5A:D1
            X509v3 Authority Key Identifier: 
                keyid:07:99:6C:ED:CE:9F:E0:A8:EF:D2:D1:94:94:9E:C2:38:C9:3A:34:03
                DirName:/C=US/ST=California/L=Santa Clara/O=pkg5/CN=ta5/emailAddress=ta5
                serial:91:09:EB:0B:56:9B:01:C0

            X509v3 Basic Constraints: critical
                CA:TRUE
            X509v3 CRL Distribution Points: 

                Full Name:
                  URI:http://localhost:12001/file/0/ta5_crl.pem

            X509v3 Key Usage: critical
                Certificate Sign, CRL Sign
    Signature Algorithm: sha256WithRSAEncryption
         b3:69:c5:ba:16:a0:05:61:ef:43:15:aa:45:18:c3:ad:27:32:
         e6:cd:33:77:cd:99:c3:91:f5:8a:0d:00:95:ea:9a:15:4e:61:
         4f:ec:43:dd:48:96:88:c8:fb:b2:dd:14:98:2d:c5:26:76:df:
         35:e4:40:44:26:7c:b1:8a:09:b9:76:b8:85:dd:c9:3c:ae:07:
         89:36:46:59:03:8a:91:c4:0f:76:0b:24:fd:5a:7e:10:83:95:
         5c:70:db:ff:00:f4:87:d7:41:cd:29:6b:84:ad:c4:2a:87:68:
         03:32:35:8d:5a:a3:7d:dc:f9:18:3e:eb:aa:08:9d:16:0c:e4:
         c1:9d:62:d3:08:1c:4f:39:d4:fc:95:a2:84:8d:18:26:fc:65:
         00:88:01:20:41:f9:17:2a:4d:a9:f7:3b:12:59:76:aa:00:5c:
         bc:96:12:86:35:f0:1a:b7:32:33:d5:eb:48:fc:d8:58:bb:8b:
         f0:65:75:d3:27:21:93:c1:83:22:6b:0f:87:66:e6:37:ae:03:
         27:2f:8c:b4:c0:36:25:ba:82:12:29:92:ed:55:0c:eb:3b:cc:
         b9:e6:a5:1e:fc:d0:36:f1:93:a5:77:47:e7:6a:0a:00:e1:36:
         e7:8d:c2:b8:16:6e:28:70:04:ce:cf:90:1b:f8:c5:64:bb:72:
         ee:94:6a:05
-----BEGIN CERTIFICATE-----
MIIEdTCCA12gAwIBAgIBKDANBgkqhkiG9w0BAQsFADBpMQswCQYDVQQGEwJVUzET
MBEGA1UECAwKQ2FsaWZvcm5pYTEUMBIGA1UEBwwLU2FudGEgQ2xhcmExDTALBgNV
BAoMBHBrZzUxDDAKBgNVBAMMA3RhNTESMBAGCSqGSIb3DQEJARYDdGE1MB4XDTE3
MTExMTEyMzgzM1oXDTIwMDgwNzEyMzgzM1owcTELMAkGA1UEBhMCVVMxEzARBgNV
BAgMCkNhbGlmb3JuaWExFDASBgNVBAcMC1NhbnRhIENsYXJhMQ0wCwYDVQQKDARw
a2c1MRAwDgYDVQQDDAdjaDFfdGE1MRYwFAYJKoZIhvcNAQkBFgdjaDFfdGE1MIIB
IjANBgkqhkiG9w0BAQEFAAOCAQ8AMIIBCgKCAQEAyTZZL5W9hCcMQxy5d9vUFy4Y
mvWkugYD6wAT2bnnRzX3FyoGDIraIMoUm/lMtT0Q6rnbzOvYWGL135e7ry7SW6IL
/ZC6T0eKRFZ0EvSQNf6CQ1IPnb1vDDM59FQe7gigQu0zshu8nZNBirIWreuEw/D3
OVBBWyrcTKQw/TD9UFuldNyqz5lYr79zcfsEjMFrJDIb0TaCcYf72NaEpyu5zImy
re36k7Vm2nDXb8g/ecn+/+E87bsSGGlV25gW/8mLshc2UarxbXswFKE5jUfKlGFT
m6idswNjMXO+vMlDEg5PhUimUwntpj1ytZl1FrUrXg3uFjKFX+B7kmZ1p075NwID
AQABo4IBHjCCARowHQYDVR0OBBYEFNZYZ/FfBwkAarf4uL6xcjd6aFrRMIGbBgNV
HSMEgZMwgZCAFAeZbO3On+Co79LRlJSewjjJOjQDoW2kazBpMQswCQYDVQQGEwJV
UzETMBEGA1UECAwKQ2FsaWZvcm5pYTEUMBIGA1UEBwwLU2FudGEgQ2xhcmExDTAL
BgNVBAoMBHBrZzUxDDAKBgNVBAMMA3RhNTESMBAGCSqGSIb3DQEJARYDdGE1ggkA
kQnrC1abAcAwDwYDVR0TAQH/BAUwAwEB/zA6BgNVHR8EMzAxMC+gLaArhilodHRw
Oi8vbG9jYWxob3N0OjEyMDAxL2ZpbGUvMC90YTVfY3JsLnBlbTAOBgNVHQ8BAf8E
BAMCAQYwDQYJKoZIhvcNAQELBQADggEBALNpxboWoAVh70MVqkUYw60nMubNM3fN
mcOR9YoNAJXqmhVOYU/sQ91IlojI+7LdFJgtxSZ23zXkQEQmfLGKCbl2uIXdyTyu
B4k2RlkDipHED3YLJP1afhCDlVxw2/8A9IfXQc0pa4StxCqHaAMyNY1ao33c+Rg+
66oInRYM5MGdYtMIHE851PyVooSNGCb8ZQCIASBB+RcqTan3OxJZdqoAXLyWEoY1
8Bq3MjPV60j82Fi7i/BlddMnIZPBgyJrD4dm5jeuAycvjLTANiW6ghIpku1VDOs7
zLnmpR780Dbxk6V3R+dqCgDhNueNwrgWbihwBM7PkBv4xWS7cu6UagU=
-----END CERTIFICATE-----
