Certificate:
    Data:
        Version: 3 (0x2)
        Serial Number: 41 (0x29)
    Signature Algorithm: sha256WithRSAEncryption
        Issuer: C=US, ST=California, L=Santa Clara, O=pkg5, CN=ta5/emailAddress=ta5
        Validity
            Not Before: Jul  3 14:14:04 2018 GMT
            Not After : Mar 29 14:14:04 2021 GMT
        Subject: C=US, ST=California, L=Santa Clara, O=pkg5, CN=ch1_ta5/emailAddress=ch1_ta5
        Subject Public Key Info:
            Public Key Algorithm: rsaEncryption
                Public-Key: (2048 bit)
                Modulus:
                    00:d9:4d:6c:14:ae:13:31:39:a6:b5:27:4e:b1:8b:
                    b7:0e:8b:2e:b1:a1:9d:40:92:09:7a:67:af:4d:b2:
                    66:8d:0e:1f:65:4b:98:ff:30:72:09:43:9e:e1:4f:
                    96:60:57:85:cc:35:27:26:4c:33:73:ce:2a:74:9f:
                    06:b1:ac:7f:0f:b8:53:0a:51:a1:79:20:9a:3d:ef:
                    77:68:2a:ff:6c:e1:70:61:cc:36:d7:6c:7f:46:9a:
                    7f:3b:6b:e7:13:a6:d1:56:76:b4:f2:80:ac:89:ba:
                    e9:a4:d5:0a:20:ed:f2:67:98:40:2a:27:0d:c4:a6:
                    06:0a:61:0e:2e:48:27:b1:f0:45:7e:ab:1b:66:bd:
                    f7:8c:57:29:55:b5:b9:da:6d:cc:d8:84:bf:bb:80:
                    3b:d5:17:1f:ee:c5:ea:20:3d:6e:2c:bc:6f:db:32:
                    b8:86:da:9e:70:7a:88:18:de:3f:cb:ee:46:10:05:
                    69:98:c6:88:76:0a:7b:3f:f1:e7:d3:0f:0b:70:14:
                    1a:e3:2e:80:a8:40:2e:0a:b5:42:4b:42:9f:2e:fc:
                    01:5b:06:57:85:e0:50:d3:f5:69:93:f0:75:df:9e:
                    5f:8f:1a:a2:23:90:be:0f:42:73:26:4f:02:63:a7:
                    83:4c:a6:82:52:1a:d5:d3:6b:a7:e2:31:c1:c9:9d:
                    27:55
                Exponent: 65537 (0x10001)
        X509v3 extensions:
            X509v3 Subject Key Identifier: 
                BA:19:9A:EE:EE:23:B2:37:A9:D2:FF:9E:42:D5:88:79:AD:FF:8B:96
            X509v3 Authority Key Identifier: 
                keyid:A7:C0:0C:B2:CB:95:1D:84:CB:23:56:48:41:48:10:5A:5F:E8:70:4C
                DirName:/C=US/ST=California/L=Santa Clara/O=pkg5/CN=ta5/emailAddress=ta5
                serial:9E:52:EE:B4:C9:A2:54:47

            X509v3 Basic Constraints: critical
                CA:TRUE
            X509v3 CRL Distribution Points: 

                Full Name:
                  URI:http://localhost:12001/file/0/ta5_crl.pem

            X509v3 Key Usage: critical
                Certificate Sign, CRL Sign
    Signature Algorithm: sha256WithRSAEncryption
         85:76:c2:f9:fa:da:2b:5a:e0:78:a0:53:02:09:19:6f:99:81:
         74:73:d4:d3:f2:8d:30:f0:06:b8:43:e8:1b:2d:c8:50:01:f6:
         05:1a:9f:67:95:dd:bf:79:0d:3f:fa:56:90:d4:b6:12:de:e1:
         08:93:7b:7b:d5:d3:22:2d:4c:ff:60:a6:59:68:5d:24:58:06:
         ca:ee:fc:ca:c6:fb:c6:5f:eb:60:29:fc:68:1c:cd:3a:6b:76:
         05:1e:ef:f4:28:4d:50:9a:14:eb:2c:f4:e2:00:78:4f:0e:f3:
         d5:f8:98:86:c8:a1:ce:42:92:03:91:ab:fe:c1:c2:7f:6c:f2:
         1f:1f:b8:a9:2a:f3:9a:30:c2:c0:e2:bd:0e:1d:ec:f5:9e:fb:
         59:c8:0d:12:3a:03:fd:ef:1c:af:4b:2f:2c:9a:41:7d:38:e9:
         66:fa:1b:10:0d:bf:0c:da:88:05:31:27:06:46:b3:d0:6c:21:
         12:04:f8:af:12:a5:6d:d9:b2:34:16:f4:df:1c:b6:58:3d:2d:
         7d:f5:40:61:33:1d:b0:ac:b4:8c:b2:ad:81:1a:21:1d:8b:a8:
         28:a5:ae:ab:d9:4c:03:f5:12:31:3f:7f:a3:95:20:2d:9a:05:
         4d:01:49:c2:9c:77:e3:d8:ec:dc:37:f1:74:68:40:a7:de:48:
         06:68:82:1c
-----BEGIN CERTIFICATE-----
MIIEdTCCA12gAwIBAgIBKTANBgkqhkiG9w0BAQsFADBpMQswCQYDVQQGEwJVUzET
MBEGA1UECAwKQ2FsaWZvcm5pYTEUMBIGA1UEBwwLU2FudGEgQ2xhcmExDTALBgNV
BAoMBHBrZzUxDDAKBgNVBAMMA3RhNTESMBAGCSqGSIb3DQEJARYDdGE1MB4XDTE4
MDcwMzE0MTQwNFoXDTIxMDMyOTE0MTQwNFowcTELMAkGA1UEBhMCVVMxEzARBgNV
BAgMCkNhbGlmb3JuaWExFDASBgNVBAcMC1NhbnRhIENsYXJhMQ0wCwYDVQQKDARw
a2c1MRAwDgYDVQQDDAdjaDFfdGE1MRYwFAYJKoZIhvcNAQkBFgdjaDFfdGE1MIIB
IjANBgkqhkiG9w0BAQEFAAOCAQ8AMIIBCgKCAQEA2U1sFK4TMTmmtSdOsYu3Dosu
saGdQJIJemevTbJmjQ4fZUuY/zByCUOe4U+WYFeFzDUnJkwzc84qdJ8Gsax/D7hT
ClGheSCaPe93aCr/bOFwYcw212x/Rpp/O2vnE6bRVna08oCsibrppNUKIO3yZ5hA
KicNxKYGCmEOLkgnsfBFfqsbZr33jFcpVbW52m3M2IS/u4A71Rcf7sXqID1uLLxv
2zK4htqecHqIGN4/y+5GEAVpmMaIdgp7P/Hn0w8LcBQa4y6AqEAuCrVCS0KfLvwB
WwZXheBQ0/Vpk/B1355fjxqiI5C+D0JzJk8CY6eDTKaCUhrV02un4jHByZ0nVQID
AQABo4IBHjCCARowHQYDVR0OBBYEFLoZmu7uI7I3qdL/nkLViHmt/4uWMIGbBgNV
HSMEgZMwgZCAFKfADLLLlR2EyyNWSEFIEFpf6HBMoW2kazBpMQswCQYDVQQGEwJV
UzETMBEGA1UECAwKQ2FsaWZvcm5pYTEUMBIGA1UEBwwLU2FudGEgQ2xhcmExDTAL
BgNVBAoMBHBrZzUxDDAKBgNVBAMMA3RhNTESMBAGCSqGSIb3DQEJARYDdGE1ggkA
nlLutMmiVEcwDwYDVR0TAQH/BAUwAwEB/zA6BgNVHR8EMzAxMC+gLaArhilodHRw
Oi8vbG9jYWxob3N0OjEyMDAxL2ZpbGUvMC90YTVfY3JsLnBlbTAOBgNVHQ8BAf8E
BAMCAQYwDQYJKoZIhvcNAQELBQADggEBAIV2wvn62ita4HigUwIJGW+ZgXRz1NPy
jTDwBrhD6BstyFAB9gUan2eV3b95DT/6VpDUthLe4QiTe3vV0yItTP9gplloXSRY
Bsru/MrG+8Zf62Ap/GgczTprdgUe7/QoTVCaFOss9OIAeE8O89X4mIbIoc5CkgOR
q/7Bwn9s8h8fuKkq85owwsDivQ4d7PWe+1nIDRI6A/3vHK9LLyyaQX046Wb6GxAN
vwzaiAUxJwZGs9BsIRIE+K8SpW3ZsjQW9N8ctlg9LX31QGEzHbCstIyyrYEaIR2L
qCilrqvZTAP1EjE/f6OVIC2aBU0BScKcd+PY7Nw38XRoQKfeSAZoghw=
-----END CERTIFICATE-----
