Certificate:
    Data:
        Version: 3 (0x2)
        Serial Number: 32 (0x20)
    Signature Algorithm: sha256WithRSAEncryption
        Issuer: C=US, ST=California, L=Santa Clara, O=pkg5, CN=ta3/emailAddress=ta3
        Validity
            Not Before: Jan  1 01:01:01 2035 GMT
            Not After : Jan  2 01:01:01 2035 GMT
        Subject: C=US, ST=California, L=Santa Clara, O=pkg5, CN=ch1.4_ta3/emailAddress=ch1.4_ta3
        Subject Public Key Info:
            Public Key Algorithm: rsaEncryption
                Public-Key: (2048 bit)
                Modulus:
                    00:bc:aa:df:96:2d:c8:f9:16:38:dc:08:91:65:bb:
                    9e:37:6b:8f:da:bd:c2:94:f2:31:9f:26:c5:d9:93:
                    54:9d:44:af:c4:30:ac:a4:b4:f2:57:ee:44:3d:39:
                    29:30:51:af:08:6d:68:f1:34:ca:27:22:f5:67:a9:
                    23:22:a4:fa:7c:f7:6d:33:05:f7:0b:09:53:d0:e9:
                    e9:14:ff:72:36:e5:9b:d3:e8:f6:30:45:e8:85:19:
                    91:e4:20:d2:3e:3d:b2:e6:1b:44:9f:fd:b0:b9:16:
                    dd:3d:72:3e:87:92:e4:e5:07:d8:8f:81:79:14:75:
                    02:e4:14:b1:1d:ea:34:0f:b9:74:38:25:1e:96:28:
                    f4:88:9a:8d:97:bc:8e:29:96:7c:82:cc:cc:20:bc:
                    8c:c7:12:51:1d:46:6e:c4:0f:df:3a:b9:02:60:91:
                    7c:3c:27:07:f9:88:95:4f:14:0a:cb:22:30:f0:ac:
                    db:ff:d2:d6:28:d1:14:9b:45:6d:6e:b8:89:16:b4:
                    56:6c:61:b3:ea:fa:37:97:3c:67:2d:2e:b3:e8:f9:
                    be:81:c9:24:c1:ca:43:49:ed:6f:d9:7a:ef:03:c2:
                    a7:26:c4:64:39:0a:06:5e:42:e9:8b:cc:16:9f:7e:
                    c7:7d:75:55:fe:65:99:fb:23:f0:21:64:0f:73:5d:
                    98:15
                Exponent: 65537 (0x10001)
        X509v3 extensions:
            X509v3 Subject Key Identifier: 
                90:CC:49:0B:41:F4:CD:03:F8:79:EF:5A:43:DB:44:04:04:72:87:9C
            X509v3 Authority Key Identifier: 
                keyid:57:CF:1E:CF:91:35:77:E9:FA:49:76:FD:9C:6C:D9:E5:DF:4C:B3:4E
                DirName:/C=US/ST=California/L=Santa Clara/O=pkg5/CN=ta3/emailAddress=ta3
                serial:E1:43:D2:D2:D3:D6:B7:D6

            X509v3 Basic Constraints: critical
                CA:TRUE
    Signature Algorithm: sha256WithRSAEncryption
         37:23:7a:f0:20:4e:21:88:6e:ed:7e:b6:04:c1:80:8e:f5:c3:
         69:05:34:d7:4e:fd:e5:d2:16:3e:0f:59:2a:8b:f9:65:7a:cf:
         7e:36:fb:fc:9c:74:62:d6:94:e6:22:59:cd:5f:d2:85:6f:57:
         a7:01:6c:75:90:7f:a0:ef:ee:20:89:c3:79:b7:86:d3:e5:ca:
         bc:aa:7f:a8:43:9e:f0:07:ea:82:47:d7:1f:74:cb:4c:8b:11:
         54:b5:ed:fb:28:55:63:6f:4a:3a:e6:7a:a0:db:10:b9:56:ec:
         fa:a0:83:af:e4:0c:e5:a4:ee:b7:4a:49:08:14:e1:49:2a:7c:
         d4:d9:94:d0:d6:56:1f:7f:e7:18:e4:54:5f:c1:f5:01:9d:86:
         f5:e7:4e:a4:2e:f2:bb:48:01:06:05:19:4f:5a:db:22:ba:b3:
         ab:99:2c:97:7a:90:10:15:aa:f5:c4:cd:9e:84:de:47:62:9e:
         58:3c:74:ac:a6:55:59:dc:68:c0:b6:ac:81:52:e5:3c:67:b7:
         ea:1b:6e:87:c4:fe:85:79:59:33:4d:e6:18:f2:20:14:b7:0c:
         fd:9d:57:f8:fd:27:2e:7e:fa:92:c3:52:6e:a7:ec:d8:b7:7a:
         d0:fe:d4:76:8c:72:fd:aa:49:72:47:d7:a4:ac:85:0e:5e:9b:
         1b:2f:40:e5
-----BEGIN CERTIFICATE-----
MIIEKzCCAxOgAwIBAgIBIDANBgkqhkiG9w0BAQsFADBpMQswCQYDVQQGEwJVUzET
MBEGA1UECAwKQ2FsaWZvcm5pYTEUMBIGA1UEBwwLU2FudGEgQ2xhcmExDTALBgNV
BAoMBHBrZzUxDDAKBgNVBAMMA3RhMzESMBAGCSqGSIb3DQEJARYDdGEzMB4XDTM1
MDEwMTAxMDEwMVoXDTM1MDEwMjAxMDEwMVowdTELMAkGA1UEBhMCVVMxEzARBgNV
BAgMCkNhbGlmb3JuaWExFDASBgNVBAcMC1NhbnRhIENsYXJhMQ0wCwYDVQQKDARw
a2c1MRIwEAYDVQQDDAljaDEuNF90YTMxGDAWBgkqhkiG9w0BCQEWCWNoMS40X3Rh
MzCCASIwDQYJKoZIhvcNAQEBBQADggEPADCCAQoCggEBALyq35YtyPkWONwIkWW7
njdrj9q9wpTyMZ8mxdmTVJ1Er8QwrKS08lfuRD05KTBRrwhtaPE0yici9WepIyKk
+nz3bTMF9wsJU9Dp6RT/cjblm9Po9jBF6IUZkeQg0j49suYbRJ/9sLkW3T1yPoeS
5OUH2I+BeRR1AuQUsR3qNA+5dDglHpYo9IiajZe8jimWfILMzCC8jMcSUR1GbsQP
3zq5AmCRfDwnB/mIlU8UCssiMPCs2//S1ijRFJtFbW64iRa0Vmxhs+r6N5c8Zy0u
s+j5voHJJMHKQ0ntb9l67wPCpybEZDkKBl5C6YvMFp9+x311Vf5lmfsj8CFkD3Nd
mBUCAwEAAaOB0TCBzjAdBgNVHQ4EFgQUkMxJC0H0zQP4ee9aQ9tEBARyh5wwgZsG
A1UdIwSBkzCBkIAUV88ez5E1d+n6SXb9nGzZ5d9Ms06hbaRrMGkxCzAJBgNVBAYT
AlVTMRMwEQYDVQQIDApDYWxpZm9ybmlhMRQwEgYDVQQHDAtTYW50YSBDbGFyYTEN
MAsGA1UECgwEcGtnNTEMMAoGA1UEAwwDdGEzMRIwEAYJKoZIhvcNAQkBFgN0YTOC
CQDhQ9LS09a31jAPBgNVHRMBAf8EBTADAQH/MA0GCSqGSIb3DQEBCwUAA4IBAQA3
I3rwIE4hiG7tfrYEwYCO9cNpBTTXTv3l0hY+D1kqi/lles9+Nvv8nHRi1pTmIlnN
X9KFb1enAWx1kH+g7+4gicN5t4bT5cq8qn+oQ57wB+qCR9cfdMtMixFUte37KFVj
b0o65nqg2xC5Vuz6oIOv5AzlpO63SkkIFOFJKnzU2ZTQ1lYff+cY5FRfwfUBnYb1
506kLvK7SAEGBRlPWtsiurOrmSyXepAQFar1xM2ehN5HYp5YPHSsplVZ3GjAtqyB
UuU8Z7fqG26HxP6FeVkzTeYY8iAUtwz9nVf4/ScufvqSw1Jup+zYt3rQ/tR2jHL9
qklyR9ekrIUOXpsbL0Dl
-----END CERTIFICATE-----
