Certificate:
    Data:
        Version: 3 (0x2)
        Serial Number: 30 (0x1e)
    Signature Algorithm: sha256WithRSAEncryption
        Issuer: C=US, ST=California, L=Santa Clara, O=pkg5, CN=ta3/emailAddress=ta3
        Validity
            Not Before: Jan  1 01:01:01 2035 GMT
            Not After : Jan  2 01:01:01 2035 GMT
        Subject: C=US, ST=California, L=Santa Clara, O=pkg5, CN=ch1.3_ta3/emailAddress=ch1.3_ta3
        Subject Public Key Info:
            Public Key Algorithm: rsaEncryption
                Public-Key: (2048 bit)
                Modulus:
                    00:a2:49:cd:4d:c4:a9:83:71:cd:4a:51:c4:14:ae:
                    44:5f:32:b2:5f:e0:75:9d:06:56:25:0a:59:7b:34:
                    b9:73:0c:4f:70:55:54:3d:43:fe:ce:3a:7b:6e:06:
                    97:ee:89:31:81:e5:ef:75:97:8b:fc:62:e5:7f:dd:
                    45:66:be:e1:69:c2:00:fd:bc:7f:73:05:18:ca:02:
                    12:07:d4:ae:73:c1:ae:8c:9f:4e:dc:ee:5e:76:d3:
                    0b:36:c2:3c:08:b0:41:17:9a:1d:0a:2c:9c:cb:ab:
                    20:ab:2b:4f:9d:d1:d2:cc:3d:00:65:07:f9:2a:bb:
                    69:87:b9:ec:3c:22:8d:2e:b3:6c:7c:dd:09:e7:2c:
                    b7:1e:18:e8:49:5c:ff:cd:31:4f:bc:8c:d3:c9:00:
                    2f:74:ea:52:66:34:37:c4:2c:c5:fa:a4:d4:7d:69:
                    a7:8f:72:75:22:1c:8d:3f:af:fa:98:52:b6:dd:60:
                    04:48:81:47:ab:71:f5:e2:e3:c2:c3:e2:ef:c5:90:
                    db:ce:59:3a:fc:e5:c1:7e:a4:d3:ca:e1:cb:33:9c:
                    06:e8:a9:ab:ad:d5:a8:e3:cc:15:a9:c6:73:58:1c:
                    75:05:b1:c1:51:68:ad:dd:72:37:6d:0f:e1:eb:f5:
                    fd:97:82:16:0b:fd:5b:58:47:94:c8:e0:a3:7f:2d:
                    03:89
                Exponent: 65537 (0x10001)
        X509v3 extensions:
            X509v3 Subject Key Identifier: 
                01:11:17:2B:48:D6:B5:F5:65:E1:14:EB:72:C2:56:0F:75:2A:A4:47
            X509v3 Authority Key Identifier: 
                keyid:57:CF:1E:CF:91:35:77:E9:FA:49:76:FD:9C:6C:D9:E5:DF:4C:B3:4E
                DirName:/C=US/ST=California/L=Santa Clara/O=pkg5/CN=ta3/emailAddress=ta3
                serial:E1:43:D2:D2:D3:D6:B7:D6

            X509v3 Basic Constraints: critical
                CA:TRUE
            X509v3 Key Usage: critical
                Certificate Sign, CRL Sign
    Signature Algorithm: sha256WithRSAEncryption
         5e:e7:ef:be:c7:60:cc:49:ba:5c:86:04:41:67:60:df:29:5a:
         f6:c7:b3:ea:f5:bb:6d:18:e5:06:ff:c5:de:78:51:08:be:f4:
         b8:2c:c0:fc:dd:78:8d:96:69:b1:c4:22:e2:60:e1:76:9a:3e:
         03:3a:47:5d:3d:49:d0:cf:f3:3a:72:04:ad:7e:7c:23:60:97:
         e0:98:1f:ba:2a:34:02:b1:10:54:88:a6:4f:0b:31:cf:80:ff:
         0d:37:88:9a:fe:cf:d3:b7:24:31:fa:f7:87:5b:d3:6f:3c:ee:
         06:5c:c7:33:9e:ad:b6:65:31:db:dc:e1:e6:55:fd:79:54:91:
         28:bc:a3:a9:d4:30:fc:bb:28:81:ad:66:04:5e:75:88:28:ce:
         fd:4e:36:69:c2:a5:09:71:22:5f:c3:81:2e:b9:8e:1f:6b:0d:
         6e:de:a5:98:d4:8d:bb:a3:8f:bf:a1:65:ae:ea:c2:5e:df:f3:
         b0:e0:d7:c4:91:98:2d:80:75:d3:5a:b9:d8:92:71:36:8f:ce:
         4a:cd:e1:f2:86:6e:55:e9:96:f7:6f:16:fb:48:0d:f9:2e:07:
         a7:50:7f:fc:ae:26:f2:4b:70:28:51:2e:46:4d:1a:e7:b8:e6:
         a0:38:41:00:ac:7c:34:e0:7e:87:2a:da:c1:27:64:1a:9a:be:
         42:d5:52:a9
-----BEGIN CERTIFICATE-----
MIIEOzCCAyOgAwIBAgIBHjANBgkqhkiG9w0BAQsFADBpMQswCQYDVQQGEwJVUzET
MBEGA1UECAwKQ2FsaWZvcm5pYTEUMBIGA1UEBwwLU2FudGEgQ2xhcmExDTALBgNV
BAoMBHBrZzUxDDAKBgNVBAMMA3RhMzESMBAGCSqGSIb3DQEJARYDdGEzMB4XDTM1
MDEwMTAxMDEwMVoXDTM1MDEwMjAxMDEwMVowdTELMAkGA1UEBhMCVVMxEzARBgNV
BAgMCkNhbGlmb3JuaWExFDASBgNVBAcMC1NhbnRhIENsYXJhMQ0wCwYDVQQKDARw
a2c1MRIwEAYDVQQDDAljaDEuM190YTMxGDAWBgkqhkiG9w0BCQEWCWNoMS4zX3Rh
MzCCASIwDQYJKoZIhvcNAQEBBQADggEPADCCAQoCggEBAKJJzU3EqYNxzUpRxBSu
RF8ysl/gdZ0GViUKWXs0uXMMT3BVVD1D/s46e24Gl+6JMYHl73WXi/xi5X/dRWa+
4WnCAP28f3MFGMoCEgfUrnPBroyfTtzuXnbTCzbCPAiwQReaHQosnMurIKsrT53R
0sw9AGUH+Sq7aYe57DwijS6zbHzdCecstx4Y6Elc/80xT7yM08kAL3TqUmY0N8Qs
xfqk1H1pp49ydSIcjT+v+phStt1gBEiBR6tx9eLjwsPi78WQ285ZOvzlwX6k08rh
yzOcBuipq63VqOPMFanGc1gcdQWxwVFord1yN20P4ev1/ZeCFgv9W1hHlMjgo38t
A4kCAwEAAaOB4TCB3jAdBgNVHQ4EFgQUAREXK0jWtfVl4RTrcsJWD3UqpEcwgZsG
A1UdIwSBkzCBkIAUV88ez5E1d+n6SXb9nGzZ5d9Ms06hbaRrMGkxCzAJBgNVBAYT
AlVTMRMwEQYDVQQIDApDYWxpZm9ybmlhMRQwEgYDVQQHDAtTYW50YSBDbGFyYTEN
MAsGA1UECgwEcGtnNTEMMAoGA1UEAwwDdGEzMRIwEAYJKoZIhvcNAQkBFgN0YTOC
CQDhQ9LS09a31jAPBgNVHRMBAf8EBTADAQH/MA4GA1UdDwEB/wQEAwIBBjANBgkq
hkiG9w0BAQsFAAOCAQEAXufvvsdgzEm6XIYEQWdg3yla9sez6vW7bRjlBv/F3nhR
CL70uCzA/N14jZZpscQi4mDhdpo+AzpHXT1J0M/zOnIErX58I2CX4Jgfuio0ArEQ
VIimTwsxz4D/DTeImv7P07ckMfr3h1vTbzzuBlzHM56ttmUx29zh5lX9eVSRKLyj
qdQw/Lsoga1mBF51iCjO/U42acKlCXEiX8OBLrmOH2sNbt6lmNSNu6OPv6FlrurC
Xt/zsODXxJGYLYB101q52JJxNo/OSs3h8oZuVemW928W+0gN+S4Hp1B//K4m8ktw
KFEuRk0a57jmoDhBAKx8NOB+hyrawSdkGpq+QtVSqQ==
-----END CERTIFICATE-----
