Certificate:
    Data:
        Version: 3 (0x2)
        Serial Number: 33 (0x21)
    Signature Algorithm: sha256WithRSAEncryption
        Issuer: C=US, ST=California, L=Santa Clara, O=pkg5, CN=ta3/emailAddress=ta3
        Validity
            Not Before: Jan  1 01:01:01 2035 GMT
            Not After : Jan  2 01:01:01 2035 GMT
        Subject: C=US, ST=California, L=Santa Clara, O=pkg5, CN=ch1.4_ta3/emailAddress=ch1.4_ta3
        Subject Public Key Info:
            Public Key Algorithm: rsaEncryption
                Public-Key: (2048 bit)
                Modulus:
                    00:c9:ca:c7:e9:a2:e1:6a:4e:7f:6d:62:dd:79:bc:
                    1e:f4:df:ae:1a:8d:16:2d:2c:70:b8:fc:37:13:d8:
                    5b:5d:d9:a0:15:bc:b0:a8:16:50:e5:2d:e0:42:d1:
                    ff:d0:13:01:fa:a1:b3:40:c0:3f:2e:ee:c4:99:a1:
                    3c:25:4d:47:79:a6:73:df:1f:22:67:21:28:d4:12:
                    75:70:ba:d8:a0:7c:e4:e1:63:9d:70:72:6d:c8:a6:
                    f0:fa:7d:ac:d7:32:1e:32:65:20:97:f5:92:2c:6d:
                    aa:dd:71:0d:8d:45:ef:95:19:00:c2:82:f1:66:f7:
                    e9:75:e5:65:a2:70:17:ab:70:45:0d:e9:5c:67:ad:
                    96:81:ad:e8:21:50:6b:62:40:83:ed:a4:46:d4:7d:
                    cf:1e:33:79:36:90:5f:fc:02:dc:4f:ff:b7:23:4d:
                    3a:2f:0b:82:85:81:3a:d9:6c:1c:7b:9b:94:07:11:
                    29:84:c2:7c:42:8c:bf:7e:a7:5a:08:c9:3a:98:6c:
                    0b:28:7e:81:4a:59:bf:a7:b5:ba:dc:d6:22:fd:12:
                    41:34:47:22:53:36:0f:f4:09:42:c7:c5:eb:2f:4d:
                    38:a1:0b:70:c8:31:f5:59:1d:8b:fa:5b:d3:87:53:
                    31:20:85:69:03:4d:21:7f:bf:57:5a:6a:7f:3a:c9:
                    7b:5f
                Exponent: 65537 (0x10001)
        X509v3 extensions:
            X509v3 Subject Key Identifier: 
                87:04:88:47:90:1C:A7:67:FA:B1:D2:3E:65:8F:A3:70:FB:56:4F:11
            X509v3 Authority Key Identifier: 
                keyid:4C:EE:7A:92:F7:45:DA:A1:2E:59:D7:E3:23:97:1A:D5:42:CD:2D:5D
                DirName:/C=US/ST=California/L=Santa Clara/O=pkg5/CN=ta3/emailAddress=ta3
                serial:A8:47:DE:86:A2:39:3F:56

            X509v3 Basic Constraints: critical
                CA:TRUE
    Signature Algorithm: sha256WithRSAEncryption
         0e:f6:29:af:84:9d:5f:4a:6f:26:9f:90:97:d3:6e:f9:db:38:
         55:59:f7:72:18:82:c3:65:37:10:aa:cf:80:cf:d7:c9:cb:61:
         49:62:a8:80:c7:dc:da:58:03:53:0a:81:b9:b2:6d:87:7b:6b:
         8d:aa:6f:63:cb:2c:6b:6a:4b:56:16:d8:78:c6:66:d9:40:6e:
         73:4a:e7:a9:eb:a0:03:3a:a3:a4:f2:84:8b:ea:ce:04:08:91:
         fa:3b:40:b1:ae:d8:5a:50:ed:de:ec:d6:d1:7e:e2:74:50:7f:
         d5:8d:49:a4:85:47:a1:b5:65:7f:6f:ea:93:4f:f1:e4:2e:98:
         e4:1a:f0:06:e0:a3:9e:73:1e:8e:1a:f5:ec:09:16:91:17:75:
         80:ba:fa:46:fc:c1:f6:14:96:f1:6d:fc:32:08:fc:9b:b9:d5:
         5e:87:9f:cf:1d:56:ef:30:52:3a:76:73:b2:ba:b4:57:cf:ff:
         cb:be:53:e2:80:76:96:56:cd:7f:af:97:08:51:c6:8e:af:02:
         aa:d5:8e:55:0a:ee:54:9c:f3:e3:56:3a:6d:13:38:ee:75:a7:
         d5:66:72:69:8b:9e:d7:d4:05:e8:f0:ff:4b:1b:a7:77:df:22:
         df:f7:bb:26:99:5f:41:17:b4:6c:0a:50:a1:4c:0d:5d:84:5b:
         b9:1a:47:c7
-----BEGIN CERTIFICATE-----
MIIEKzCCAxOgAwIBAgIBITANBgkqhkiG9w0BAQsFADBpMQswCQYDVQQGEwJVUzET
MBEGA1UECAwKQ2FsaWZvcm5pYTEUMBIGA1UEBwwLU2FudGEgQ2xhcmExDTALBgNV
BAoMBHBrZzUxDDAKBgNVBAMMA3RhMzESMBAGCSqGSIb3DQEJARYDdGEzMB4XDTM1
MDEwMTAxMDEwMVoXDTM1MDEwMjAxMDEwMVowdTELMAkGA1UEBhMCVVMxEzARBgNV
BAgMCkNhbGlmb3JuaWExFDASBgNVBAcMC1NhbnRhIENsYXJhMQ0wCwYDVQQKDARw
a2c1MRIwEAYDVQQDDAljaDEuNF90YTMxGDAWBgkqhkiG9w0BCQEWCWNoMS40X3Rh
MzCCASIwDQYJKoZIhvcNAQEBBQADggEPADCCAQoCggEBAMnKx+mi4WpOf21i3Xm8
HvTfrhqNFi0scLj8NxPYW13ZoBW8sKgWUOUt4ELR/9ATAfqhs0DAPy7uxJmhPCVN
R3mmc98fImchKNQSdXC62KB85OFjnXBybcim8Pp9rNcyHjJlIJf1kixtqt1xDY1F
75UZAMKC8Wb36XXlZaJwF6twRQ3pXGetloGt6CFQa2JAg+2kRtR9zx4zeTaQX/wC
3E//tyNNOi8LgoWBOtlsHHublAcRKYTCfEKMv36nWgjJOphsCyh+gUpZv6e1utzW
Iv0SQTRHIlM2D/QJQsfF6y9NOKELcMgx9Vkdi/pb04dTMSCFaQNNIX+/V1pqfzrJ
e18CAwEAAaOB0TCBzjAdBgNVHQ4EFgQUhwSIR5Acp2f6sdI+ZY+jcPtWTxEwgZsG
A1UdIwSBkzCBkIAUTO56kvdF2qEuWdfjI5ca1ULNLV2hbaRrMGkxCzAJBgNVBAYT
AlVTMRMwEQYDVQQIDApDYWxpZm9ybmlhMRQwEgYDVQQHDAtTYW50YSBDbGFyYTEN
MAsGA1UECgwEcGtnNTEMMAoGA1UEAwwDdGEzMRIwEAYJKoZIhvcNAQkBFgN0YTOC
CQCoR96Gojk/VjAPBgNVHRMBAf8EBTADAQH/MA0GCSqGSIb3DQEBCwUAA4IBAQAO
9imvhJ1fSm8mn5CX02752zhVWfdyGILDZTcQqs+Az9fJy2FJYqiAx9zaWANTCoG5
sm2He2uNqm9jyyxraktWFth4xmbZQG5zSuep66ADOqOk8oSL6s4ECJH6O0Cxrtha
UO3e7NbRfuJ0UH/VjUmkhUehtWV/b+qTT/HkLpjkGvAG4KOecx6OGvXsCRaRF3WA
uvpG/MH2FJbxbfwyCPybudVeh5/PHVbvMFI6dnOyurRXz//LvlPigHaWVs1/r5cI
UcaOrwKq1Y5VCu5UnPPjVjptEzjudafVZnJpi57X1AXo8P9LG6d33yLf97smmV9B
F7RsClChTA1dhFu5GkfH
-----END CERTIFICATE-----
