Certificate:
    Data:
        Version: 3 (0x2)
        Serial Number: 29 (0x1d)
    Signature Algorithm: sha256WithRSAEncryption
        Issuer: C=US, ST=California, L=Santa Clara, O=pkg5, CN=ta3/emailAddress=ta3
        Validity
            Not Before: Jan  1 01:01:01 2009 GMT
            Not After : Jan  2 01:01:01 2009 GMT
        Subject: C=US, ST=California, L=Santa Clara, O=pkg5, CN=ch1.2_ta3/emailAddress=ch1.2_ta3
        Subject Public Key Info:
            Public Key Algorithm: rsaEncryption
                Public-Key: (2048 bit)
                Modulus:
                    00:e1:86:ba:2d:d1:0d:56:65:8e:aa:ae:26:7c:f9:
                    a0:19:6d:c1:48:04:51:00:ed:25:81:76:01:6a:0a:
                    83:12:ac:9c:0a:03:9a:ca:44:80:84:7f:85:48:0c:
                    f4:f0:49:4a:4b:73:3c:0e:9e:d9:c5:29:ef:a6:72:
                    e2:1d:64:6d:c2:f7:2a:8b:d8:f5:5d:ed:fc:aa:87:
                    ac:18:7c:25:df:ca:e9:64:44:68:83:ef:1d:24:27:
                    c3:c4:d0:17:80:a2:6d:b3:06:2d:61:84:6c:ff:27:
                    aa:5f:52:b5:94:71:1d:9b:5a:2a:f9:e4:bf:9b:ab:
                    43:5f:a8:62:d4:03:ee:ac:ee:fa:ac:f2:50:79:d5:
                    a9:5c:a1:ac:99:00:72:08:f7:8f:3b:e5:a2:3c:48:
                    07:e7:17:b6:8d:ea:a4:c7:26:84:65:47:a1:ae:98:
                    fd:38:62:94:90:fc:b0:f5:5a:c9:01:08:de:39:b3:
                    9a:f2:01:06:09:65:88:64:a1:0e:7b:30:1d:5b:9d:
                    1a:1e:7c:7c:2f:d8:ca:8b:24:e3:63:e1:d4:fc:6f:
                    fd:58:51:ab:b9:20:91:e4:4b:eb:fd:97:17:d4:22:
                    0f:fa:fa:09:60:9b:84:5f:ec:29:2b:6e:e2:99:a8:
                    aa:4b:f7:21:f6:6a:7f:48:f8:c8:f7:dd:5d:df:a4:
                    1a:21
                Exponent: 65537 (0x10001)
        X509v3 extensions:
            X509v3 Subject Key Identifier: 
                89:47:C9:FA:EE:8E:05:87:39:FB:FE:33:48:9C:21:1A:9D:9C:C6:5F
            X509v3 Authority Key Identifier: 
                keyid:4C:EE:7A:92:F7:45:DA:A1:2E:59:D7:E3:23:97:1A:D5:42:CD:2D:5D
                DirName:/C=US/ST=California/L=Santa Clara/O=pkg5/CN=ta3/emailAddress=ta3
                serial:A8:47:DE:86:A2:39:3F:56

            X509v3 Basic Constraints: critical
                CA:TRUE
            X509v3 Key Usage: critical
                Certificate Sign, CRL Sign
    Signature Algorithm: sha256WithRSAEncryption
         b0:af:a0:e6:37:cd:b9:ff:5f:16:ff:70:19:9e:7d:93:ea:ef:
         d2:a1:09:6c:50:b1:0a:d0:f6:80:d4:43:a5:5e:52:98:d9:39:
         43:47:8f:91:65:74:f4:17:c8:72:3b:d9:0d:e8:b0:01:f0:01:
         75:d3:4b:e6:6a:0b:99:cb:58:ea:4a:00:2b:df:f0:e5:4f:75:
         2f:3b:cd:9b:07:43:2c:3e:11:69:89:c5:57:c6:73:94:6b:a7:
         5a:f7:1f:34:05:40:ed:17:97:36:bc:ca:d0:c9:d5:9d:cf:ce:
         64:dd:21:ba:f4:c0:ef:dd:ef:57:d4:f5:e1:41:8a:da:8a:a9:
         0e:e9:fd:4a:b8:11:6e:00:00:52:d6:eb:67:ce:5c:ba:b9:9d:
         68:ec:23:f4:a1:90:e8:be:34:01:ae:6c:57:fd:11:0d:f9:d8:
         9f:4c:ae:84:ac:7e:ce:c2:ea:7f:26:de:50:67:fc:a4:98:0d:
         57:99:60:39:d9:be:9a:1e:7a:73:9c:45:3e:da:11:cc:db:73:
         f6:be:0e:6e:af:63:4e:5e:9a:e8:11:a4:04:d6:13:83:e1:65:
         06:c7:d2:0a:17:08:5d:ac:6f:f9:d7:5f:b3:f1:d8:01:6c:47:
         59:38:0e:dd:ae:d7:49:a9:e7:f4:20:a1:3f:2f:99:f3:09:c6:
         6c:74:85:26
-----BEGIN CERTIFICATE-----
MIIEOzCCAyOgAwIBAgIBHTANBgkqhkiG9w0BAQsFADBpMQswCQYDVQQGEwJVUzET
MBEGA1UECAwKQ2FsaWZvcm5pYTEUMBIGA1UEBwwLU2FudGEgQ2xhcmExDTALBgNV
BAoMBHBrZzUxDDAKBgNVBAMMA3RhMzESMBAGCSqGSIb3DQEJARYDdGEzMB4XDTA5
MDEwMTAxMDEwMVoXDTA5MDEwMjAxMDEwMVowdTELMAkGA1UEBhMCVVMxEzARBgNV
BAgMCkNhbGlmb3JuaWExFDASBgNVBAcMC1NhbnRhIENsYXJhMQ0wCwYDVQQKDARw
a2c1MRIwEAYDVQQDDAljaDEuMl90YTMxGDAWBgkqhkiG9w0BCQEWCWNoMS4yX3Rh
MzCCASIwDQYJKoZIhvcNAQEBBQADggEPADCCAQoCggEBAOGGui3RDVZljqquJnz5
oBltwUgEUQDtJYF2AWoKgxKsnAoDmspEgIR/hUgM9PBJSktzPA6e2cUp76Zy4h1k
bcL3KovY9V3t/KqHrBh8Jd/K6WREaIPvHSQnw8TQF4CibbMGLWGEbP8nql9StZRx
HZtaKvnkv5urQ1+oYtQD7qzu+qzyUHnVqVyhrJkAcgj3jzvlojxIB+cXto3qpMcm
hGVHoa6Y/ThilJD8sPVayQEI3jmzmvIBBglliGShDnswHVudGh58fC/Yyosk42Ph
1Pxv/VhRq7kgkeRL6/2XF9QiD/r6CWCbhF/sKStu4pmoqkv3IfZqf0j4yPfdXd+k
GiECAwEAAaOB4TCB3jAdBgNVHQ4EFgQUiUfJ+u6OBYc5+/4zSJwhGp2cxl8wgZsG
A1UdIwSBkzCBkIAUTO56kvdF2qEuWdfjI5ca1ULNLV2hbaRrMGkxCzAJBgNVBAYT
AlVTMRMwEQYDVQQIDApDYWxpZm9ybmlhMRQwEgYDVQQHDAtTYW50YSBDbGFyYTEN
MAsGA1UECgwEcGtnNTEMMAoGA1UEAwwDdGEzMRIwEAYJKoZIhvcNAQkBFgN0YTOC
CQCoR96Gojk/VjAPBgNVHRMBAf8EBTADAQH/MA4GA1UdDwEB/wQEAwIBBjANBgkq
hkiG9w0BAQsFAAOCAQEAsK+g5jfNuf9fFv9wGZ59k+rv0qEJbFCxCtD2gNRDpV5S
mNk5Q0ePkWV09BfIcjvZDeiwAfABddNL5moLmctY6koAK9/w5U91LzvNmwdDLD4R
aYnFV8ZzlGunWvcfNAVA7ReXNrzK0MnVnc/OZN0huvTA793vV9T14UGK2oqpDun9
SrgRbgAAUtbrZ85curmdaOwj9KGQ6L40Aa5sV/0RDfnYn0yuhKx+zsLqfybeUGf8
pJgNV5lgOdm+mh56c5xFPtoRzNtz9r4Obq9jTl6a6BGkBNYTg+FlBsfSChcIXaxv
+ddfs/HYAWxHWTgO3a7XSann9CChPy+Z8wnGbHSFJg==
-----END CERTIFICATE-----
