Certificate:
    Data:
        Version: 3 (0x2)
        Serial Number: 28 (0x1c)
    Signature Algorithm: sha256WithRSAEncryption
        Issuer: C=US, ST=California, L=Santa Clara, O=pkg5, CN=ta3/emailAddress=ta3
        Validity
            Not Before: Jan  1 01:01:01 2009 GMT
            Not After : Jan  2 01:01:01 2009 GMT
        Subject: C=US, ST=California, L=Santa Clara, O=pkg5, CN=ch1.2_ta3/emailAddress=ch1.2_ta3
        Subject Public Key Info:
            Public Key Algorithm: rsaEncryption
                Public-Key: (2048 bit)
                Modulus:
                    00:c0:d1:91:00:36:fe:1a:b5:e4:41:6e:1e:ac:92:
                    06:f8:36:c9:2a:fe:fe:75:b0:37:a5:8d:7e:2f:4e:
                    4a:64:bb:79:6d:e2:96:8b:c7:bc:6d:e9:a8:3a:a1:
                    49:9f:f3:84:34:f4:b4:43:7d:e6:eb:81:01:d5:74:
                    a7:a0:d2:4f:7d:18:b5:30:67:97:16:58:66:c8:18:
                    fb:7d:c2:88:e0:d4:ec:d7:49:b1:06:6e:b3:b5:00:
                    2a:87:c9:bf:90:93:a0:77:c3:57:1c:ec:c6:52:fc:
                    9e:06:ca:a8:6a:a2:6b:d2:fd:1a:49:b4:62:2f:99:
                    b5:8c:8b:d0:de:53:f4:90:e0:b9:a7:57:95:79:5e:
                    eb:e6:c2:68:e2:71:ba:be:5d:dd:0d:3c:60:7f:e6:
                    9d:19:72:ff:10:87:60:54:19:80:5d:f6:de:47:e7:
                    1d:46:59:a1:4f:05:c8:83:e3:50:86:81:a9:72:47:
                    e1:e3:cb:86:55:65:83:8f:e4:38:5d:7a:32:93:f2:
                    de:e9:79:d5:90:b1:49:59:8d:aa:41:a7:3a:b9:27:
                    68:67:4b:b3:92:f4:2e:9d:3b:c9:3d:04:5b:b9:6f:
                    ec:5d:33:54:a9:28:9d:eb:b9:b5:5a:21:62:21:50:
                    cc:bf:90:2a:ab:69:58:23:9f:8d:a3:06:9a:1a:12:
                    a2:45
                Exponent: 65537 (0x10001)
        X509v3 extensions:
            X509v3 Subject Key Identifier: 
                16:48:6E:0A:0A:65:4D:E5:85:95:8C:4E:15:DB:4F:49:BA:38:1A:8C
            X509v3 Authority Key Identifier: 
                keyid:57:CF:1E:CF:91:35:77:E9:FA:49:76:FD:9C:6C:D9:E5:DF:4C:B3:4E
                DirName:/C=US/ST=California/L=Santa Clara/O=pkg5/CN=ta3/emailAddress=ta3
                serial:E1:43:D2:D2:D3:D6:B7:D6

            X509v3 Basic Constraints: critical
                CA:TRUE
            X509v3 Key Usage: critical
                Certificate Sign, CRL Sign
    Signature Algorithm: sha256WithRSAEncryption
         90:4f:66:cc:0b:b0:f9:c6:85:57:06:e0:b0:27:06:df:a1:74:
         a8:59:b0:7e:51:7a:2a:1d:a6:58:f5:e8:ff:c6:9f:97:e1:2e:
         12:46:97:8b:b5:c8:fe:ab:e2:76:a2:11:be:56:1a:e4:ff:e7:
         46:c2:b6:89:75:e2:7a:98:5e:82:c9:e3:35:05:83:7b:c9:1c:
         96:e6:44:42:e7:6b:ca:6a:68:ba:26:62:db:82:6d:40:31:2f:
         30:e7:fe:23:bf:96:ff:00:d4:82:28:de:b9:aa:41:4f:52:dd:
         6e:25:5b:31:4b:77:73:a3:55:54:58:9e:3e:ad:d1:f3:4b:40:
         2e:5b:62:74:e4:eb:23:ef:da:3c:5f:ad:52:c6:e4:1b:aa:5a:
         41:3f:d1:f0:88:ee:8e:3d:b0:04:71:6c:e6:5b:54:e8:44:c8:
         e9:3d:30:e7:13:ca:c4:e5:0c:07:fc:75:31:4c:43:9c:61:a2:
         e0:aa:99:3c:b1:ca:35:b6:6e:3d:3e:99:7c:0a:24:7d:b4:56:
         9d:b1:41:77:95:ba:01:31:d3:18:3f:8e:ff:bb:7d:7a:67:f1:
         13:1b:bf:4a:f7:ff:78:42:74:ab:49:25:6d:96:32:58:91:8b:
         de:2b:88:36:eb:bb:c8:ab:d1:9a:91:73:2f:2a:dc:ef:ea:f8:
         b3:bf:98:35
-----BEGIN CERTIFICATE-----
MIIEOzCCAyOgAwIBAgIBHDANBgkqhkiG9w0BAQsFADBpMQswCQYDVQQGEwJVUzET
MBEGA1UECAwKQ2FsaWZvcm5pYTEUMBIGA1UEBwwLU2FudGEgQ2xhcmExDTALBgNV
BAoMBHBrZzUxDDAKBgNVBAMMA3RhMzESMBAGCSqGSIb3DQEJARYDdGEzMB4XDTA5
MDEwMTAxMDEwMVoXDTA5MDEwMjAxMDEwMVowdTELMAkGA1UEBhMCVVMxEzARBgNV
BAgMCkNhbGlmb3JuaWExFDASBgNVBAcMC1NhbnRhIENsYXJhMQ0wCwYDVQQKDARw
a2c1MRIwEAYDVQQDDAljaDEuMl90YTMxGDAWBgkqhkiG9w0BCQEWCWNoMS4yX3Rh
MzCCASIwDQYJKoZIhvcNAQEBBQADggEPADCCAQoCggEBAMDRkQA2/hq15EFuHqyS
Bvg2ySr+/nWwN6WNfi9OSmS7eW3ilovHvG3pqDqhSZ/zhDT0tEN95uuBAdV0p6DS
T30YtTBnlxZYZsgY+33CiODU7NdJsQZus7UAKofJv5CToHfDVxzsxlL8ngbKqGqi
a9L9Gkm0Yi+ZtYyL0N5T9JDguadXlXle6+bCaOJxur5d3Q08YH/mnRly/xCHYFQZ
gF323kfnHUZZoU8FyIPjUIaBqXJH4ePLhlVlg4/kOF16MpPy3ul51ZCxSVmNqkGn
OrknaGdLs5L0Lp07yT0EW7lv7F0zVKkoneu5tVohYiFQzL+QKqtpWCOfjaMGmhoS
okUCAwEAAaOB4TCB3jAdBgNVHQ4EFgQUFkhuCgplTeWFlYxOFdtPSbo4GowwgZsG
A1UdIwSBkzCBkIAUV88ez5E1d+n6SXb9nGzZ5d9Ms06hbaRrMGkxCzAJBgNVBAYT
AlVTMRMwEQYDVQQIDApDYWxpZm9ybmlhMRQwEgYDVQQHDAtTYW50YSBDbGFyYTEN
MAsGA1UECgwEcGtnNTEMMAoGA1UEAwwDdGEzMRIwEAYJKoZIhvcNAQkBFgN0YTOC
CQDhQ9LS09a31jAPBgNVHRMBAf8EBTADAQH/MA4GA1UdDwEB/wQEAwIBBjANBgkq
hkiG9w0BAQsFAAOCAQEAkE9mzAuw+caFVwbgsCcG36F0qFmwflF6Kh2mWPXo/8af
l+EuEkaXi7XI/qvidqIRvlYa5P/nRsK2iXXiephegsnjNQWDe8kcluZEQudrympo
uiZi24JtQDEvMOf+I7+W/wDUgijeuapBT1LdbiVbMUt3c6NVVFiePq3R80tALlti
dOTrI+/aPF+tUsbkG6paQT/R8Ijujj2wBHFs5ltU6ETI6T0w5xPKxOUMB/x1MUxD
nGGi4KqZPLHKNbZuPT6ZfAokfbRWnbFBd5W6ATHTGD+O/7t9emfxExu/Svf/eEJ0
q0klbZYyWJGL3iuINuu7yKvRmpFzLyrc7+r4s7+YNQ==
-----END CERTIFICATE-----
