Certificate:
    Data:
        Version: 3 (0x2)
        Serial Number: 1 (0x1)
    Signature Algorithm: sha256WithRSAEncryption
        Issuer: C=US, ST=California, L=Santa Clara, O=pkg5, CN=ta1/emailAddress=ta1
        Validity
            Not Before: Jul  3 14:13:57 2018 GMT
            Not After : Mar 29 14:13:57 2021 GMT
        Subject: C=US, ST=California, L=Santa Clara, O=pkg5, CN=ch1_ta1/emailAddress=ch1_ta1
        Subject Public Key Info:
            Public Key Algorithm: rsaEncryption
                Public-Key: (2048 bit)
                Modulus:
                    00:b8:99:28:46:76:3d:a6:59:6d:82:34:46:7b:89:
                    6c:81:37:96:c3:4d:bf:36:27:b2:dd:9b:39:3f:c1:
                    fb:07:87:4c:48:13:14:32:76:0a:f4:b9:29:5c:b2:
                    7c:4f:2e:ac:be:2b:a4:43:63:42:d1:06:43:77:14:
                    a0:96:34:f4:73:d3:5f:dd:9c:f2:2a:a5:67:eb:15:
                    d0:86:90:fb:77:b3:99:af:58:3c:9d:97:6c:de:bc:
                    73:fd:f1:89:25:8c:42:aa:59:b4:a2:1a:f9:5c:b0:
                    c1:c7:bb:03:82:c3:68:64:fa:93:ea:e8:1b:57:44:
                    fa:a8:ad:39:39:44:2f:30:ca:3c:b6:4f:e4:4c:ae:
                    e1:fc:cf:69:d1:ce:eb:c0:8b:66:0a:fd:dc:1b:e8:
                    6e:85:fb:5e:bf:d9:1a:46:4a:f2:bf:64:46:46:fc:
                    a0:16:32:fc:22:f9:8e:ea:23:60:2f:39:54:fc:20:
                    7f:57:52:c5:be:d3:0e:cd:4f:2b:95:f2:22:20:40:
                    36:6b:b5:d6:eb:66:c4:1b:a8:fe:f2:ab:1d:c0:fd:
                    92:98:32:a4:d4:9b:e2:88:55:c2:c5:a0:dc:a7:ed:
                    28:89:a9:12:b7:08:71:83:5f:9c:a0:c0:af:8c:d5:
                    47:28:2f:35:4c:bb:d9:93:16:b4:17:6e:94:44:ce:
                    a5:f5
                Exponent: 65537 (0x10001)
        X509v3 extensions:
            X509v3 Subject Key Identifier: 
                49:18:CC:C7:F8:5C:55:97:D3:11:34:96:B2:48:49:BB:3C:4A:6D:ED
            X509v3 Authority Key Identifier: 
                keyid:E7:1B:97:67:2D:1C:3A:6E:65:D5:00:D1:CE:9C:17:A5:B4:04:37:3D
                DirName:/C=US/ST=California/L=Santa Clara/O=pkg5/CN=ta1/emailAddress=ta1
                serial:A9:AB:44:1F:04:71:95:26

            X509v3 Basic Constraints: critical
                CA:TRUE, pathlen:4
            X509v3 Key Usage: critical
                Certificate Sign, CRL Sign
    Signature Algorithm: sha256WithRSAEncryption
         cd:13:9d:47:27:4a:21:17:bc:d6:e4:ea:83:c7:fd:2c:8b:30:
         61:32:2c:ab:a4:b3:f5:36:2f:36:ff:82:a2:9c:56:ef:1d:3c:
         01:12:72:ae:0c:ba:a9:e0:15:82:0f:4f:12:f6:3c:56:e5:02:
         ea:ae:03:79:e5:bf:cf:1d:3c:4a:8d:db:17:c6:a4:44:59:5f:
         cd:e4:39:2b:c5:f0:e9:51:fe:39:a2:22:74:27:b1:8d:49:90:
         f8:2e:e2:12:12:86:54:b0:a0:bf:bf:75:34:96:be:5b:f5:da:
         32:64:21:7f:51:15:fb:ba:0b:16:12:6c:6b:cb:1f:1f:d8:93:
         cb:21:81:36:34:2c:c2:41:a9:76:c4:47:d5:97:97:3e:2d:c9:
         04:92:65:a3:4d:13:b7:59:6c:4b:1f:1e:03:bb:ce:86:03:ef:
         9b:e5:52:62:8c:e2:05:e7:f8:5f:20:43:98:fa:8f:3e:1c:cd:
         81:d1:cd:b8:fa:78:a1:7a:25:80:54:6f:a3:c1:d3:70:7e:42:
         73:f2:40:75:93:39:82:e0:83:ce:07:ee:34:c8:c3:d3:6c:05:
         9e:e2:a6:b4:39:3d:d6:f7:00:ee:dd:12:39:1c:a2:7d:04:3b:
         22:d5:f0:58:99:2c:57:41:a6:d8:a4:8d:7a:ca:1a:8d:da:26:
         ec:d3:81:08
-----BEGIN CERTIFICATE-----
MIIEOjCCAyKgAwIBAgIBATANBgkqhkiG9w0BAQsFADBpMQswCQYDVQQGEwJVUzET
MBEGA1UECAwKQ2FsaWZvcm5pYTEUMBIGA1UEBwwLU2FudGEgQ2xhcmExDTALBgNV
BAoMBHBrZzUxDDAKBgNVBAMMA3RhMTESMBAGCSqGSIb3DQEJARYDdGExMB4XDTE4
MDcwMzE0MTM1N1oXDTIxMDMyOTE0MTM1N1owcTELMAkGA1UEBhMCVVMxEzARBgNV
BAgMCkNhbGlmb3JuaWExFDASBgNVBAcMC1NhbnRhIENsYXJhMQ0wCwYDVQQKDARw
a2c1MRAwDgYDVQQDDAdjaDFfdGExMRYwFAYJKoZIhvcNAQkBFgdjaDFfdGExMIIB
IjANBgkqhkiG9w0BAQEFAAOCAQ8AMIIBCgKCAQEAuJkoRnY9plltgjRGe4lsgTeW
w02/Niey3Zs5P8H7B4dMSBMUMnYK9LkpXLJ8Ty6sviukQ2NC0QZDdxSgljT0c9Nf
3ZzyKqVn6xXQhpD7d7OZr1g8nZds3rxz/fGJJYxCqlm0ohr5XLDBx7sDgsNoZPqT
6ugbV0T6qK05OUQvMMo8tk/kTK7h/M9p0c7rwItmCv3cG+huhftev9kaRkryv2RG
RvygFjL8IvmO6iNgLzlU/CB/V1LFvtMOzU8rlfIiIEA2a7XW62bEG6j+8qsdwP2S
mDKk1JviiFXCxaDcp+0oiakStwhxg1+coMCvjNVHKC81TLvZkxa0F26URM6l9QID
AQABo4HkMIHhMB0GA1UdDgQWBBRJGMzH+FxVl9MRNJaySEm7PEpt7TCBmwYDVR0j
BIGTMIGQgBTnG5dnLRw6bmXVANHOnBeltAQ3PaFtpGswaTELMAkGA1UEBhMCVVMx
EzARBgNVBAgMCkNhbGlmb3JuaWExFDASBgNVBAcMC1NhbnRhIENsYXJhMQ0wCwYD
VQQKDARwa2c1MQwwCgYDVQQDDAN0YTExEjAQBgkqhkiG9w0BCQEWA3RhMYIJAKmr
RB8EcZUmMBIGA1UdEwEB/wQIMAYBAf8CAQQwDgYDVR0PAQH/BAQDAgEGMA0GCSqG
SIb3DQEBCwUAA4IBAQDNE51HJ0ohF7zW5OqDx/0sizBhMiyrpLP1Ni82/4KinFbv
HTwBEnKuDLqp4BWCD08S9jxW5QLqrgN55b/PHTxKjdsXxqREWV/N5DkrxfDpUf45
oiJ0J7GNSZD4LuISEoZUsKC/v3U0lr5b9doyZCF/URX7ugsWEmxryx8f2JPLIYE2
NCzCQal2xEfVl5c+LckEkmWjTRO3WWxLHx4Du86GA++b5VJijOIF5/hfIEOY+o8+
HM2B0c24+niheiWAVG+jwdNwfkJz8kB1kzmC4IPOB+40yMPTbAWe4qa0OT3W9wDu
3RI5HKJ9BDsi1fBYmSxXQabYpI16yhqN2ibs04EI
-----END CERTIFICATE-----
