Certificate:
    Data:
        Version: 3 (0x2)
        Serial Number: 34 (0x22)
    Signature Algorithm: sha256WithRSAEncryption
        Issuer: C=US, ST=California, L=Santa Clara, O=pkg5, CN=ta4/emailAddress=ta4
        Validity
            Not Before: Nov 11 12:38:33 2017 GMT
            Not After : Aug  7 12:38:33 2020 GMT
        Subject: C=US, ST=California, L=Santa Clara, O=pkg5, CN=ch1_ta4/emailAddress=ch1_ta4
        Subject Public Key Info:
            Public Key Algorithm: rsaEncryption
                Public-Key: (2048 bit)
                Modulus:
                    00:e0:fd:e4:f3:22:35:9a:80:7f:b8:56:e9:a1:f0:
                    a2:3c:a0:8c:f2:8b:c4:fc:f6:0c:9e:dc:1d:2c:83:
                    8b:1f:68:31:63:5c:7c:4f:39:a7:47:bd:88:9f:a2:
                    d1:db:b4:94:d1:7b:af:a1:a3:20:db:1c:3c:d4:b4:
                    69:54:14:cf:13:cd:bd:a8:e2:fa:5e:22:78:9d:6b:
                    cf:30:28:d9:0f:e3:6e:b5:4c:5b:57:2d:90:90:36:
                    2f:4b:0e:fa:ac:fd:1e:1e:d8:68:37:cd:b7:7f:61:
                    7d:3f:78:9f:61:4d:73:dc:78:8b:7c:29:0d:a5:47:
                    d7:bf:51:e5:27:ad:b6:4b:aa:85:6b:00:31:69:3b:
                    b4:9c:f5:61:aa:3a:42:38:9a:12:42:e0:c8:38:86:
                    50:8e:69:1a:03:4c:cd:3f:d9:7d:f1:bc:a5:49:94:
                    6d:16:44:02:e3:5a:7a:a5:ea:69:f8:85:84:51:4c:
                    2b:aa:db:60:d7:de:e2:0d:94:2f:3a:fd:89:f6:b2:
                    76:81:1e:83:32:ba:d9:5a:d4:46:0a:59:51:55:80:
                    27:f7:f4:1c:21:9c:fa:47:9d:f4:ef:48:8a:de:72:
                    a5:b6:25:23:ea:c9:b8:49:08:bd:6f:5f:e8:f1:b9:
                    21:88:24:d9:e6:9c:40:94:8d:11:71:bf:96:04:28:
                    63:b5
                Exponent: 65537 (0x10001)
        X509v3 extensions:
            X509v3 Subject Key Identifier: 
                B1:1B:0F:57:F9:CC:13:12:DD:27:D6:EC:96:08:A4:A6:6C:27:24:08
            X509v3 Authority Key Identifier: 
                keyid:3B:B7:A1:3E:10:9F:0F:E4:EC:DE:30:8A:9A:41:5B:09:3D:C7:FA:29
                DirName:/C=US/ST=California/L=Santa Clara/O=pkg5/CN=ta4/emailAddress=ta4
                serial:D8:8B:82:45:DD:71:02:6E

            X509v3 Basic Constraints: critical
                CA:TRUE
            X509v3 Key Usage: critical
                Certificate Sign, CRL Sign
    Signature Algorithm: sha256WithRSAEncryption
         59:0f:e3:ae:73:96:70:a8:29:a5:c5:fb:02:7c:09:a7:ef:97:
         3d:ac:80:c7:0a:bc:d6:e3:34:36:d1:0d:b9:64:b7:9a:1f:90:
         44:a5:58:e9:97:95:be:61:09:d2:e2:d4:10:f9:a2:92:ff:c7:
         1f:be:dc:1a:94:ec:d2:7c:ca:fa:80:c3:b4:66:4d:f9:00:cd:
         77:6a:09:15:c0:76:6c:7d:25:54:16:00:cd:f4:50:78:4e:cd:
         fd:49:58:64:24:9b:82:fb:66:1c:f3:78:8e:df:61:f3:a1:70:
         fe:71:86:1c:57:ef:ea:67:d7:27:e1:ad:19:1d:d0:23:db:68:
         2b:ac:d4:18:c3:a8:a3:2c:1d:d9:2f:9e:12:cc:0b:9f:4b:e5:
         1c:c2:e1:8a:68:73:f8:f6:c9:a9:4c:1d:c4:19:8f:ed:41:7b:
         3b:bd:bb:08:e1:78:d6:11:0a:9c:30:2f:37:cb:94:35:46:4c:
         12:23:05:5b:f2:2c:07:37:b3:35:f4:dc:ef:ea:84:ec:8b:5a:
         e7:68:ee:58:ee:16:47:8a:f1:10:98:08:aa:75:b0:1a:93:cd:
         68:8c:13:e0:13:7a:30:b2:23:43:7c:fc:fe:24:0e:d3:ec:6a:
         42:65:6c:03:a8:c6:39:6e:a9:7a:97:3e:65:3f:5f:d7:dc:cd:
         7b:c4:d4:53
-----BEGIN CERTIFICATE-----
MIIENzCCAx+gAwIBAgIBIjANBgkqhkiG9w0BAQsFADBpMQswCQYDVQQGEwJVUzET
MBEGA1UECAwKQ2FsaWZvcm5pYTEUMBIGA1UEBwwLU2FudGEgQ2xhcmExDTALBgNV
BAoMBHBrZzUxDDAKBgNVBAMMA3RhNDESMBAGCSqGSIb3DQEJARYDdGE0MB4XDTE3
MTExMTEyMzgzM1oXDTIwMDgwNzEyMzgzM1owcTELMAkGA1UEBhMCVVMxEzARBgNV
BAgMCkNhbGlmb3JuaWExFDASBgNVBAcMC1NhbnRhIENsYXJhMQ0wCwYDVQQKDARw
a2c1MRAwDgYDVQQDDAdjaDFfdGE0MRYwFAYJKoZIhvcNAQkBFgdjaDFfdGE0MIIB
IjANBgkqhkiG9w0BAQEFAAOCAQ8AMIIBCgKCAQEA4P3k8yI1moB/uFbpofCiPKCM
8ovE/PYMntwdLIOLH2gxY1x8TzmnR72In6LR27SU0XuvoaMg2xw81LRpVBTPE829
qOL6XiJ4nWvPMCjZD+NutUxbVy2QkDYvSw76rP0eHthoN823f2F9P3ifYU1z3HiL
fCkNpUfXv1HlJ622S6qFawAxaTu0nPVhqjpCOJoSQuDIOIZQjmkaA0zNP9l98byl
SZRtFkQC41p6pepp+IWEUUwrqttg197iDZQvOv2J9rJ2gR6DMrrZWtRGCllRVYAn
9/QcIZz6R53070iK3nKltiUj6sm4SQi9b1/o8bkhiCTZ5pxAlI0Rcb+WBChjtQID
AQABo4HhMIHeMB0GA1UdDgQWBBSxGw9X+cwTEt0n1uyWCKSmbCckCDCBmwYDVR0j
BIGTMIGQgBQ7t6E+EJ8P5OzeMIqaQVsJPcf6KaFtpGswaTELMAkGA1UEBhMCVVMx
EzARBgNVBAgMCkNhbGlmb3JuaWExFDASBgNVBAcMC1NhbnRhIENsYXJhMQ0wCwYD
VQQKDARwa2c1MQwwCgYDVQQDDAN0YTQxEjAQBgkqhkiG9w0BCQEWA3RhNIIJANiL
gkXdcQJuMA8GA1UdEwEB/wQFMAMBAf8wDgYDVR0PAQH/BAQDAgEGMA0GCSqGSIb3
DQEBCwUAA4IBAQBZD+Ouc5ZwqCmlxfsCfAmn75c9rIDHCrzW4zQ20Q25ZLeaH5BE
pVjpl5W+YQnS4tQQ+aKS/8cfvtwalOzSfMr6gMO0Zk35AM13agkVwHZsfSVUFgDN
9FB4Ts39SVhkJJuC+2Yc83iO32HzoXD+cYYcV+/qZ9cn4a0ZHdAj22grrNQYw6ij
LB3ZL54SzAufS+UcwuGKaHP49smpTB3EGY/tQXs7vbsI4XjWEQqcMC83y5Q1RkwS
IwVb8iwHN7M19Nzv6oTsi1rnaO5Y7hZHivEQmAiqdbAak81ojBPgE3owsiNDfPz+
JA7T7GpCZWwDqMY5bql6lz5lP1/X3M17xNRT
-----END CERTIFICATE-----
