Certificate:
    Data:
        Version: 3 (0x2)
        Serial Number: 1 (0x1)
    Signature Algorithm: sha256WithRSAEncryption
        Issuer: C=US, ST=California, L=Santa Clara, O=pkg5, CN=ta1/emailAddress=ta1
        Validity
            Not Before: Nov 24 01:22:40 2021 GMT
            Not After : Aug 20 01:22:40 2024 GMT
        Subject: C=US, ST=California, L=Santa Clara, O=pkg5, CN=ch1_ta1/emailAddress=ch1_ta1
        Subject Public Key Info:
            Public Key Algorithm: rsaEncryption
                Public-Key: (2048 bit)
                Modulus:
                    00:b7:53:01:e4:7c:f0:e7:9a:e2:44:c4:c4:0e:ff:
                    2d:14:10:62:dd:6f:86:70:67:a4:9c:f9:74:13:89:
                    bb:79:69:a2:16:b2:05:d9:35:65:14:ee:8a:ef:1e:
                    08:ec:bf:7e:3a:dc:32:eb:d3:2c:55:a1:ab:ce:3f:
                    f9:cd:1e:d4:77:b9:95:bc:14:31:69:28:bf:af:00:
                    1f:9a:c4:c9:d6:c5:85:96:5b:7a:1d:9c:29:51:a6:
                    3a:7c:98:a3:32:75:eb:e6:cb:a3:0d:b8:f8:b7:1b:
                    a8:fb:c0:ab:35:c4:63:1e:c0:b4:32:6d:3a:a0:65:
                    31:4a:58:77:95:d8:40:2f:37:1c:c4:f3:08:da:5f:
                    55:ef:40:51:ee:03:0a:20:59:f0:7a:07:40:b1:7b:
                    c7:4b:26:07:c6:ad:5f:f5:92:2f:4a:d8:52:e6:54:
                    7e:84:c0:2c:94:f8:e4:ba:c7:65:d9:12:dd:9e:10:
                    8d:2f:4a:7a:03:e9:e0:2d:0b:51:cc:a4:1c:5f:9d:
                    57:30:8d:f0:b6:b6:08:a5:fc:8c:98:08:3a:f2:d4:
                    b7:97:06:ad:d2:8e:a1:65:93:af:30:f5:4b:42:23:
                    2b:76:f2:a5:f3:e0:ba:c0:97:b9:89:af:5e:29:50:
                    89:e2:1e:6a:9a:b6:19:9c:51:b1:18:15:8e:e4:41:
                    b0:c5
                Exponent: 65537 (0x10001)
        X509v3 extensions:
            X509v3 Subject Key Identifier: 
                50:A9:D2:7B:7D:24:EF:B0:A0:D7:C1:76:9E:14:37:75:AE:52:11:1D
            X509v3 Authority Key Identifier: 
                keyid:47:A4:6C:F2:2C:AD:BB:9C:3E:06:0D:E3:FB:83:73:99:CF:45:AE:62
                DirName:/C=US/ST=California/L=Santa Clara/O=pkg5/CN=ta1/emailAddress=ta1
                serial:85:45:3E:5B:30:D7:B2:60

            X509v3 Basic Constraints: critical
                CA:TRUE, pathlen:4
            X509v3 Key Usage: critical
                Certificate Sign, CRL Sign
    Signature Algorithm: sha256WithRSAEncryption
         3f:8d:7e:9c:c8:03:c7:21:9e:22:cb:90:7c:b9:b5:ac:78:18:
         c5:d9:2b:ff:05:9b:09:6e:86:ab:e5:c7:90:3e:94:8d:af:a0:
         c7:33:a7:1f:f7:cf:83:fe:1e:85:75:bd:22:59:94:d3:e5:ce:
         ad:f1:b4:64:48:49:0d:74:f0:14:d1:10:f5:19:db:a4:bd:a2:
         b6:63:49:cc:26:93:f2:d8:a8:c8:2b:f8:c6:5c:10:10:7e:be:
         06:2b:9a:26:e4:7b:04:a3:52:10:10:e5:72:ff:e9:7d:80:1d:
         e9:75:cc:2c:42:29:1e:27:00:75:14:b9:eb:cd:a0:f0:9e:6e:
         42:ea:b8:ee:c2:82:9a:bb:88:2e:65:a6:5b:1d:cd:62:83:6b:
         f5:9d:bc:ae:07:b0:29:99:73:6e:cb:55:e8:b7:94:e8:73:95:
         f0:16:f8:95:90:25:77:f9:e8:55:ca:8c:c9:5e:a5:df:1c:a9:
         64:64:be:cb:3f:ee:fc:b5:7a:dd:89:c3:c1:39:ce:07:19:54:
         d4:e8:19:81:53:1e:e2:f5:1c:be:5f:c7:81:02:a2:fb:3b:cf:
         33:e7:53:dd:c3:e9:1c:7e:76:eb:7b:54:96:08:c3:64:4a:7c:
         90:6f:02:bd:3d:ee:1e:13:1d:ff:95:58:ca:06:6c:c4:09:43:
         6d:51:c2:b3
-----BEGIN CERTIFICATE-----
MIIEOjCCAyKgAwIBAgIBATANBgkqhkiG9w0BAQsFADBpMQswCQYDVQQGEwJVUzET
MBEGA1UECAwKQ2FsaWZvcm5pYTEUMBIGA1UEBwwLU2FudGEgQ2xhcmExDTALBgNV
BAoMBHBrZzUxDDAKBgNVBAMMA3RhMTESMBAGCSqGSIb3DQEJARYDdGExMB4XDTIx
MTEyNDAxMjI0MFoXDTI0MDgyMDAxMjI0MFowcTELMAkGA1UEBhMCVVMxEzARBgNV
BAgMCkNhbGlmb3JuaWExFDASBgNVBAcMC1NhbnRhIENsYXJhMQ0wCwYDVQQKDARw
a2c1MRAwDgYDVQQDDAdjaDFfdGExMRYwFAYJKoZIhvcNAQkBFgdjaDFfdGExMIIB
IjANBgkqhkiG9w0BAQEFAAOCAQ8AMIIBCgKCAQEAt1MB5Hzw55riRMTEDv8tFBBi
3W+GcGeknPl0E4m7eWmiFrIF2TVlFO6K7x4I7L9+Otwy69MsVaGrzj/5zR7Ud7mV
vBQxaSi/rwAfmsTJ1sWFllt6HZwpUaY6fJijMnXr5sujDbj4txuo+8CrNcRjHsC0
Mm06oGUxSlh3ldhALzccxPMI2l9V70BR7gMKIFnwegdAsXvHSyYHxq1f9ZIvSthS
5lR+hMAslPjkusdl2RLdnhCNL0p6A+ngLQtRzKQcX51XMI3wtrYIpfyMmAg68tS3
lwat0o6hZZOvMPVLQiMrdvKl8+C6wJe5ia9eKVCJ4h5qmrYZnFGxGBWO5EGwxQID
AQABo4HkMIHhMB0GA1UdDgQWBBRQqdJ7fSTvsKDXwXaeFDd1rlIRHTCBmwYDVR0j
BIGTMIGQgBRHpGzyLK27nD4GDeP7g3OZz0WuYqFtpGswaTELMAkGA1UEBhMCVVMx
EzARBgNVBAgMCkNhbGlmb3JuaWExFDASBgNVBAcMC1NhbnRhIENsYXJhMQ0wCwYD
VQQKDARwa2c1MQwwCgYDVQQDDAN0YTExEjAQBgkqhkiG9w0BCQEWA3RhMYIJAIVF
Plsw17JgMBIGA1UdEwEB/wQIMAYBAf8CAQQwDgYDVR0PAQH/BAQDAgEGMA0GCSqG
SIb3DQEBCwUAA4IBAQA/jX6cyAPHIZ4iy5B8ubWseBjF2Sv/BZsJboar5ceQPpSN
r6DHM6cf98+D/h6Fdb0iWZTT5c6t8bRkSEkNdPAU0RD1GdukvaK2Y0nMJpPy2KjI
K/jGXBAQfr4GK5om5HsEo1IQEOVy/+l9gB3pdcwsQikeJwB1FLnrzaDwnm5C6rju
woKau4guZaZbHc1ig2v1nbyuB7ApmXNuy1Xot5Toc5XwFviVkCV3+ehVyozJXqXf
HKlkZL7LP+78tXrdicPBOc4HGVTU6BmBUx7i9Ry+X8eBAqL7O88z51Pdw+kcfnbr
e1SWCMNkSnyQbwK9Pe4eEx3/lVjKBmzECUNtUcKz
-----END CERTIFICATE-----
