Certificate:
    Data:
        Version: 3 (0x2)
        Serial Number: 35 (0x23)
    Signature Algorithm: sha256WithRSAEncryption
        Issuer: C=US, ST=California, L=Santa Clara, O=pkg5, CN=ta4/emailAddress=ta4
        Validity
            Not Before: Nov 24 01:22:43 2021 GMT
            Not After : Aug 20 01:22:43 2024 GMT
        Subject: C=US, ST=California, L=Santa Clara, O=pkg5, CN=ch1_ta4/emailAddress=ch1_ta4
        Subject Public Key Info:
            Public Key Algorithm: rsaEncryption
                Public-Key: (2048 bit)
                Modulus:
                    00:ad:1e:e2:a6:11:ef:f5:8c:07:c3:88:b2:02:12:
                    93:7e:76:34:16:44:7e:e1:de:5a:bd:32:8b:10:32:
                    70:0e:80:a4:d1:09:ea:56:1e:6d:6e:61:20:5c:a0:
                    14:ad:70:d2:f2:54:82:d4:05:44:a5:f3:f7:5e:db:
                    6b:81:27:a7:e9:a9:ca:7b:20:a8:39:e6:bb:19:f7:
                    1a:fd:3d:ad:ea:3e:14:dc:13:72:a9:56:53:c9:36:
                    2e:3e:d3:c9:0f:a9:bc:dc:48:dc:82:f1:13:93:d7:
                    c5:3a:f0:eb:94:0f:93:8c:33:89:7e:02:65:db:5e:
                    03:0f:3b:fd:e4:09:0d:0f:78:42:ab:b7:11:18:08:
                    ae:37:a7:cc:16:1a:58:af:a6:20:76:7f:9f:81:13:
                    23:2d:ab:a2:40:1e:6c:7b:6b:06:45:6b:03:64:31:
                    5f:c9:54:57:03:a0:a0:35:b5:31:5a:f6:2e:ce:d8:
                    b7:49:69:27:2a:b6:74:ce:a4:ed:52:a8:c7:89:79:
                    1e:93:8b:5a:ec:b3:fe:91:45:a8:92:40:54:68:63:
                    5c:83:dc:68:49:f0:ff:e5:7b:a3:ef:c1:68:dc:90:
                    45:a8:86:4a:e4:83:78:a3:6d:be:b9:dd:b4:93:11:
                    84:91:04:cd:10:58:71:61:11:31:8a:5d:b4:c6:7f:
                    aa:51
                Exponent: 65537 (0x10001)
        X509v3 extensions:
            X509v3 Subject Key Identifier: 
                38:F2:27:3A:F8:D6:D5:23:A4:D9:C7:53:F8:4D:F3:DF:17:78:41:09
            X509v3 Authority Key Identifier: 
                keyid:55:7A:9D:41:52:38:8C:2D:17:A2:CA:1F:4D:1E:89:FD:55:FB:97:49
                DirName:/C=US/ST=California/L=Santa Clara/O=pkg5/CN=ta4/emailAddress=ta4
                serial:BE:58:81:8C:D4:C3:CD:40

            X509v3 Basic Constraints: critical
                CA:TRUE
            X509v3 Key Usage: critical
                Certificate Sign, CRL Sign
    Signature Algorithm: sha256WithRSAEncryption
         c8:1b:03:83:94:f1:4d:f4:35:e4:4b:8b:28:7a:d9:a3:f1:fc:
         e3:75:11:4d:66:14:7f:f2:3a:7f:0e:f0:34:a4:71:a4:e9:9c:
         11:39:b3:b4:62:f1:6e:cf:f9:42:c4:d1:56:6b:56:19:65:9b:
         15:e4:74:ff:ac:cd:97:53:72:cf:91:e7:ee:79:b6:61:e7:2f:
         56:b8:cf:d2:13:3a:32:62:a9:40:10:81:f0:cf:c8:a5:71:90:
         a7:51:61:2c:62:b2:13:ec:c3:c3:63:92:d4:a8:8b:e7:1a:1c:
         17:44:85:08:59:25:42:de:c5:53:5b:5b:2f:3c:90:f0:b4:11:
         e9:ec:83:be:15:da:79:f5:19:4d:87:10:18:12:25:83:aa:33:
         e2:cc:7c:7c:f6:ed:f7:1c:93:fe:1b:56:e5:78:11:03:80:8f:
         f0:af:af:e9:32:bc:b8:2d:4f:a5:92:ac:37:b9:86:bc:16:9f:
         59:79:32:02:97:b1:48:e4:d0:b9:6b:78:3a:91:ca:6f:6c:ec:
         31:f3:fd:5f:77:56:5b:1a:d3:c3:67:11:d7:56:62:42:9b:0b:
         3e:39:54:67:42:b2:4e:aa:a8:09:04:fd:18:93:b4:6e:d0:91:
         92:fe:9c:00:9c:49:2a:f3:91:9c:84:67:95:ad:c9:c1:24:6f:
         97:62:5d:70
-----BEGIN CERTIFICATE-----
MIIENzCCAx+gAwIBAgIBIzANBgkqhkiG9w0BAQsFADBpMQswCQYDVQQGEwJVUzET
MBEGA1UECAwKQ2FsaWZvcm5pYTEUMBIGA1UEBwwLU2FudGEgQ2xhcmExDTALBgNV
BAoMBHBrZzUxDDAKBgNVBAMMA3RhNDESMBAGCSqGSIb3DQEJARYDdGE0MB4XDTIx
MTEyNDAxMjI0M1oXDTI0MDgyMDAxMjI0M1owcTELMAkGA1UEBhMCVVMxEzARBgNV
BAgMCkNhbGlmb3JuaWExFDASBgNVBAcMC1NhbnRhIENsYXJhMQ0wCwYDVQQKDARw
a2c1MRAwDgYDVQQDDAdjaDFfdGE0MRYwFAYJKoZIhvcNAQkBFgdjaDFfdGE0MIIB
IjANBgkqhkiG9w0BAQEFAAOCAQ8AMIIBCgKCAQEArR7iphHv9YwHw4iyAhKTfnY0
FkR+4d5avTKLEDJwDoCk0QnqVh5tbmEgXKAUrXDS8lSC1AVEpfP3XttrgSen6anK
eyCoOea7Gfca/T2t6j4U3BNyqVZTyTYuPtPJD6m83EjcgvETk9fFOvDrlA+TjDOJ
fgJl214DDzv95AkND3hCq7cRGAiuN6fMFhpYr6Ygdn+fgRMjLauiQB5se2sGRWsD
ZDFfyVRXA6CgNbUxWvYuzti3SWknKrZ0zqTtUqjHiXkek4ta7LP+kUWokkBUaGNc
g9xoSfD/5Xuj78Fo3JBFqIZK5IN4o22+ud20kxGEkQTNEFhxYRExil20xn+qUQID
AQABo4HhMIHeMB0GA1UdDgQWBBQ48ic6+NbVI6TZx1P4TfPfF3hBCTCBmwYDVR0j
BIGTMIGQgBRVep1BUjiMLReiyh9NHon9VfuXSaFtpGswaTELMAkGA1UEBhMCVVMx
EzARBgNVBAgMCkNhbGlmb3JuaWExFDASBgNVBAcMC1NhbnRhIENsYXJhMQ0wCwYD
VQQKDARwa2c1MQwwCgYDVQQDDAN0YTQxEjAQBgkqhkiG9w0BCQEWA3RhNIIJAL5Y
gYzUw81AMA8GA1UdEwEB/wQFMAMBAf8wDgYDVR0PAQH/BAQDAgEGMA0GCSqGSIb3
DQEBCwUAA4IBAQDIGwODlPFN9DXkS4soetmj8fzjdRFNZhR/8jp/DvA0pHGk6ZwR
ObO0YvFuz/lCxNFWa1YZZZsV5HT/rM2XU3LPkefuebZh5y9WuM/SEzoyYqlAEIHw
z8ilcZCnUWEsYrIT7MPDY5LUqIvnGhwXRIUIWSVC3sVTW1svPJDwtBHp7IO+Fdp5
9RlNhxAYEiWDqjPizHx89u33HJP+G1bleBEDgI/wr6/pMry4LU+lkqw3uYa8Fp9Z
eTICl7FI5NC5a3g6kcpvbOwx8/1fd1ZbGtPDZxHXVmJCmws+OVRnQrJOqqgJBP0Y
k7Ru0JGS/pwAnEkq85GchGeVrcnBJG+XYl1w
-----END CERTIFICATE-----
