Certificate:
    Data:
        Version: 3 (0x2)
        Serial Number: 1 (0x1)
    Signature Algorithm: sha256WithRSAEncryption
        Issuer: C=US, ST=California, L=Santa Clara, O=pkg5, CN=ta1/emailAddress=ta1
        Validity
            Not Before: Nov 11 12:38:29 2017 GMT
            Not After : Aug  7 12:38:29 2020 GMT
        Subject: C=US, ST=California, L=Santa Clara, O=pkg5, CN=ch1_ta1/emailAddress=ch1_ta1
        Subject Public Key Info:
            Public Key Algorithm: rsaEncryption
                Public-Key: (2048 bit)
                Modulus:
                    00:b5:d8:ec:42:61:67:ef:e1:51:c9:16:78:5f:29:
                    33:1b:b7:72:3c:6e:5d:c6:a2:c9:e0:4f:fb:4c:a0:
                    01:ca:0f:e2:f7:cf:01:f7:d9:f5:c3:c0:da:8e:c9:
                    95:45:93:49:ae:c9:6a:b8:f6:14:50:05:69:8a:dd:
                    e1:56:c1:30:4e:5d:68:21:90:9f:53:c3:cd:49:07:
                    02:f5:4c:29:42:8a:da:c3:2b:e4:04:e2:b8:14:d8:
                    ed:e2:a0:65:51:8f:0a:5e:c8:44:fa:d6:56:21:f0:
                    7c:22:29:83:fd:77:6c:a3:2a:42:6f:2b:bb:c7:78:
                    39:2e:b2:89:43:a5:b1:7e:77:b9:ee:2d:cc:1c:e7:
                    18:10:77:3d:81:84:14:c5:97:c6:1a:41:b2:f9:d7:
                    a2:64:68:2f:3e:f8:21:89:8b:c2:55:01:b7:fd:bc:
                    ec:46:ad:56:c4:aa:dd:5e:3f:65:16:00:d8:f8:10:
                    93:65:a2:da:4b:64:0d:b5:fd:91:28:79:82:6a:dd:
                    c0:c9:ff:1b:4e:b8:a8:38:83:0e:85:be:05:0f:f6:
                    25:40:fd:9c:34:b7:b1:83:ec:4a:c5:a0:14:b8:d0:
                    a1:13:38:0c:2b:59:8b:0a:1d:81:1d:22:8d:a1:55:
                    8e:91:7c:73:6f:f5:f9:18:ad:7e:42:48:e7:d9:e0:
                    11:f5
                Exponent: 65537 (0x10001)
        X509v3 extensions:
            X509v3 Subject Key Identifier: 
                AA:C2:70:4D:7A:6F:9B:44:44:80:65:79:3D:59:9B:F5:C8:49:BE:3F
            X509v3 Authority Key Identifier: 
                keyid:B3:45:FC:B9:89:4B:F7:56:73:AE:B2:C3:06:19:A1:7B:78:6E:00:BF
                DirName:/C=US/ST=California/L=Santa Clara/O=pkg5/CN=ta1/emailAddress=ta1
                serial:D4:6C:78:67:28:76:79:30

            X509v3 Basic Constraints: critical
                CA:TRUE, pathlen:4
            X509v3 Key Usage: critical
                Certificate Sign, CRL Sign
    Signature Algorithm: sha256WithRSAEncryption
         c2:c6:65:2b:f0:63:88:2d:5a:3a:02:71:9a:ba:67:d1:4e:53:
         2a:29:8b:c4:2d:cb:ba:49:28:4f:4a:24:8a:4f:a1:ca:c3:9d:
         79:9b:dc:a0:77:4a:56:e6:c1:a9:4f:3c:a0:7e:8d:1f:09:96:
         66:57:cd:98:f0:fe:12:23:5c:c6:f9:5c:ea:61:da:0a:88:5e:
         8a:60:6a:ce:35:16:23:a6:84:48:61:40:3b:e0:8e:85:4f:22:
         f1:16:92:72:d1:cb:5c:18:a0:24:ff:32:05:54:fe:00:aa:7c:
         c1:a2:a4:7d:60:59:30:9d:b1:0c:41:3e:92:73:ce:73:ff:b6:
         25:00:59:0b:79:74:65:6b:da:3a:e5:82:31:3e:bd:89:b0:87:
         21:1b:3b:75:9a:25:10:13:d7:56:6c:32:35:06:27:13:a5:32:
         cf:d1:24:80:45:f7:8e:2e:55:2a:0b:1b:a1:cb:91:76:96:07:
         d2:49:fb:2b:25:22:c6:32:02:f9:6b:f3:c8:95:59:79:ac:14:
         92:e1:37:fc:e2:79:2a:97:b1:95:42:cd:db:28:f9:7a:57:ea:
         2e:0b:f0:ee:02:1a:fa:78:b4:69:47:1f:be:ff:7b:58:0d:cb:
         ec:58:13:48:f8:9f:b3:9e:9f:c3:08:5b:77:76:67:3e:ba:75:
         a8:5e:17:91
-----BEGIN CERTIFICATE-----
MIIEOjCCAyKgAwIBAgIBATANBgkqhkiG9w0BAQsFADBpMQswCQYDVQQGEwJVUzET
MBEGA1UECAwKQ2FsaWZvcm5pYTEUMBIGA1UEBwwLU2FudGEgQ2xhcmExDTALBgNV
BAoMBHBrZzUxDDAKBgNVBAMMA3RhMTESMBAGCSqGSIb3DQEJARYDdGExMB4XDTE3
MTExMTEyMzgyOVoXDTIwMDgwNzEyMzgyOVowcTELMAkGA1UEBhMCVVMxEzARBgNV
BAgMCkNhbGlmb3JuaWExFDASBgNVBAcMC1NhbnRhIENsYXJhMQ0wCwYDVQQKDARw
a2c1MRAwDgYDVQQDDAdjaDFfdGExMRYwFAYJKoZIhvcNAQkBFgdjaDFfdGExMIIB
IjANBgkqhkiG9w0BAQEFAAOCAQ8AMIIBCgKCAQEAtdjsQmFn7+FRyRZ4XykzG7dy
PG5dxqLJ4E/7TKAByg/i988B99n1w8DajsmVRZNJrslquPYUUAVpit3hVsEwTl1o
IZCfU8PNSQcC9UwpQorawyvkBOK4FNjt4qBlUY8KXshE+tZWIfB8IimD/XdsoypC
byu7x3g5LrKJQ6Wxfne57i3MHOcYEHc9gYQUxZfGGkGy+deiZGgvPvghiYvCVQG3
/bzsRq1WxKrdXj9lFgDY+BCTZaLaS2QNtf2RKHmCat3Ayf8bTrioOIMOhb4FD/Yl
QP2cNLexg+xKxaAUuNChEzgMK1mLCh2BHSKNoVWOkXxzb/X5GK1+Qkjn2eAR9QID
AQABo4HkMIHhMB0GA1UdDgQWBBSqwnBNem+bRESAZXk9WZv1yEm+PzCBmwYDVR0j
BIGTMIGQgBSzRfy5iUv3VnOussMGGaF7eG4Av6FtpGswaTELMAkGA1UEBhMCVVMx
EzARBgNVBAgMCkNhbGlmb3JuaWExFDASBgNVBAcMC1NhbnRhIENsYXJhMQ0wCwYD
VQQKDARwa2c1MQwwCgYDVQQDDAN0YTExEjAQBgkqhkiG9w0BCQEWA3RhMYIJANRs
eGcodnkwMBIGA1UdEwEB/wQIMAYBAf8CAQQwDgYDVR0PAQH/BAQDAgEGMA0GCSqG
SIb3DQEBCwUAA4IBAQDCxmUr8GOILVo6AnGaumfRTlMqKYvELcu6SShPSiSKT6HK
w515m9ygd0pW5sGpTzygfo0fCZZmV82Y8P4SI1zG+VzqYdoKiF6KYGrONRYjpoRI
YUA74I6FTyLxFpJy0ctcGKAk/zIFVP4AqnzBoqR9YFkwnbEMQT6Sc85z/7YlAFkL
eXRla9o65YIxPr2JsIchGzt1miUQE9dWbDI1BicTpTLP0SSARfeOLlUqCxuhy5F2
lgfSSfsrJSLGMgL5a/PIlVl5rBSS4Tf84nkql7GVQs3bKPl6V+ouC/DuAhr6eLRp
Rx++/3tYDcvsWBNI+J+znp/DCFt3dmc+unWoXheR
-----END CERTIFICATE-----
