Certificate:
    Data:
        Version: 3 (0x2)
        Serial Number: 41 (0x29)
    Signature Algorithm: sha256WithRSAEncryption
        Issuer: C=US, ST=California, L=Santa Clara, O=pkg5, CN=ta5/emailAddress=ta5
        Validity
            Not Before: Nov 24 01:22:44 2021 GMT
            Not After : Aug 20 01:22:44 2024 GMT
        Subject: C=US, ST=California, L=Santa Clara, O=pkg5, CN=ch1_ta5/emailAddress=ch1_ta5
        Subject Public Key Info:
            Public Key Algorithm: rsaEncryption
                Public-Key: (2048 bit)
                Modulus:
                    00:b7:d9:e9:07:54:7a:cf:aa:97:2a:f2:03:fd:2a:
                    fe:6d:3e:cd:ee:3b:97:5e:f8:eb:95:f8:49:dc:49:
                    18:59:fd:33:70:db:79:e5:df:1e:f4:2c:34:22:d4:
                    ef:1f:ce:cd:97:61:f5:0c:a8:16:94:f0:10:d6:cb:
                    ef:9b:61:99:64:83:0d:6c:39:ae:e2:78:24:a5:3b:
                    91:12:e9:36:3f:51:a2:7b:94:0b:0d:01:b8:84:14:
                    92:1e:9d:b9:bb:df:0b:e1:c9:93:ae:46:70:60:ef:
                    96:29:93:db:30:0f:99:73:9a:d9:40:50:b0:91:bc:
                    a0:70:90:f1:97:18:b5:96:9b:de:51:b3:99:47:6d:
                    2e:b7:45:83:19:a9:fb:18:e7:1d:59:b8:9e:05:5c:
                    1f:47:d9:0d:1c:7a:5e:87:61:0b:34:7f:9a:52:72:
                    77:97:6f:5e:de:b2:16:4e:7c:bd:8d:06:b1:6e:e3:
                    77:47:c1:33:fa:7d:d4:9d:51:3b:0b:35:85:1e:c7:
                    ab:8c:fa:d9:20:52:2f:8e:f5:1a:d4:68:36:be:fc:
                    54:86:38:78:fa:70:a4:19:ee:c3:bd:a7:71:55:79:
                    a0:7e:d7:50:61:69:5a:11:03:19:61:43:bd:7c:e3:
                    8c:85:a8:ef:ec:37:17:69:1b:ff:23:25:35:d9:c8:
                    76:b1
                Exponent: 65537 (0x10001)
        X509v3 extensions:
            X509v3 Subject Key Identifier: 
                16:05:14:BD:ED:E0:95:9E:51:9A:26:A3:67:C0:1D:49:4B:89:B0:86
            X509v3 Authority Key Identifier: 
                keyid:24:27:CE:79:CD:AC:F6:1C:E2:DE:E6:59:79:91:4A:31:F7:BF:D7:C3
                DirName:/C=US/ST=California/L=Santa Clara/O=pkg5/CN=ta5/emailAddress=ta5
                serial:BC:8E:9B:54:DD:55:B4:EF

            X509v3 Basic Constraints: critical
                CA:TRUE
            X509v3 CRL Distribution Points: 

                Full Name:
                  URI:http://localhost:12001/file/0/ta5_crl.pem

            X509v3 Key Usage: critical
                Certificate Sign, CRL Sign
    Signature Algorithm: sha256WithRSAEncryption
         a2:a1:17:57:f7:6f:1d:4d:03:a1:b4:04:69:0a:fe:fd:74:99:
         76:8f:df:24:17:4d:c9:7f:0a:e0:f0:02:72:53:d7:5f:fa:44:
         6a:18:fa:11:e6:3b:46:14:03:a7:9b:5c:43:e7:c7:d9:8f:92:
         ef:76:f0:ae:5c:33:70:6b:5d:3c:bb:d0:8a:1f:1d:7b:e8:6d:
         18:f3:86:7d:a5:3d:78:04:db:7a:1c:d5:dd:b0:e2:2c:fe:5c:
         e5:34:36:2c:0d:4e:69:48:0c:42:fd:6f:52:ca:e5:b3:e7:ec:
         ac:88:1e:a8:7e:dc:51:af:0a:91:b7:de:00:10:41:d9:90:36:
         54:f8:08:9c:ea:a1:0c:00:7c:60:a4:43:af:e9:97:76:0e:f4:
         02:97:e1:a7:60:55:d5:d1:6b:fd:75:3b:cf:99:ea:06:5a:55:
         21:96:52:ac:d0:db:10:9d:6a:45:69:53:81:25:04:c2:6c:eb:
         62:7c:3c:13:22:c0:fc:6f:80:f1:b4:92:d2:f8:58:50:b6:33:
         49:01:c2:4c:6b:c3:c7:64:15:57:e9:9f:4b:f4:ae:ae:53:b9:
         04:95:f2:48:68:a7:e3:66:f5:f4:23:53:5a:3d:c9:24:b0:80:
         63:3d:13:96:2d:a2:fe:f3:ef:27:d6:7b:56:c7:22:19:e8:e7:
         55:b5:5a:11
-----BEGIN CERTIFICATE-----
MIIEdTCCA12gAwIBAgIBKTANBgkqhkiG9w0BAQsFADBpMQswCQYDVQQGEwJVUzET
MBEGA1UECAwKQ2FsaWZvcm5pYTEUMBIGA1UEBwwLU2FudGEgQ2xhcmExDTALBgNV
BAoMBHBrZzUxDDAKBgNVBAMMA3RhNTESMBAGCSqGSIb3DQEJARYDdGE1MB4XDTIx
MTEyNDAxMjI0NFoXDTI0MDgyMDAxMjI0NFowcTELMAkGA1UEBhMCVVMxEzARBgNV
BAgMCkNhbGlmb3JuaWExFDASBgNVBAcMC1NhbnRhIENsYXJhMQ0wCwYDVQQKDARw
a2c1MRAwDgYDVQQDDAdjaDFfdGE1MRYwFAYJKoZIhvcNAQkBFgdjaDFfdGE1MIIB
IjANBgkqhkiG9w0BAQEFAAOCAQ8AMIIBCgKCAQEAt9npB1R6z6qXKvID/Sr+bT7N
7juXXvjrlfhJ3EkYWf0zcNt55d8e9Cw0ItTvH87Nl2H1DKgWlPAQ1svvm2GZZIMN
bDmu4ngkpTuREuk2P1Gie5QLDQG4hBSSHp25u98L4cmTrkZwYO+WKZPbMA+Zc5rZ
QFCwkbygcJDxlxi1lpveUbOZR20ut0WDGan7GOcdWbieBVwfR9kNHHpeh2ELNH+a
UnJ3l29e3rIWTny9jQaxbuN3R8Ez+n3UnVE7CzWFHserjPrZIFIvjvUa1Gg2vvxU
hjh4+nCkGe7DvadxVXmgftdQYWlaEQMZYUO9fOOMhajv7DcXaRv/IyU12ch2sQID
AQABo4IBHjCCARowHQYDVR0OBBYEFBYFFL3t4JWeUZomo2fAHUlLibCGMIGbBgNV
HSMEgZMwgZCAFCQnznnNrPYc4t7mWXmRSjH3v9fDoW2kazBpMQswCQYDVQQGEwJV
UzETMBEGA1UECAwKQ2FsaWZvcm5pYTEUMBIGA1UEBwwLU2FudGEgQ2xhcmExDTAL
BgNVBAoMBHBrZzUxDDAKBgNVBAMMA3RhNTESMBAGCSqGSIb3DQEJARYDdGE1ggkA
vI6bVN1VtO8wDwYDVR0TAQH/BAUwAwEB/zA6BgNVHR8EMzAxMC+gLaArhilodHRw
Oi8vbG9jYWxob3N0OjEyMDAxL2ZpbGUvMC90YTVfY3JsLnBlbTAOBgNVHQ8BAf8E
BAMCAQYwDQYJKoZIhvcNAQELBQADggEBAKKhF1f3bx1NA6G0BGkK/v10mXaP3yQX
Tcl/CuDwAnJT11/6RGoY+hHmO0YUA6ebXEPnx9mPku928K5cM3BrXTy70IofHXvo
bRjzhn2lPXgE23oc1d2w4iz+XOU0NiwNTmlIDEL9b1LK5bPn7KyIHqh+3FGvCpG3
3gAQQdmQNlT4CJzqoQwAfGCkQ6/pl3YO9AKX4adgVdXRa/11O8+Z6gZaVSGWUqzQ
2xCdakVpU4ElBMJs62J8PBMiwPxvgPG0ktL4WFC2M0kBwkxrw8dkFVfpn0v0rq5T
uQSV8khop+Nm9fQjU1o9ySSwgGM9E5Ytov7z7yfWe1bHIhno51W1WhE=
-----END CERTIFICATE-----
