Certificate:
    Data:
        Version: 3 (0x2)
        Serial Number: 16 (0x10)
    Signature Algorithm: sha256WithRSAEncryption
        Issuer: C=US, ST=California, L=Santa Clara, O=pkg5, CN=ta3/emailAddress=ta3
        Validity
            Not Before: Nov 24 01:22:42 2021 GMT
            Not After : Aug 20 01:22:42 2024 GMT
        Subject: C=US, ST=California, L=Santa Clara, O=pkg5, CN=ch1_ta3/emailAddress=ch1_ta3
        Subject Public Key Info:
            Public Key Algorithm: rsaEncryption
                Public-Key: (2048 bit)
                Modulus:
                    00:ed:55:18:f1:5f:7e:73:97:50:66:3c:79:cc:a2:
                    07:2a:5a:10:5e:64:2a:56:2a:90:4a:c0:58:02:39:
                    d9:cc:40:35:3c:60:ec:bd:8f:ed:e3:7a:df:31:cc:
                    8f:b1:15:17:cd:b7:9a:ae:16:d0:b6:51:53:0d:28:
                    89:dd:59:1b:08:d2:da:7a:2e:d6:1d:4d:2a:fc:25:
                    b6:b9:70:d2:7d:b7:77:ac:4d:3a:c1:e8:e5:10:b7:
                    83:e9:13:b9:0a:fd:d8:3d:33:a4:9a:e9:69:8d:63:
                    4a:f1:c7:d9:d0:8b:03:bc:bc:1e:b7:21:54:de:cf:
                    38:b5:cc:52:f8:d2:81:b8:cb:43:91:c6:b1:8f:2d:
                    8c:c2:c4:b8:e5:07:3c:2c:56:a3:5e:08:31:bf:3f:
                    43:21:93:7d:75:2d:89:06:1d:6d:87:09:21:5f:15:
                    b9:e2:9e:9e:db:1d:c9:9a:4d:b3:b6:0c:27:43:f4:
                    75:09:00:b3:c6:c6:dc:20:6f:3c:b9:ca:ba:36:e9:
                    13:45:19:a1:a9:94:85:09:ff:35:8f:3f:f2:c7:69:
                    b8:f9:b3:b5:5f:59:cd:c9:5b:7c:fa:42:d0:16:f2:
                    fb:3d:81:19:b1:39:1a:c4:f2:ff:d6:b7:65:49:5a:
                    5c:ab:ad:d9:ac:49:b4:e6:6c:4b:fa:02:52:0b:e4:
                    9a:4d
                Exponent: 65537 (0x10001)
        X509v3 extensions:
            X509v3 Subject Key Identifier: 
                6C:C9:46:0A:2B:9A:EA:23:CF:BB:18:A0:22:B6:B2:1F:4D:0E:BB:10
            X509v3 Authority Key Identifier: 
                keyid:4C:EE:7A:92:F7:45:DA:A1:2E:59:D7:E3:23:97:1A:D5:42:CD:2D:5D
                DirName:/C=US/ST=California/L=Santa Clara/O=pkg5/CN=ta3/emailAddress=ta3
                serial:A8:47:DE:86:A2:39:3F:56

            X509v3 Basic Constraints: critical
                CA:TRUE
            X509v3 Key Usage: critical
                Certificate Sign, CRL Sign
    Signature Algorithm: sha256WithRSAEncryption
         af:5b:8d:be:f9:cb:9e:5d:ea:42:48:9e:68:56:70:9e:ca:f1:
         20:a8:85:fc:7a:f1:b0:b2:e0:4d:b9:d2:dc:04:a5:1a:0f:f5:
         34:c4:06:5b:86:61:79:7d:3e:29:ea:a0:57:78:b9:09:96:01:
         77:40:5a:6c:73:b3:1c:95:c1:e6:fa:c5:46:0e:d4:b3:b9:e2:
         a9:16:89:1b:b3:ae:78:4e:a3:fe:b7:09:3b:f8:d9:92:b9:86:
         57:c1:84:c0:6a:34:43:bc:9a:18:9d:2a:93:2c:c9:eb:25:20:
         9f:63:9d:9d:bf:eb:9b:ec:dd:c5:7d:da:fa:a6:3e:87:d9:1c:
         3d:45:22:14:e2:f9:32:e3:ee:20:85:24:f1:19:cd:c9:ef:55:
         a2:50:e1:e5:ed:0f:4a:22:63:02:21:78:7d:9d:57:85:a5:7f:
         51:88:26:42:0e:f5:62:b4:27:44:9f:81:1b:fb:2e:97:31:42:
         98:ee:c2:03:bf:49:12:6f:8a:56:30:a4:a8:be:08:04:f7:86:
         c0:48:75:05:df:a8:96:73:7e:24:97:4d:5e:f2:e5:39:e3:51:
         55:8d:41:ed:d1:c7:65:1b:05:96:4b:df:13:a9:78:0c:d5:04:
         a4:52:82:02:8b:3f:58:87:e9:33:71:09:d4:12:36:69:43:01:
         15:f7:0f:ed
-----BEGIN CERTIFICATE-----
MIIENzCCAx+gAwIBAgIBEDANBgkqhkiG9w0BAQsFADBpMQswCQYDVQQGEwJVUzET
MBEGA1UECAwKQ2FsaWZvcm5pYTEUMBIGA1UEBwwLU2FudGEgQ2xhcmExDTALBgNV
BAoMBHBrZzUxDDAKBgNVBAMMA3RhMzESMBAGCSqGSIb3DQEJARYDdGEzMB4XDTIx
MTEyNDAxMjI0MloXDTI0MDgyMDAxMjI0MlowcTELMAkGA1UEBhMCVVMxEzARBgNV
BAgMCkNhbGlmb3JuaWExFDASBgNVBAcMC1NhbnRhIENsYXJhMQ0wCwYDVQQKDARw
a2c1MRAwDgYDVQQDDAdjaDFfdGEzMRYwFAYJKoZIhvcNAQkBFgdjaDFfdGEzMIIB
IjANBgkqhkiG9w0BAQEFAAOCAQ8AMIIBCgKCAQEA7VUY8V9+c5dQZjx5zKIHKloQ
XmQqViqQSsBYAjnZzEA1PGDsvY/t43rfMcyPsRUXzbearhbQtlFTDSiJ3VkbCNLa
ei7WHU0q/CW2uXDSfbd3rE06wejlELeD6RO5Cv3YPTOkmulpjWNK8cfZ0IsDvLwe
tyFU3s84tcxS+NKBuMtDkcaxjy2MwsS45Qc8LFajXggxvz9DIZN9dS2JBh1thwkh
XxW54p6e2x3Jmk2ztgwnQ/R1CQCzxsbcIG88ucq6NukTRRmhqZSFCf81jz/yx2m4
+bO1X1nNyVt8+kLQFvL7PYEZsTkaxPL/1rdlSVpcq63ZrEm05mxL+gJSC+SaTQID
AQABo4HhMIHeMB0GA1UdDgQWBBRsyUYKK5rqI8+7GKAitrIfTQ67EDCBmwYDVR0j
BIGTMIGQgBRM7nqS90XaoS5Z1+MjlxrVQs0tXaFtpGswaTELMAkGA1UEBhMCVVMx
EzARBgNVBAgMCkNhbGlmb3JuaWExFDASBgNVBAcMC1NhbnRhIENsYXJhMQ0wCwYD
VQQKDARwa2c1MQwwCgYDVQQDDAN0YTMxEjAQBgkqhkiG9w0BCQEWA3RhM4IJAKhH
3oaiOT9WMA8GA1UdEwEB/wQFMAMBAf8wDgYDVR0PAQH/BAQDAgEGMA0GCSqGSIb3
DQEBCwUAA4IBAQCvW42++cueXepCSJ5oVnCeyvEgqIX8evGwsuBNudLcBKUaD/U0
xAZbhmF5fT4p6qBXeLkJlgF3QFpsc7MclcHm+sVGDtSzueKpFokbs654TqP+twk7
+NmSuYZXwYTAajRDvJoYnSqTLMnrJSCfY52dv+ub7N3Ffdr6pj6H2Rw9RSIU4vky
4+4ghSTxGc3J71WiUOHl7Q9KImMCIXh9nVeFpX9RiCZCDvVitCdEn4Eb+y6XMUKY
7sIDv0kSb4pWMKSovggE94bASHUF36iWc34kl01e8uU541FVjUHt0cdlGwWWS98T
qXgM1QSkUoICiz9Yh+kzcQnUEjZpQwEV9w/t
-----END CERTIFICATE-----
