Certificate:
    Data:
        Version: 3 (0x2)
        Serial Number: 2 (0x2)
    Signature Algorithm: sha256WithRSAEncryption
        Issuer: C=US, ST=California, L=Santa Clara, O=pkg5, CN=ch1_ta1/emailAddress=ch1_ta1
        Validity
            Not Before: Jul  3 14:13:58 2018 GMT
            Not After : Mar 29 14:13:58 2021 GMT
        Subject: C=US, ST=California, L=Santa Clara, O=pkg5, CN=ch2_ta1/emailAddress=ch2_ta1
        Subject Public Key Info:
            Public Key Algorithm: rsaEncryption
                Public-Key: (2048 bit)
                Modulus:
                    00:d8:e3:48:0e:3e:d3:d9:0d:2d:df:67:7d:97:8d:
                    b8:b6:6d:e5:5a:0e:16:e2:68:37:a6:23:48:a8:e1:
                    0e:d3:aa:7f:e3:1c:1c:7f:e5:9d:87:fa:12:47:b7:
                    de:3d:1d:b5:3a:5e:66:87:6b:a3:b1:90:54:29:d9:
                    c9:88:a0:09:7c:ce:17:dc:23:31:cd:cc:e1:a0:47:
                    75:23:83:7f:bc:e2:78:6f:4b:b1:ac:00:58:37:f3:
                    73:e5:f6:fb:78:7c:ee:99:35:22:25:a4:f7:39:79:
                    2c:9f:fd:ce:53:3b:31:c0:8c:ac:5c:be:51:a1:11:
                    dc:f8:74:42:17:71:23:9f:1a:f6:aa:a8:3b:fb:0e:
                    66:c4:56:1a:61:91:ae:77:dc:f6:f2:27:b8:c9:a9:
                    50:2c:87:78:b9:13:4d:cd:e9:09:32:6b:0b:e5:74:
                    58:7e:48:97:5e:4f:c9:cc:5a:6a:ee:33:1b:e6:e8:
                    08:7d:0c:08:39:b3:e4:45:df:d3:26:44:ed:40:68:
                    ab:a5:d7:02:ac:34:6c:35:f8:5c:52:47:3c:45:d7:
                    bb:b4:0f:57:d8:a6:be:82:21:2e:f9:6a:36:0a:24:
                    e1:c1:92:5a:46:e5:29:a5:8c:cc:5d:8e:7c:d8:d7:
                    8f:cf:eb:ae:df:f6:e3:9f:09:c7:c8:40:69:c1:11:
                    9e:bf
                Exponent: 65537 (0x10001)
        X509v3 extensions:
            X509v3 Subject Key Identifier: 
                9F:26:74:E5:1C:BF:28:F8:91:A6:98:17:74:A7:DF:0B:EF:3A:43:E2
            X509v3 Authority Key Identifier: 
                keyid:49:18:CC:C7:F8:5C:55:97:D3:11:34:96:B2:48:49:BB:3C:4A:6D:ED
                DirName:/C=US/ST=California/L=Santa Clara/O=pkg5/CN=ta1/emailAddress=ta1
                serial:01

            X509v3 Basic Constraints: critical
                CA:TRUE, pathlen:3
            X509v3 Key Usage: critical
                Certificate Sign, CRL Sign
    Signature Algorithm: sha256WithRSAEncryption
         39:6c:27:f4:bd:96:f0:f1:e4:b3:a6:53:59:8b:a5:b0:80:5c:
         98:45:9d:8f:e7:e2:2a:d0:8b:cc:ae:d1:5a:bb:52:20:fa:9d:
         82:73:a5:4f:5a:c7:94:37:70:47:6a:28:27:dd:2e:37:4b:52:
         0b:16:6c:b9:22:22:01:6f:f1:70:cb:a9:c0:84:fa:a6:b7:55:
         4c:8c:3c:12:2a:9a:b2:05:a7:5c:0f:b1:ab:cf:54:94:10:71:
         c6:2a:a0:b1:16:af:88:f7:13:0c:17:a6:af:86:6c:a4:44:5f:
         1f:3d:4b:c6:07:0b:3f:50:c3:2c:e4:b5:8d:e4:13:57:f8:f6:
         15:d9:65:ea:e8:3b:cb:17:52:77:0f:7f:12:3c:db:38:1a:9e:
         6d:d4:e9:29:3e:72:a1:5a:be:35:fd:13:5e:07:4c:a1:ee:f4:
         25:cf:95:06:0a:d7:5a:0b:36:b9:17:f2:02:2d:44:0b:cb:54:
         93:f0:68:fe:70:1e:11:72:0a:f1:75:02:74:80:25:3f:60:e3:
         ef:5f:11:e1:78:a3:c4:3b:44:96:d5:25:e5:04:b2:19:58:e0:
         cb:07:5b:54:81:d8:eb:24:e7:06:dd:b4:b8:41:73:f4:65:65:
         a6:4a:35:f6:63:db:d4:33:d0:c3:9a:da:fd:df:8f:1f:f5:9e:
         5b:96:33:13
-----BEGIN CERTIFICATE-----
MIIEOjCCAyKgAwIBAgIBAjANBgkqhkiG9w0BAQsFADBxMQswCQYDVQQGEwJVUzET
MBEGA1UECAwKQ2FsaWZvcm5pYTEUMBIGA1UEBwwLU2FudGEgQ2xhcmExDTALBgNV
BAoMBHBrZzUxEDAOBgNVBAMMB2NoMV90YTExFjAUBgkqhkiG9w0BCQEWB2NoMV90
YTEwHhcNMTgwNzAzMTQxMzU4WhcNMjEwMzI5MTQxMzU4WjBxMQswCQYDVQQGEwJV
UzETMBEGA1UECAwKQ2FsaWZvcm5pYTEUMBIGA1UEBwwLU2FudGEgQ2xhcmExDTAL
BgNVBAoMBHBrZzUxEDAOBgNVBAMMB2NoMl90YTExFjAUBgkqhkiG9w0BCQEWB2No
Ml90YTEwggEiMA0GCSqGSIb3DQEBAQUAA4IBDwAwggEKAoIBAQDY40gOPtPZDS3f
Z32Xjbi2beVaDhbiaDemI0io4Q7Tqn/jHBx/5Z2H+hJHt949HbU6XmaHa6OxkFQp
2cmIoAl8zhfcIzHNzOGgR3Ujg3+84nhvS7GsAFg383Pl9vt4fO6ZNSIlpPc5eSyf
/c5TOzHAjKxcvlGhEdz4dEIXcSOfGvaqqDv7DmbEVhphka533PbyJ7jJqVAsh3i5
E03N6QkyawvldFh+SJdeT8nMWmruMxvm6Ah9DAg5s+RF39MmRO1AaKul1wKsNGw1
+FxSRzxF17u0D1fYpr6CIS75ajYKJOHBklpG5SmljMxdjnzY14/P667f9uOfCcfI
QGnBEZ6/AgMBAAGjgdwwgdkwHQYDVR0OBBYEFJ8mdOUcvyj4kaaYF3Sn3wvvOkPi
MIGTBgNVHSMEgYswgYiAFEkYzMf4XFWX0xE0lrJISbs8Sm3toW2kazBpMQswCQYD
VQQGEwJVUzETMBEGA1UECAwKQ2FsaWZvcm5pYTEUMBIGA1UEBwwLU2FudGEgQ2xh
cmExDTALBgNVBAoMBHBrZzUxDDAKBgNVBAMMA3RhMTESMBAGCSqGSIb3DQEJARYD
dGExggEBMBIGA1UdEwEB/wQIMAYBAf8CAQMwDgYDVR0PAQH/BAQDAgEGMA0GCSqG
SIb3DQEBCwUAA4IBAQA5bCf0vZbw8eSzplNZi6WwgFyYRZ2P5+Iq0IvMrtFau1Ig
+p2Cc6VPWseUN3BHaign3S43S1ILFmy5IiIBb/Fwy6nAhPqmt1VMjDwSKpqyBadc
D7Grz1SUEHHGKqCxFq+I9xMMF6avhmykRF8fPUvGBws/UMMs5LWN5BNX+PYV2WXq
6DvLF1J3D38SPNs4Gp5t1OkpPnKhWr41/RNeB0yh7vQlz5UGCtdaCza5F/ICLUQL
y1ST8Gj+cB4RcgrxdQJ0gCU/YOPvXxHheKPEO0SW1SXlBLIZWODLB1tUgdjrJOcG
3bS4QXP0ZWWmSjX2Y9vUM9DDmtr9348f9Z5bljMT
-----END CERTIFICATE-----
