Certificate:
    Data:
        Version: 3 (0x2)
        Serial Number: 3 (0x3)
    Signature Algorithm: sha256WithRSAEncryption
        Issuer: C=US, ST=California, L=Santa Clara, O=pkg5, CN=ch2_ta1/emailAddress=ch2_ta1
        Validity
            Not Before: Jul  3 14:13:58 2018 GMT
            Not After : Mar 29 14:13:58 2021 GMT
        Subject: C=US, ST=California, L=Santa Clara, O=pkg5, CN=ch3_ta1/emailAddress=ch3_ta1
        Subject Public Key Info:
            Public Key Algorithm: rsaEncryption
                Public-Key: (2048 bit)
                Modulus:
                    00:f5:ad:ea:04:bc:93:5a:16:5a:dd:6e:64:51:0b:
                    55:60:a5:0b:a5:59:4c:4f:16:ed:15:e8:55:1d:84:
                    fa:34:30:d5:be:7a:88:f4:b5:47:11:8d:cb:ed:76:
                    08:df:ab:d5:6d:a5:2d:0b:cf:e6:3b:dd:b6:da:08:
                    ab:ec:9f:62:4c:a6:cd:7f:11:30:36:da:ae:aa:64:
                    93:eb:1e:59:2a:c8:e8:ce:0b:ca:37:cf:8e:06:a9:
                    ec:44:17:6b:fe:f2:83:ef:17:de:df:7e:76:2c:16:
                    78:13:2c:e4:53:77:c6:0e:a6:ef:1b:ca:e0:68:ad:
                    2b:bb:57:13:d2:6c:3a:88:d6:54:af:09:0d:ec:1b:
                    0a:64:10:9d:83:e1:dd:84:58:4b:5c:14:23:4f:e4:
                    47:8c:c3:ef:ae:e2:d5:6c:81:1a:1b:d8:60:58:88:
                    75:c4:5a:41:3f:86:d8:c6:52:41:eb:ad:ba:bf:ae:
                    2e:7b:17:e6:a6:45:d0:ea:70:59:36:d8:c2:7d:6b:
                    1d:50:80:80:d5:96:2d:04:8b:12:71:81:81:29:d1:
                    2d:95:90:09:3f:fb:7c:41:4f:dd:cb:ac:97:43:9e:
                    81:c5:8f:32:2e:af:57:90:83:6d:b8:79:08:8c:01:
                    20:79:47:22:9c:d8:e1:07:54:cf:8a:1c:5a:cb:6b:
                    c9:35
                Exponent: 65537 (0x10001)
        X509v3 extensions:
            X509v3 Subject Key Identifier: 
                52:84:D8:B0:3D:19:6A:89:73:57:E3:BC:5B:C1:13:A1:52:0E:91:D1
            X509v3 Authority Key Identifier: 
                keyid:9F:26:74:E5:1C:BF:28:F8:91:A6:98:17:74:A7:DF:0B:EF:3A:43:E2
                DirName:/C=US/ST=California/L=Santa Clara/O=pkg5/CN=ch1_ta1/emailAddress=ch1_ta1
                serial:02

            X509v3 Basic Constraints: critical
                CA:TRUE, pathlen:2
            X509v3 Key Usage: critical
                Certificate Sign, CRL Sign
    Signature Algorithm: sha256WithRSAEncryption
         a1:1e:39:0a:1e:5f:85:46:d7:40:5e:d7:b1:5f:a4:06:39:22:
         e9:d3:e6:64:a9:e1:b4:d0:37:f9:d8:34:d8:8c:0b:0f:08:1f:
         aa:45:a6:5d:bf:5c:b7:20:f5:09:21:3d:dd:36:d7:49:bc:34:
         95:51:72:f0:83:49:55:83:60:b0:83:c9:a8:9b:34:f3:03:6b:
         bb:b5:5b:f3:cf:41:a2:eb:ce:f8:bf:4c:a3:bc:7e:a4:d4:b1:
         4c:4c:71:a0:fd:f6:70:89:e5:b8:d6:63:c7:2a:99:f7:d0:1e:
         74:e8:9a:21:c9:0e:ce:c9:a4:ad:71:8e:8f:cd:74:13:de:d0:
         59:31:90:0c:b6:da:0a:4d:04:d7:61:68:f5:a3:3e:86:e4:27:
         e2:30:9d:63:78:96:b0:dd:47:c0:cf:12:0f:f3:98:0c:f7:55:
         2a:c7:c2:3d:05:80:88:c9:38:44:b9:43:f8:66:11:8d:9f:b5:
         d7:96:88:1d:64:91:aa:cc:de:0e:db:d2:3f:e3:02:24:62:54:
         3a:d9:65:d5:0e:6d:c7:41:4c:0d:13:f6:93:f2:33:1f:4f:2e:
         74:bd:cb:c3:4b:de:94:4e:61:a2:fb:8d:c0:4c:8e:a9:32:4f:
         03:ae:16:0d:4b:4d:12:9e:5e:ea:81:d6:86:f9:ec:a0:94:78:
         22:b5:57:cc
-----BEGIN CERTIFICATE-----
MIIEQjCCAyqgAwIBAgIBAzANBgkqhkiG9w0BAQsFADBxMQswCQYDVQQGEwJVUzET
MBEGA1UECAwKQ2FsaWZvcm5pYTEUMBIGA1UEBwwLU2FudGEgQ2xhcmExDTALBgNV
BAoMBHBrZzUxEDAOBgNVBAMMB2NoMl90YTExFjAUBgkqhkiG9w0BCQEWB2NoMl90
YTEwHhcNMTgwNzAzMTQxMzU4WhcNMjEwMzI5MTQxMzU4WjBxMQswCQYDVQQGEwJV
UzETMBEGA1UECAwKQ2FsaWZvcm5pYTEUMBIGA1UEBwwLU2FudGEgQ2xhcmExDTAL
BgNVBAoMBHBrZzUxEDAOBgNVBAMMB2NoM190YTExFjAUBgkqhkiG9w0BCQEWB2No
M190YTEwggEiMA0GCSqGSIb3DQEBAQUAA4IBDwAwggEKAoIBAQD1reoEvJNaFlrd
bmRRC1VgpQulWUxPFu0V6FUdhPo0MNW+eoj0tUcRjcvtdgjfq9VtpS0Lz+Y73bba
CKvsn2JMps1/ETA22q6qZJPrHlkqyOjOC8o3z44GqexEF2v+8oPvF97ffnYsFngT
LORTd8YOpu8byuBorSu7VxPSbDqI1lSvCQ3sGwpkEJ2D4d2EWEtcFCNP5EeMw++u
4tVsgRob2GBYiHXEWkE/htjGUkHrrbq/ri57F+amRdDqcFk22MJ9ax1QgIDVli0E
ixJxgYEp0S2VkAk/+3xBT93LrJdDnoHFjzIur1eQg224eQiMASB5RyKc2OEHVM+K
HFrLa8k1AgMBAAGjgeQwgeEwHQYDVR0OBBYEFFKE2LA9GWqJc1fjvFvBE6FSDpHR
MIGbBgNVHSMEgZMwgZCAFJ8mdOUcvyj4kaaYF3Sn3wvvOkPioXWkczBxMQswCQYD
VQQGEwJVUzETMBEGA1UECAwKQ2FsaWZvcm5pYTEUMBIGA1UEBwwLU2FudGEgQ2xh
cmExDTALBgNVBAoMBHBrZzUxEDAOBgNVBAMMB2NoMV90YTExFjAUBgkqhkiG9w0B
CQEWB2NoMV90YTGCAQIwEgYDVR0TAQH/BAgwBgEB/wIBAjAOBgNVHQ8BAf8EBAMC
AQYwDQYJKoZIhvcNAQELBQADggEBAKEeOQoeX4VG10Be17FfpAY5IunT5mSp4bTQ
N/nYNNiMCw8IH6pFpl2/XLcg9QkhPd0210m8NJVRcvCDSVWDYLCDyaibNPMDa7u1
W/PPQaLrzvi/TKO8fqTUsUxMcaD99nCJ5bjWY8cqmffQHnTomiHJDs7JpK1xjo/N
dBPe0FkxkAy22gpNBNdhaPWjPobkJ+IwnWN4lrDdR8DPEg/zmAz3VSrHwj0FgIjJ
OES5Q/hmEY2ftdeWiB1kkarM3g7b0j/jAiRiVDrZZdUObcdBTA0T9pPyMx9PLnS9
y8NL3pROYaL7jcBMjqkyTwOuFg1LTRKeXuqB1ob57KCUeCK1V8w=
-----END CERTIFICATE-----
