Certificate:
    Data:
        Version: 3 (0x2)
        Serial Number: 3 (0x3)
    Signature Algorithm: sha256WithRSAEncryption
        Issuer: C=US, ST=California, L=Santa Clara, O=pkg5, CN=ch2_ta1/emailAddress=ch2_ta1
        Validity
            Not Before: Nov 24 01:22:41 2021 GMT
            Not After : Aug 20 01:22:41 2024 GMT
        Subject: C=US, ST=California, L=Santa Clara, O=pkg5, CN=ch3_ta1/emailAddress=ch3_ta1
        Subject Public Key Info:
            Public Key Algorithm: rsaEncryption
                Public-Key: (2048 bit)
                Modulus:
                    00:bd:b5:74:5a:bb:01:0c:9f:40:6c:6b:50:8d:25:
                    55:d3:bf:c6:02:57:ae:16:15:6f:e5:d8:08:7e:02:
                    f1:d1:08:bb:51:bd:77:e3:9f:68:24:d2:a6:10:49:
                    af:11:34:ac:fc:bb:dc:f5:81:25:e2:ae:ab:e0:90:
                    53:d5:6f:83:34:00:c9:65:61:88:a1:b4:a8:67:d7:
                    24:69:0b:57:f7:93:f3:8b:6b:5a:af:3b:16:95:8e:
                    b5:c0:42:c0:b4:d9:b5:08:ea:56:a0:27:50:5f:cd:
                    c0:70:ca:65:4a:f4:0e:31:c8:12:e6:b2:17:58:fb:
                    96:e6:c0:25:65:06:f7:e7:9f:14:0e:81:b3:f1:87:
                    6d:ef:e8:31:7d:a0:87:1d:89:0c:31:9a:29:f4:12:
                    8f:56:f1:4a:c4:9c:75:84:bf:1a:60:29:2d:2a:6c:
                    bc:12:f8:33:b1:bf:c6:60:54:fd:70:cd:ab:be:8f:
                    f8:48:d8:e2:7d:c0:81:39:d8:3b:d5:6a:d2:94:9b:
                    09:4d:91:a5:66:25:dc:07:72:dd:d1:2d:62:b0:f6:
                    7c:18:66:c1:83:7a:51:65:22:9b:ea:54:7b:56:d7:
                    aa:3c:2f:cc:03:9f:a7:65:c1:a3:cb:68:de:74:62:
                    b1:41:d3:e8:8e:b6:10:d4:6b:63:54:93:ca:39:13:
                    b0:cf
                Exponent: 65537 (0x10001)
        X509v3 extensions:
            X509v3 Subject Key Identifier: 
                8A:11:85:C1:33:94:13:3C:EE:34:20:43:7A:1C:B5:6F:9E:9C:7F:44
            X509v3 Authority Key Identifier: 
                keyid:7F:E1:36:07:83:82:E0:D2:5E:38:3E:D3:EB:C3:76:3B:00:25:F9:37
                DirName:/C=US/ST=California/L=Santa Clara/O=pkg5/CN=ch1_ta1/emailAddress=ch1_ta1
                serial:02

            X509v3 Basic Constraints: critical
                CA:TRUE, pathlen:2
            X509v3 Key Usage: critical
                Certificate Sign, CRL Sign
    Signature Algorithm: sha256WithRSAEncryption
         10:9d:90:ad:4e:14:70:42:7d:b3:c0:4c:ad:5e:3c:ad:ef:ea:
         dc:8a:a3:75:8c:39:f4:0a:ed:76:8c:39:1c:c7:a5:44:ea:27:
         f2:b4:ff:26:5e:37:d6:49:33:52:db:86:6d:c6:64:36:45:8c:
         5a:5e:6a:16:66:be:26:2a:10:35:0e:d5:bc:0b:4a:64:ea:64:
         5d:bd:e0:63:2d:fa:06:e7:35:0a:46:75:b2:ce:ba:f2:41:86:
         fa:bd:b7:58:4b:01:19:da:dc:cf:4e:14:af:6a:db:ec:6a:0c:
         ce:69:19:79:09:c3:a2:d6:63:a4:0c:f8:aa:9e:54:5c:6b:45:
         40:fb:8d:dd:28:83:ec:a7:4d:96:84:9b:a7:ed:52:f6:04:c7:
         de:da:f8:49:1c:cc:cb:e2:e3:0b:37:a8:16:bc:68:17:50:a4:
         c9:a5:ef:7e:99:5c:81:0f:a8:ba:52:bc:4c:f2:74:90:13:70:
         0f:b7:7c:06:ee:25:33:b9:61:e9:7d:81:19:cb:29:41:60:36:
         61:ad:0e:38:27:93:84:58:3e:df:20:93:c8:aa:dd:bb:ed:97:
         d1:e9:19:01:a6:24:1d:47:e4:eb:b3:cd:5c:e7:0e:cc:13:78:
         d0:ee:00:b4:ca:0c:ef:87:48:92:0e:47:1a:ed:82:fa:03:e7:
         64:f2:41:9d
-----BEGIN CERTIFICATE-----
MIIEQjCCAyqgAwIBAgIBAzANBgkqhkiG9w0BAQsFADBxMQswCQYDVQQGEwJVUzET
MBEGA1UECAwKQ2FsaWZvcm5pYTEUMBIGA1UEBwwLU2FudGEgQ2xhcmExDTALBgNV
BAoMBHBrZzUxEDAOBgNVBAMMB2NoMl90YTExFjAUBgkqhkiG9w0BCQEWB2NoMl90
YTEwHhcNMjExMTI0MDEyMjQxWhcNMjQwODIwMDEyMjQxWjBxMQswCQYDVQQGEwJV
UzETMBEGA1UECAwKQ2FsaWZvcm5pYTEUMBIGA1UEBwwLU2FudGEgQ2xhcmExDTAL
BgNVBAoMBHBrZzUxEDAOBgNVBAMMB2NoM190YTExFjAUBgkqhkiG9w0BCQEWB2No
M190YTEwggEiMA0GCSqGSIb3DQEBAQUAA4IBDwAwggEKAoIBAQC9tXRauwEMn0Bs
a1CNJVXTv8YCV64WFW/l2Ah+AvHRCLtRvXfjn2gk0qYQSa8RNKz8u9z1gSXirqvg
kFPVb4M0AMllYYihtKhn1yRpC1f3k/OLa1qvOxaVjrXAQsC02bUI6lagJ1BfzcBw
ymVK9A4xyBLmshdY+5bmwCVlBvfnnxQOgbPxh23v6DF9oIcdiQwxmin0Eo9W8UrE
nHWEvxpgKS0qbLwS+DOxv8ZgVP1wzau+j/hI2OJ9wIE52DvVatKUmwlNkaVmJdwH
ct3RLWKw9nwYZsGDelFlIpvqVHtW16o8L8wDn6dlwaPLaN50YrFB0+iOthDUa2NU
k8o5E7DPAgMBAAGjgeQwgeEwHQYDVR0OBBYEFIoRhcEzlBM87jQgQ3octW+enH9E
MIGbBgNVHSMEgZMwgZCAFH/hNgeDguDSXjg+0+vDdjsAJfk3oXWkczBxMQswCQYD
VQQGEwJVUzETMBEGA1UECAwKQ2FsaWZvcm5pYTEUMBIGA1UEBwwLU2FudGEgQ2xh
cmExDTALBgNVBAoMBHBrZzUxEDAOBgNVBAMMB2NoMV90YTExFjAUBgkqhkiG9w0B
CQEWB2NoMV90YTGCAQIwEgYDVR0TAQH/BAgwBgEB/wIBAjAOBgNVHQ8BAf8EBAMC
AQYwDQYJKoZIhvcNAQELBQADggEBABCdkK1OFHBCfbPATK1ePK3v6tyKo3WMOfQK
7XaMORzHpUTqJ/K0/yZeN9ZJM1Lbhm3GZDZFjFpeahZmviYqEDUO1bwLSmTqZF29
4GMt+gbnNQpGdbLOuvJBhvq9t1hLARna3M9OFK9q2+xqDM5pGXkJw6LWY6QM+Kqe
VFxrRUD7jd0og+ynTZaEm6ftUvYEx97a+EkczMvi4ws3qBa8aBdQpMml736ZXIEP
qLpSvEzydJATcA+3fAbuJTO5Yel9gRnLKUFgNmGtDjgnk4RYPt8gk8iq3bvtl9Hp
GQGmJB1H5OuzzVznDswTeNDuALTKDO+HSJIORxrtgvoD52TyQZ0=
-----END CERTIFICATE-----
