Certificate:
    Data:
        Version: 3 (0x2)
        Serial Number: 12 (0xc)
    Signature Algorithm: sha256WithRSAEncryption
        Issuer: C=US, ST=California, L=Santa Clara, O=pkg5, CN=ch3_ta1/emailAddress=ch3_ta1
        Validity
            Not Before: Jul  3 14:13:59 2018 GMT
            Not After : Mar 29 14:13:59 2021 GMT
        Subject: C=US, ST=California, L=Santa Clara, O=pkg5, CN=ch4.3_ta1/emailAddress=ch4.3_ta1
        Subject Public Key Info:
            Public Key Algorithm: rsaEncryption
                Public-Key: (2048 bit)
                Modulus:
                    00:b8:1b:3e:ea:93:36:c4:35:be:58:ee:ee:33:38:
                    e0:e7:61:f7:2f:a4:12:40:d4:5b:9f:6f:76:8c:b2:
                    fd:eb:d9:b5:85:95:00:61:b5:f1:1d:24:df:02:cd:
                    07:a9:b4:6c:e2:79:a6:3a:e2:98:80:ac:10:d3:c0:
                    c1:79:51:77:44:da:2d:ab:84:69:63:ae:90:c9:fd:
                    18:c5:2f:e8:c1:e5:dc:5c:eb:bc:5a:75:89:76:89:
                    98:36:6d:ef:ef:dd:1c:72:5a:b8:77:80:39:6c:b2:
                    37:f9:23:e8:7c:c4:91:c4:45:fd:e7:77:fa:d3:1b:
                    76:29:c3:6b:4a:3a:fd:42:54:90:02:38:64:28:5e:
                    84:36:48:e1:98:66:ab:17:1d:cd:d3:de:a5:35:7c:
                    04:78:50:c7:be:1e:c5:27:8a:45:c0:da:c0:62:0a:
                    0f:fc:65:ff:9c:f2:93:3d:4f:22:46:05:d8:6e:2c:
                    31:f0:98:82:c3:00:c1:45:1c:33:80:a5:6c:7a:61:
                    9d:c9:c8:e9:ba:7c:c3:23:ef:08:b1:a0:b7:10:52:
                    41:e5:39:0e:a4:42:80:bc:95:3b:65:c5:74:a7:ab:
                    f3:26:9d:9b:8a:c3:24:7f:93:69:d1:db:ff:64:32:
                    81:3a:ef:c3:60:d3:d4:77:cf:19:fa:89:b5:a5:b8:
                    ab:27
                Exponent: 65537 (0x10001)
        X509v3 extensions:
            X509v3 Subject Key Identifier: 
                68:7A:F9:32:88:81:0D:0A:0A:C4:49:AC:B4:49:57:B4:CB:DF:F3:B0
            X509v3 Authority Key Identifier: 
                keyid:52:84:D8:B0:3D:19:6A:89:73:57:E3:BC:5B:C1:13:A1:52:0E:91:D1
                DirName:/C=US/ST=California/L=Santa Clara/O=pkg5/CN=ch2_ta1/emailAddress=ch2_ta1
                serial:03

            X509v3 Basic Constraints: critical
                CA:TRUE, pathlen:0
            X509v3 Key Usage: critical
                Certificate Sign, CRL Sign
    Signature Algorithm: sha256WithRSAEncryption
         6a:e2:aa:95:24:55:2f:af:12:28:20:7b:f8:b6:1e:7c:54:3f:
         17:ea:58:f8:de:48:58:d5:b9:10:2a:86:db:cf:35:a4:b9:7e:
         a7:0f:8c:18:4f:81:0a:ab:55:a6:82:6e:2e:51:01:9d:e0:9a:
         85:2a:04:fc:c6:25:a7:b5:e9:3f:2c:45:ee:23:61:4b:34:a5:
         1d:a0:c7:eb:fe:2a:17:02:96:2f:d6:c3:5d:d5:de:c1:9a:0a:
         1a:1f:64:27:73:38:ef:d7:33:6b:84:f6:d4:f2:7c:1f:9b:f1:
         de:63:9c:ae:1b:63:60:56:53:2e:6c:db:b5:2e:d7:77:11:3e:
         a3:1f:d0:93:0e:20:12:cb:f4:a4:eb:ad:97:79:56:e0:49:eb:
         cb:13:75:5f:ea:a0:94:98:c7:6f:b8:d8:95:e4:c1:92:a5:46:
         be:1f:29:30:a4:f3:08:25:79:82:1c:84:40:03:b3:37:4f:fc:
         c9:2c:a6:dd:ce:ce:15:b8:d2:10:11:cf:2e:f0:6b:c2:00:4e:
         ec:c6:4f:11:58:c2:7d:db:ae:bc:d5:c4:42:aa:08:63:41:85:
         61:ff:1b:ce:3b:cc:c5:02:5e:79:6f:27:e0:9f:b0:55:c2:70:
         7d:ca:62:eb:95:ed:1f:1f:e9:75:c7:44:37:94:f3:fd:7b:08:
         81:39:0b:07
-----BEGIN CERTIFICATE-----
MIIERjCCAy6gAwIBAgIBDDANBgkqhkiG9w0BAQsFADBxMQswCQYDVQQGEwJVUzET
MBEGA1UECAwKQ2FsaWZvcm5pYTEUMBIGA1UEBwwLU2FudGEgQ2xhcmExDTALBgNV
BAoMBHBrZzUxEDAOBgNVBAMMB2NoM190YTExFjAUBgkqhkiG9w0BCQEWB2NoM190
YTEwHhcNMTgwNzAzMTQxMzU5WhcNMjEwMzI5MTQxMzU5WjB1MQswCQYDVQQGEwJV
UzETMBEGA1UECAwKQ2FsaWZvcm5pYTEUMBIGA1UEBwwLU2FudGEgQ2xhcmExDTAL
BgNVBAoMBHBrZzUxEjAQBgNVBAMMCWNoNC4zX3RhMTEYMBYGCSqGSIb3DQEJARYJ
Y2g0LjNfdGExMIIBIjANBgkqhkiG9w0BAQEFAAOCAQ8AMIIBCgKCAQEAuBs+6pM2
xDW+WO7uMzjg52H3L6QSQNRbn292jLL969m1hZUAYbXxHSTfAs0HqbRs4nmmOuKY
gKwQ08DBeVF3RNotq4RpY66Qyf0YxS/oweXcXOu8WnWJdomYNm3v790cclq4d4A5
bLI3+SPofMSRxEX953f60xt2KcNrSjr9QlSQAjhkKF6ENkjhmGarFx3N096lNXwE
eFDHvh7FJ4pFwNrAYgoP/GX/nPKTPU8iRgXYbiwx8JiCwwDBRRwzgKVsemGdycjp
unzDI+8IsaC3EFJB5TkOpEKAvJU7ZcV0p6vzJp2bisMkf5Np0dv/ZDKBOu/DYNPU
d88Z+om1pbirJwIDAQABo4HkMIHhMB0GA1UdDgQWBBRoevkyiIENCgrESay0SVe0
y9/zsDCBmwYDVR0jBIGTMIGQgBRShNiwPRlqiXNX47xbwROhUg6R0aF1pHMwcTEL
MAkGA1UEBhMCVVMxEzARBgNVBAgMCkNhbGlmb3JuaWExFDASBgNVBAcMC1NhbnRh
IENsYXJhMQ0wCwYDVQQKDARwa2c1MRAwDgYDVQQDDAdjaDJfdGExMRYwFAYJKoZI
hvcNAQkBFgdjaDJfdGExggEDMBIGA1UdEwEB/wQIMAYBAf8CAQAwDgYDVR0PAQH/
BAQDAgEGMA0GCSqGSIb3DQEBCwUAA4IBAQBq4qqVJFUvrxIoIHv4th58VD8X6lj4
3khY1bkQKobbzzWkuX6nD4wYT4EKq1Wmgm4uUQGd4JqFKgT8xiWntek/LEXuI2FL
NKUdoMfr/ioXApYv1sNd1d7BmgoaH2Qnczjv1zNrhPbU8nwfm/HeY5yuG2NgVlMu
bNu1Ltd3ET6jH9CTDiASy/Sk662XeVbgSevLE3Vf6qCUmMdvuNiV5MGSpUa+Hykw
pPMIJXmCHIRAA7M3T/zJLKbdzs4VuNIQEc8u8GvCAE7sxk8RWMJ926681cRCqghj
QYVh/xvOO8zFAl55byfgn7BVwnB9ymLrle0fH+l1x0Q3lPP9ewiBOQsH
-----END CERTIFICATE-----
