Certificate:
    Data:
        Version: 3 (0x2)
        Serial Number: 4 (0x4)
    Signature Algorithm: sha256WithRSAEncryption
        Issuer: C=US, ST=California, L=Santa Clara, O=pkg5, CN=ch3_ta1/emailAddress=ch3_ta1
        Validity
            Not Before: Nov 11 12:38:29 2017 GMT
            Not After : Aug  7 12:38:29 2020 GMT
        Subject: C=US, ST=California, L=Santa Clara, O=pkg5, CN=ch4_ta1/emailAddress=ch4_ta1
        Subject Public Key Info:
            Public Key Algorithm: rsaEncryption
                Public-Key: (2048 bit)
                Modulus:
                    00:bf:f4:89:fe:94:4b:a1:e3:a8:45:da:db:52:bf:
                    67:83:da:29:13:96:3f:22:2d:72:63:57:08:ac:9c:
                    97:88:c5:4f:a6:c7:ec:bc:8f:8d:90:c2:19:8c:98:
                    6b:5a:0f:b0:2d:76:00:30:55:9a:1e:96:96:af:4f:
                    dc:ce:e5:e4:bb:e2:63:9a:2c:70:80:13:5e:84:b1:
                    13:23:7c:66:b9:88:14:51:ec:0d:a6:a0:58:91:e8:
                    2b:23:45:38:cb:95:b5:7d:ea:b2:fb:e8:7a:81:f9:
                    af:00:6f:1b:06:a2:31:60:a0:ad:f0:00:db:bc:c4:
                    d4:e0:af:14:b4:c0:b5:6d:86:32:45:de:04:a6:e6:
                    d2:04:3f:11:9d:f4:1a:6e:34:dd:e5:55:45:93:e1:
                    05:ce:be:da:45:68:74:7d:fb:33:68:72:ab:4a:d2:
                    38:fb:d4:b9:52:5a:44:66:db:be:ba:84:ab:06:8f:
                    90:c9:fe:bf:6a:1b:f7:8f:89:8d:f3:35:06:6d:4e:
                    53:14:9c:7f:25:aa:0e:3b:e0:5f:83:66:aa:02:48:
                    e7:23:67:3f:73:3f:00:52:ca:a5:a7:1b:4e:c2:77:
                    2f:cb:ad:53:d7:33:4f:1d:e8:4e:88:c5:72:68:3b:
                    44:2a:78:66:20:40:35:67:61:a2:a6:f4:65:a8:21:
                    8b:2b
                Exponent: 65537 (0x10001)
        X509v3 extensions:
            X509v3 Subject Key Identifier: 
                2A:ED:87:4A:F1:61:C7:64:E5:FF:94:06:BB:62:6D:6D:51:62:77:84
            X509v3 Authority Key Identifier: 
                keyid:8D:DD:94:B0:1D:B5:CB:D0:E3:C4:66:4F:FD:8A:15:F1:5F:75:2E:62
                DirName:/C=US/ST=California/L=Santa Clara/O=pkg5/CN=ch2_ta1/emailAddress=ch2_ta1
                serial:03

            X509v3 Basic Constraints: critical
                CA:TRUE, pathlen:1
            X509v3 Key Usage: critical
                Certificate Sign, CRL Sign
    Signature Algorithm: sha256WithRSAEncryption
         72:46:d2:9f:a8:22:04:4c:9b:87:7f:70:f6:f7:23:79:b2:12:
         5b:09:55:7f:7c:95:9b:cb:b5:16:6b:38:f0:75:07:51:40:0e:
         20:65:d9:fb:87:8c:23:0c:91:7f:1c:38:d9:fc:ad:4e:c7:13:
         68:8a:b9:8d:39:7b:47:22:c0:d6:f4:d9:d3:1d:df:a6:5e:af:
         f3:fc:c4:44:cc:9f:19:05:f8:b8:8e:0e:d5:ee:29:75:7c:77:
         2a:cb:a9:da:90:31:3d:ae:b3:c3:33:a1:0b:31:35:01:03:2b:
         6a:c2:a7:24:4d:e9:83:2c:3f:70:c8:1c:6e:57:b9:8f:51:ef:
         23:58:fb:4b:03:51:d9:35:14:82:25:36:25:c1:a0:96:c8:ea:
         7e:6b:35:c2:cf:12:af:b5:eb:cb:32:27:96:a0:4f:55:6c:88:
         c1:ea:41:46:bd:f2:8e:64:31:05:f0:46:42:cf:3e:7a:4f:ef:
         af:27:e2:42:6a:23:97:c4:d0:6a:d0:2a:10:b0:62:08:65:f8:
         66:e1:4c:0c:f5:46:42:1d:65:19:54:b1:8b:c8:28:cc:5d:16:
         45:4b:f7:51:14:a0:6e:33:f0:84:21:a6:80:b2:ce:c2:62:cb:
         72:c7:a6:4c:91:0d:c8:f9:a8:7d:db:0a:05:e6:db:79:60:43:
         a6:ca:12:ff
-----BEGIN CERTIFICATE-----
MIIEQjCCAyqgAwIBAgIBBDANBgkqhkiG9w0BAQsFADBxMQswCQYDVQQGEwJVUzET
MBEGA1UECAwKQ2FsaWZvcm5pYTEUMBIGA1UEBwwLU2FudGEgQ2xhcmExDTALBgNV
BAoMBHBrZzUxEDAOBgNVBAMMB2NoM190YTExFjAUBgkqhkiG9w0BCQEWB2NoM190
YTEwHhcNMTcxMTExMTIzODI5WhcNMjAwODA3MTIzODI5WjBxMQswCQYDVQQGEwJV
UzETMBEGA1UECAwKQ2FsaWZvcm5pYTEUMBIGA1UEBwwLU2FudGEgQ2xhcmExDTAL
BgNVBAoMBHBrZzUxEDAOBgNVBAMMB2NoNF90YTExFjAUBgkqhkiG9w0BCQEWB2No
NF90YTEwggEiMA0GCSqGSIb3DQEBAQUAA4IBDwAwggEKAoIBAQC/9In+lEuh46hF
2ttSv2eD2ikTlj8iLXJjVwisnJeIxU+mx+y8j42QwhmMmGtaD7AtdgAwVZoelpav
T9zO5eS74mOaLHCAE16EsRMjfGa5iBRR7A2moFiR6CsjRTjLlbV96rL76HqB+a8A
bxsGojFgoK3wANu8xNTgrxS0wLVthjJF3gSm5tIEPxGd9BpuNN3lVUWT4QXOvtpF
aHR9+zNocqtK0jj71LlSWkRm2766hKsGj5DJ/r9qG/ePiY3zNQZtTlMUnH8lqg47
4F+DZqoCSOcjZz9zPwBSyqWnG07Cdy/LrVPXM08d6E6IxXJoO0QqeGYgQDVnYaKm
9GWoIYsrAgMBAAGjgeQwgeEwHQYDVR0OBBYEFCrth0rxYcdk5f+UBrtibW1RYneE
MIGbBgNVHSMEgZMwgZCAFI3dlLAdtcvQ48RmT/2KFfFfdS5ioXWkczBxMQswCQYD
VQQGEwJVUzETMBEGA1UECAwKQ2FsaWZvcm5pYTEUMBIGA1UEBwwLU2FudGEgQ2xh
cmExDTALBgNVBAoMBHBrZzUxEDAOBgNVBAMMB2NoMl90YTExFjAUBgkqhkiG9w0B
CQEWB2NoMl90YTGCAQMwEgYDVR0TAQH/BAgwBgEB/wIBATAOBgNVHQ8BAf8EBAMC
AQYwDQYJKoZIhvcNAQELBQADggEBAHJG0p+oIgRMm4d/cPb3I3myElsJVX98lZvL
tRZrOPB1B1FADiBl2fuHjCMMkX8cONn8rU7HE2iKuY05e0ciwNb02dMd36Zer/P8
xETMnxkF+LiODtXuKXV8dyrLqdqQMT2us8MzoQsxNQEDK2rCpyRN6YMsP3DIHG5X
uY9R7yNY+0sDUdk1FIIlNiXBoJbI6n5rNcLPEq+168syJ5agT1VsiMHqQUa98o5k
MQXwRkLPPnpP768n4kJqI5fE0GrQKhCwYghl+GbhTAz1RkIdZRlUsYvIKMxdFkVL
91EUoG4z8IQhpoCyzsJiy3LHpkyRDcj5qH3bCgXm23lgQ6bKEv8=
-----END CERTIFICATE-----
