Certificate:
    Data:
        Version: 3 (0x2)
        Serial Number: 10 (0xa)
    Signature Algorithm: sha256WithRSAEncryption
        Issuer: C=US, ST=California, L=Santa Clara, O=pkg5, CN=ch4_ta1/emailAddress=ch4_ta1
        Validity
            Not Before: Jul  3 14:13:59 2018 GMT
            Not After : Mar 29 14:13:59 2021 GMT
        Subject: C=US, ST=California, L=Santa Clara, O=pkg5, CN=ch5.2_ta1/emailAddress=ch5.2_ta1
        Subject Public Key Info:
            Public Key Algorithm: rsaEncryption
                Public-Key: (2048 bit)
                Modulus:
                    00:ba:6f:b7:08:b3:6a:99:35:9b:3a:7d:a9:16:11:
                    6c:20:d5:43:d1:e2:6a:3c:0f:ca:b0:1c:b1:29:2e:
                    d0:e6:88:d1:fe:93:05:86:5d:43:80:fd:8a:5b:37:
                    9a:e3:35:5e:26:74:19:d3:8c:7e:b4:36:55:00:b7:
                    5d:80:17:5d:91:a7:34:d6:39:40:f3:da:16:d5:ba:
                    c8:3d:0f:35:d8:1c:7a:87:05:5d:18:5c:f3:59:f5:
                    5a:ce:b4:e5:b3:28:1f:e0:e2:90:f9:4d:f4:00:10:
                    5c:75:b3:1c:6c:78:0c:27:ac:f7:7e:79:b2:f6:67:
                    8d:92:29:aa:32:af:b2:02:dc:ee:b3:8b:bc:b1:1a:
                    44:7b:c7:08:18:39:a4:f7:69:05:4e:8a:30:f1:08:
                    f0:1a:83:7a:79:83:71:86:81:b5:52:c2:ef:9c:57:
                    2c:ae:c3:9e:63:d5:a5:b8:81:45:b7:53:0b:f2:d3:
                    a6:c5:01:0e:48:20:34:1a:6e:ac:18:ea:0e:38:bb:
                    f1:c6:14:96:be:fb:0e:ef:ea:4c:d7:5e:c5:e7:95:
                    2d:dc:83:b0:c1:28:e7:30:f7:4a:ab:79:c8:b5:cb:
                    68:ae:a1:28:c9:da:ff:64:83:bb:f1:23:ac:c1:cc:
                    b9:38:89:b9:0a:46:f2:30:80:c9:0f:0f:07:76:98:
                    90:0f
                Exponent: 65537 (0x10001)
        X509v3 extensions:
            X509v3 Subject Key Identifier: 
                25:C7:10:09:8E:DA:A2:D5:6B:F3:06:A1:72:4A:0A:67:FF:ED:85:DD
            X509v3 Authority Key Identifier: 
                keyid:D1:94:80:21:90:9F:25:9A:54:07:1A:FB:8D:5F:E8:C3:89:17:05:63
                DirName:/C=US/ST=California/L=Santa Clara/O=pkg5/CN=ch3_ta1/emailAddress=ch3_ta1
                serial:04

            X509v3 Basic Constraints: critical
                CA:TRUE, pathlen:1
            X509v3 Key Usage: critical
                Certificate Sign, CRL Sign
    Signature Algorithm: sha256WithRSAEncryption
         3a:40:85:55:90:7a:71:89:5a:ed:11:ef:85:80:13:8f:19:69:
         41:73:39:46:6d:15:69:bc:0d:f5:b2:ef:77:26:a3:2c:e0:fa:
         ab:21:5e:22:ac:bd:c0:c9:fe:99:09:5e:d5:ca:24:df:7d:05:
         74:c2:58:3e:ec:e9:59:d6:1c:4f:ba:62:e4:9b:72:c1:7d:2f:
         96:f9:9e:8a:35:45:95:1b:39:f1:4c:97:a1:89:72:50:fa:0a:
         c0:52:ea:36:07:c8:0a:20:80:f6:f8:65:31:8c:ff:97:19:85:
         6f:20:50:89:7a:37:ff:bc:48:f1:21:19:50:5f:86:c0:78:3f:
         7a:ed:1e:94:7f:df:9a:df:f1:8b:21:f9:a7:f7:5d:31:b3:ab:
         03:42:76:c9:a9:5e:d7:a2:0d:eb:73:17:94:81:d8:fb:2f:a1:
         d7:b0:32:25:73:c7:8e:a1:d6:d0:56:41:10:b6:43:29:fa:4b:
         20:cb:94:03:9e:71:8a:6b:94:06:41:e8:5a:ac:46:f6:de:18:
         ba:64:c4:d8:1c:e9:3e:c8:eb:32:86:c2:97:c4:a7:74:f2:d4:
         83:97:ef:2b:f3:42:55:53:8b:2d:32:c3:5c:43:cb:70:fa:e7:
         08:fd:24:bd:b8:09:97:90:a1:16:91:da:c9:7c:4d:78:00:d2:
         9a:80:92:44
-----BEGIN CERTIFICATE-----
MIIERjCCAy6gAwIBAgIBCjANBgkqhkiG9w0BAQsFADBxMQswCQYDVQQGEwJVUzET
MBEGA1UECAwKQ2FsaWZvcm5pYTEUMBIGA1UEBwwLU2FudGEgQ2xhcmExDTALBgNV
BAoMBHBrZzUxEDAOBgNVBAMMB2NoNF90YTExFjAUBgkqhkiG9w0BCQEWB2NoNF90
YTEwHhcNMTgwNzAzMTQxMzU5WhcNMjEwMzI5MTQxMzU5WjB1MQswCQYDVQQGEwJV
UzETMBEGA1UECAwKQ2FsaWZvcm5pYTEUMBIGA1UEBwwLU2FudGEgQ2xhcmExDTAL
BgNVBAoMBHBrZzUxEjAQBgNVBAMMCWNoNS4yX3RhMTEYMBYGCSqGSIb3DQEJARYJ
Y2g1LjJfdGExMIIBIjANBgkqhkiG9w0BAQEFAAOCAQ8AMIIBCgKCAQEAum+3CLNq
mTWbOn2pFhFsINVD0eJqPA/KsByxKS7Q5ojR/pMFhl1DgP2KWzea4zVeJnQZ04x+
tDZVALddgBddkac01jlA89oW1brIPQ812Bx6hwVdGFzzWfVazrTlsygf4OKQ+U30
ABBcdbMcbHgMJ6z3fnmy9meNkimqMq+yAtzus4u8sRpEe8cIGDmk92kFToow8Qjw
GoN6eYNxhoG1UsLvnFcsrsOeY9WluIFFt1ML8tOmxQEOSCA0Gm6sGOoOOLvxxhSW
vvsO7+pM117F55Ut3IOwwSjnMPdKq3nItctorqEoydr/ZIO78SOswcy5OIm5Ckby
MIDJDw8HdpiQDwIDAQABo4HkMIHhMB0GA1UdDgQWBBQlxxAJjtqi1WvzBqFySgpn
/+2F3TCBmwYDVR0jBIGTMIGQgBTRlIAhkJ8lmlQHGvuNX+jDiRcFY6F1pHMwcTEL
MAkGA1UEBhMCVVMxEzARBgNVBAgMCkNhbGlmb3JuaWExFDASBgNVBAcMC1NhbnRh
IENsYXJhMQ0wCwYDVQQKDARwa2c1MRAwDgYDVQQDDAdjaDNfdGExMRYwFAYJKoZI
hvcNAQkBFgdjaDNfdGExggEEMBIGA1UdEwEB/wQIMAYBAf8CAQEwDgYDVR0PAQH/
BAQDAgEGMA0GCSqGSIb3DQEBCwUAA4IBAQA6QIVVkHpxiVrtEe+FgBOPGWlBczlG
bRVpvA31su93JqMs4PqrIV4irL3Ayf6ZCV7VyiTffQV0wlg+7OlZ1hxPumLkm3LB
fS+W+Z6KNUWVGznxTJehiXJQ+grAUuo2B8gKIID2+GUxjP+XGYVvIFCJejf/vEjx
IRlQX4bAeD967R6Uf9+a3/GLIfmn910xs6sDQnbJqV7Xog3rcxeUgdj7L6HXsDIl
c8eOodbQVkEQtkMp+ksgy5QDnnGKa5QGQeharEb23hi6ZMTYHOk+yOsyhsKXxKd0
8tSDl+8r80JVU4stMsNcQ8tw+ucI/SS9uAmXkKEWkdrJfE14ANKagJJE
-----END CERTIFICATE-----
