Certificate:
    Data:
        Version: 3 (0x2)
        Serial Number: 8 (0x8)
    Signature Algorithm: sha256WithRSAEncryption
        Issuer: C=US, ST=California, L=Santa Clara, O=pkg5, CN=ch4_ta1/emailAddress=ch4_ta1
        Validity
            Not Before: Jul  3 14:13:59 2018 GMT
            Not After : Mar 29 14:13:59 2021 GMT
        Subject: C=US, ST=California, L=Santa Clara, O=pkg5, CN=ch5.1_ta1/emailAddress=ch5.1_ta1
        Subject Public Key Info:
            Public Key Algorithm: rsaEncryption
                Public-Key: (2048 bit)
                Modulus:
                    00:da:44:3c:86:f0:e6:68:8a:9f:fd:79:9a:8c:70:
                    ac:c2:07:78:c6:e8:19:ff:f2:7d:7f:fe:f3:1b:4a:
                    9a:4b:63:44:ab:fa:28:23:ee:ea:51:3c:f6:da:68:
                    46:78:81:4d:9c:b7:79:24:9c:a2:45:5f:e2:0c:ee:
                    c8:41:34:b2:44:89:4d:81:73:08:0e:77:ff:23:98:
                    0b:c6:f0:30:18:34:19:9a:30:8f:ef:ce:e4:b9:63:
                    72:cb:a5:c1:d0:ee:c7:a6:b6:cb:6b:98:bc:56:88:
                    39:68:09:8d:1e:26:f7:6f:36:38:91:12:94:30:f1:
                    5e:24:5d:5e:a2:19:b1:e2:5f:f5:11:db:38:a7:02:
                    40:a3:71:6c:07:59:5e:52:f6:b9:9e:fa:72:c1:75:
                    ff:1b:d5:fe:70:2c:e3:5a:ee:1f:26:ff:04:b0:e3:
                    90:ab:9e:32:32:f4:f2:89:5a:4e:74:9f:80:31:53:
                    04:17:5a:84:e1:71:3e:b0:75:e7:82:10:13:23:a7:
                    24:6e:84:d7:9e:bc:21:55:29:f1:3a:43:07:f4:59:
                    47:b6:ac:f6:ed:f1:68:88:d4:fd:6a:c1:72:b5:0d:
                    bc:b9:e3:7e:bd:4f:d8:38:ec:21:92:f6:0b:a7:15:
                    5e:ac:ee:19:01:45:23:83:26:8a:5c:87:d7:52:d0:
                    25:b5
                Exponent: 65537 (0x10001)
        X509v3 extensions:
            X509v3 Basic Constraints: critical
                CA:TRUE
            X509v3 Issuer Alternative Name: critical
                <EMPTY>

    Signature Algorithm: sha256WithRSAEncryption
         77:8c:cb:45:bf:24:d7:84:c4:97:ac:f5:9d:74:7d:da:b1:56:
         d7:d7:e6:91:9b:82:8f:fd:5b:68:01:aa:db:b9:75:60:01:dd:
         9d:1f:b3:80:9e:ab:06:dd:69:e0:e8:1b:d9:7d:51:01:57:f3:
         b2:af:ca:70:0b:f9:30:df:f5:6b:72:00:2c:e0:ee:d0:5c:da:
         2b:ef:28:5c:ff:d8:ec:e4:1e:4a:a5:89:9d:d9:8c:96:ff:da:
         e1:35:49:e0:a1:68:ae:80:23:7c:a2:0f:a0:60:6e:6c:e0:7a:
         6e:80:37:f9:3a:21:65:2f:24:da:09:90:93:bd:5e:6b:a4:ec:
         87:69:c9:81:09:8d:95:ab:14:ce:d3:b5:02:a0:d1:e7:01:2e:
         d7:f4:90:c7:0c:0e:6a:0a:79:a6:7b:b7:16:34:76:34:1d:0b:
         04:da:91:e4:1e:d4:06:3f:c2:3c:ed:5a:bf:23:16:fa:c1:b3:
         75:7c:f9:21:ec:cc:97:f3:8d:f5:84:82:32:9b:a8:c6:92:31:
         37:2e:2b:5f:d2:52:32:ea:75:bd:e6:11:d0:a6:ed:8e:e6:ed:
         5c:bc:fc:91:3e:51:ba:89:65:25:42:5e:f0:df:45:db:c3:82:
         60:03:32:b8:b6:e8:ac:84:96:2f:04:9e:59:49:50:3d:2c:49:
         e5:05:1e:67
-----BEGIN CERTIFICATE-----
MIIDgjCCAmqgAwIBAgIBCDANBgkqhkiG9w0BAQsFADBxMQswCQYDVQQGEwJVUzET
MBEGA1UECAwKQ2FsaWZvcm5pYTEUMBIGA1UEBwwLU2FudGEgQ2xhcmExDTALBgNV
BAoMBHBrZzUxEDAOBgNVBAMMB2NoNF90YTExFjAUBgkqhkiG9w0BCQEWB2NoNF90
YTEwHhcNMTgwNzAzMTQxMzU5WhcNMjEwMzI5MTQxMzU5WjB1MQswCQYDVQQGEwJV
UzETMBEGA1UECAwKQ2FsaWZvcm5pYTEUMBIGA1UEBwwLU2FudGEgQ2xhcmExDTAL
BgNVBAoMBHBrZzUxEjAQBgNVBAMMCWNoNS4xX3RhMTEYMBYGCSqGSIb3DQEJARYJ
Y2g1LjFfdGExMIIBIjANBgkqhkiG9w0BAQEFAAOCAQ8AMIIBCgKCAQEA2kQ8hvDm
aIqf/XmajHCswgd4xugZ//J9f/7zG0qaS2NEq/ooI+7qUTz22mhGeIFNnLd5JJyi
RV/iDO7IQTSyRIlNgXMIDnf/I5gLxvAwGDQZmjCP787kuWNyy6XB0O7HprbLa5i8
Vog5aAmNHib3bzY4kRKUMPFeJF1eohmx4l/1Eds4pwJAo3FsB1leUva5nvpywXX/
G9X+cCzjWu4fJv8EsOOQq54yMvTyiVpOdJ+AMVMEF1qE4XE+sHXnghATI6ckboTX
nrwhVSnxOkMH9FlHtqz27fFoiNT9asFytQ28ueN+vU/YOOwhkvYLpxVerO4ZAUUj
gyaKXIfXUtAltQIDAQABoyEwHzAPBgNVHRMBAf8EBTADAQH/MAwGA1UdEgEB/wQC
MAAwDQYJKoZIhvcNAQELBQADggEBAHeMy0W/JNeExJes9Z10fdqxVtfX5pGbgo/9
W2gBqtu5dWAB3Z0fs4CeqwbdaeDoG9l9UQFX87KvynAL+TDf9WtyACzg7tBc2ivv
KFz/2OzkHkqliZ3ZjJb/2uE1SeChaK6AI3yiD6Bgbmzgem6AN/k6IWUvJNoJkJO9
Xmuk7IdpyYEJjZWrFM7TtQKg0ecBLtf0kMcMDmoKeaZ7txY0djQdCwTakeQe1AY/
wjztWr8jFvrBs3V8+SHszJfzjfWEgjKbqMaSMTcuK1/SUjLqdb3mEdCm7Y7m7Vy8
/JE+UbqJZSVCXvDfRdvDgmADMri26KyEli8EnllJUD0sSeUFHmc=
-----END CERTIFICATE-----
