Certificate:
    Data:
        Version: 3 (0x2)
        Serial Number: 13 (0xd)
    Signature Algorithm: sha256WithRSAEncryption
        Issuer: C=US, ST=California, L=Santa Clara, O=pkg5, CN=ch4.3_ta1/emailAddress=ch4.3_ta1
        Validity
            Not Before: Nov 11 12:38:30 2017 GMT
            Not After : Aug  7 12:38:30 2020 GMT
        Subject: C=US, ST=California, L=Santa Clara, O=pkg5, CN=ch5.3_ta1/emailAddress=ch5.3_ta1
        Subject Public Key Info:
            Public Key Algorithm: rsaEncryption
                Public-Key: (2048 bit)
                Modulus:
                    00:e2:2d:1b:2b:0d:73:a6:41:ae:0a:7e:fa:72:8f:
                    7e:47:c4:84:a6:68:00:24:a6:af:96:82:e9:19:1a:
                    b7:1b:68:46:41:44:d2:4f:07:73:03:20:8b:2f:f4:
                    75:6a:4c:d2:56:50:6f:c7:ca:3f:a0:42:e7:30:08:
                    9a:5f:b8:09:64:1c:e9:96:b1:c3:96:ff:84:68:79:
                    3d:c5:b5:60:c6:b9:53:b2:62:86:23:6e:b4:b8:83:
                    14:64:5f:07:88:87:8c:51:b1:5a:4b:6e:c0:92:df:
                    12:fa:c6:6e:37:5c:79:43:42:a9:9f:e0:0c:00:d4:
                    c0:88:3b:fd:e8:57:87:9b:61:36:20:a3:a7:34:a0:
                    6a:1c:dd:80:11:63:e0:ca:12:11:9b:1b:ee:88:e3:
                    5a:bb:99:e1:c3:69:98:f3:83:f8:bc:14:b0:ee:a5:
                    95:e3:34:91:98:08:2c:9a:41:a0:00:52:f7:29:7a:
                    3a:73:ff:ee:65:bf:76:d7:fc:4e:0c:b3:29:a7:fb:
                    55:6b:a5:e0:92:27:35:e3:49:9c:0d:85:10:6d:86:
                    9a:fe:29:fa:3f:33:b2:a1:d0:cd:c0:bf:16:a9:5e:
                    9c:c1:82:56:b2:2d:45:7c:be:29:e1:6b:13:67:d2:
                    b9:97:af:1d:59:fb:1f:a8:b6:5b:41:c2:85:86:f0:
                    bc:1b
                Exponent: 65537 (0x10001)
        X509v3 extensions:
            X509v3 Subject Key Identifier: 
                AD:2C:86:2E:BA:42:3A:29:46:0E:F4:11:8B:5A:63:04:A4:00:DE:91
            X509v3 Authority Key Identifier: 
                keyid:96:EC:71:31:FF:4C:BF:13:0E:EF:D8:21:99:C2:BD:30:D1:3A:BA:69
                DirName:/C=US/ST=California/L=Santa Clara/O=pkg5/CN=ch3_ta1/emailAddress=ch3_ta1
                serial:0C

            X509v3 Basic Constraints: critical
                CA:TRUE, pathlen:0
            X509v3 Key Usage: critical
                Certificate Sign, CRL Sign
    Signature Algorithm: sha256WithRSAEncryption
         9f:45:d2:65:45:ed:3b:97:7b:2e:38:4e:39:53:04:61:3f:87:
         52:a3:a9:f8:df:ee:2d:5a:81:d6:a0:a6:a5:fc:70:91:48:85:
         c2:43:91:1e:d9:bb:7b:51:c0:b5:a8:11:e9:c8:76:e3:4a:25:
         08:7a:50:27:36:86:b5:3f:9f:70:23:a3:25:00:db:1c:27:95:
         2e:cc:b4:9b:d3:a5:f3:35:2a:0f:10:01:15:d9:02:f8:6b:f1:
         ed:ee:ef:97:3c:77:de:bf:92:1b:df:81:92:0f:d4:bd:93:08:
         7f:b2:ed:3a:97:60:31:d2:77:a3:7e:22:3e:b2:42:a8:2b:99:
         91:8b:0e:05:50:a4:be:af:6a:a7:ac:7f:90:1d:8f:8f:88:ea:
         fc:4f:f8:0a:6e:4c:93:90:02:f0:eb:ca:04:22:17:3e:28:26:
         e2:bb:20:3d:33:7b:0d:f4:33:bf:24:d6:b0:7a:cf:d1:cf:b0:
         f9:10:1e:ec:31:23:e5:b9:9a:38:31:64:11:6e:d3:54:6c:9a:
         2e:ff:00:9f:d5:66:10:1f:54:87:3a:8e:22:0e:b6:71:e7:ee:
         06:25:84:d4:24:a3:82:4f:9f:fc:aa:6b:6d:94:ef:07:c9:34:
         a5:b0:a6:36:e1:26:b4:ed:56:b9:b3:98:3f:3c:06:9b:48:de:
         78:02:a0:8d
-----BEGIN CERTIFICATE-----
MIIESjCCAzKgAwIBAgIBDTANBgkqhkiG9w0BAQsFADB1MQswCQYDVQQGEwJVUzET
MBEGA1UECAwKQ2FsaWZvcm5pYTEUMBIGA1UEBwwLU2FudGEgQ2xhcmExDTALBgNV
BAoMBHBrZzUxEjAQBgNVBAMMCWNoNC4zX3RhMTEYMBYGCSqGSIb3DQEJARYJY2g0
LjNfdGExMB4XDTE3MTExMTEyMzgzMFoXDTIwMDgwNzEyMzgzMFowdTELMAkGA1UE
BhMCVVMxEzARBgNVBAgMCkNhbGlmb3JuaWExFDASBgNVBAcMC1NhbnRhIENsYXJh
MQ0wCwYDVQQKDARwa2c1MRIwEAYDVQQDDAljaDUuM190YTExGDAWBgkqhkiG9w0B
CQEWCWNoNS4zX3RhMTCCASIwDQYJKoZIhvcNAQEBBQADggEPADCCAQoCggEBAOIt
GysNc6ZBrgp++nKPfkfEhKZoACSmr5aC6RkatxtoRkFE0k8HcwMgiy/0dWpM0lZQ
b8fKP6BC5zAIml+4CWQc6Zaxw5b/hGh5PcW1YMa5U7JihiNutLiDFGRfB4iHjFGx
WktuwJLfEvrGbjdceUNCqZ/gDADUwIg7/ehXh5thNiCjpzSgahzdgBFj4MoSEZsb
7ojjWruZ4cNpmPOD+LwUsO6lleM0kZgILJpBoABS9yl6OnP/7mW/dtf8TgyzKaf7
VWul4JInNeNJnA2FEG2Gmv4p+j8zsqHQzcC/FqlenMGCVrItRXy+KeFrE2fSuZev
HVn7H6i2W0HChYbwvBsCAwEAAaOB5DCB4TAdBgNVHQ4EFgQUrSyGLrpCOilGDvQR
i1pjBKQA3pEwgZsGA1UdIwSBkzCBkIAUluxxMf9MvxMO79ghmcK9MNE6ummhdaRz
MHExCzAJBgNVBAYTAlVTMRMwEQYDVQQIDApDYWxpZm9ybmlhMRQwEgYDVQQHDAtT
YW50YSBDbGFyYTENMAsGA1UECgwEcGtnNTEQMA4GA1UEAwwHY2gzX3RhMTEWMBQG
CSqGSIb3DQEJARYHY2gzX3RhMYIBDDASBgNVHRMBAf8ECDAGAQH/AgEAMA4GA1Ud
DwEB/wQEAwIBBjANBgkqhkiG9w0BAQsFAAOCAQEAn0XSZUXtO5d7LjhOOVMEYT+H
UqOp+N/uLVqB1qCmpfxwkUiFwkORHtm7e1HAtagR6ch240olCHpQJzaGtT+fcCOj
JQDbHCeVLsy0m9Ol8zUqDxABFdkC+Gvx7e7vlzx33r+SG9+Bkg/UvZMIf7LtOpdg
MdJ3o34iPrJCqCuZkYsOBVCkvq9qp6x/kB2Pj4jq/E/4Cm5Mk5AC8OvKBCIXPigm
4rsgPTN7DfQzvyTWsHrP0c+w+RAe7DEj5bmaODFkEW7TVGyaLv8An9VmEB9UhzqO
Ig62cefuBiWE1CSjgk+f/KprbZTvB8k0pbCmNuEmtO1WubOYPzwGm0jeeAKgjQ==
-----END CERTIFICATE-----
