Certificate:
    Data:
        Version: 3 (0x2)
        Serial Number: 5 (0x5)
    Signature Algorithm: sha256WithRSAEncryption
        Issuer: C=US, ST=California, L=Santa Clara, O=pkg5, CN=ch4_ta1/emailAddress=ch4_ta1
        Validity
            Not Before: Nov 11 12:38:30 2017 GMT
            Not After : Aug  7 12:38:30 2020 GMT
        Subject: C=US, ST=California, L=Santa Clara, O=pkg5, CN=ch5_ta1/emailAddress=ch5_ta1
        Subject Public Key Info:
            Public Key Algorithm: rsaEncryption
                Public-Key: (2048 bit)
                Modulus:
                    00:c3:35:0f:17:37:33:8b:e5:bf:cb:18:5d:31:9b:
                    6d:25:29:00:72:82:cb:01:1e:2c:aa:b4:bc:f1:e1:
                    61:5f:b9:bd:aa:04:75:3b:51:89:8a:96:fa:fb:5f:
                    81:86:e2:71:4b:1a:22:10:f6:06:bd:4d:db:dd:af:
                    c6:48:c5:98:82:2b:4e:af:f0:f5:f8:b0:db:5a:7b:
                    a7:2b:14:80:00:3a:53:0f:ac:96:7e:68:f7:0b:f2:
                    5a:05:73:bb:79:46:f1:e1:77:6d:ac:98:36:6f:ff:
                    c7:6c:4c:13:3a:8f:16:15:2d:07:62:6f:fc:5e:50:
                    d2:3f:87:e7:ce:9e:d5:09:e3:f9:a6:8e:5e:4e:ef:
                    67:4b:36:7d:7e:4f:2c:aa:01:a0:de:7d:07:68:57:
                    90:a6:9a:b0:42:82:26:93:83:b5:99:57:75:f7:9e:
                    aa:b9:6d:cb:a6:62:d3:c2:9c:4f:84:b5:dc:63:4c:
                    80:eb:e8:8b:0d:c7:ef:6a:b4:77:40:d0:7a:41:e5:
                    60:1d:e7:77:b4:a9:a1:4d:04:9b:c5:8a:19:cd:3d:
                    15:d6:a6:30:45:49:93:89:a4:37:06:a0:f7:3f:0c:
                    b8:06:be:f5:6f:3c:03:51:7f:2a:86:ce:2b:e5:06:
                    93:01:28:3a:47:cb:88:1c:44:43:2d:11:a8:73:cd:
                    af:93
                Exponent: 65537 (0x10001)
        X509v3 extensions:
            X509v3 Subject Key Identifier: 
                01:DE:A1:65:8D:A9:BA:C7:4A:44:E6:3D:F9:3A:B3:4B:D4:27:DD:74
            X509v3 Authority Key Identifier: 
                keyid:2A:ED:87:4A:F1:61:C7:64:E5:FF:94:06:BB:62:6D:6D:51:62:77:84
                DirName:/C=US/ST=California/L=Santa Clara/O=pkg5/CN=ch3_ta1/emailAddress=ch3_ta1
                serial:04

            X509v3 Basic Constraints: critical
                CA:TRUE, pathlen:0
            X509v3 Key Usage: critical
                Certificate Sign, CRL Sign
    Signature Algorithm: sha256WithRSAEncryption
         30:85:ee:cb:39:69:c2:9b:01:0a:c5:2b:d6:fd:84:30:d9:7f:
         74:2b:30:f7:5b:9e:bc:3b:31:99:b9:93:94:84:f6:9a:52:17:
         a9:e9:b0:7b:47:8c:cc:c9:17:36:37:c5:4d:5e:18:21:5e:cf:
         8e:0b:bf:56:ac:ed:0f:cc:14:5e:05:b4:14:9a:13:d6:58:8d:
         89:27:ca:01:81:5d:ed:1a:8d:18:2b:2e:45:3e:d1:21:db:1d:
         ee:71:be:1a:81:22:67:50:4e:bb:34:59:ca:51:4a:4f:37:4f:
         9d:35:eb:e9:58:11:d8:80:77:b8:01:e5:20:78:10:cc:4c:7d:
         54:db:c1:5f:31:c5:ba:82:c9:0d:48:2e:36:54:e9:5e:25:ed:
         b0:d4:76:f2:48:4b:8f:fa:bc:34:e5:c9:96:32:16:5d:05:00:
         65:db:9c:68:6d:e9:fa:b4:9d:96:15:96:54:98:a0:05:e4:ce:
         45:53:86:32:33:d8:54:b7:37:3c:91:cf:74:c9:b3:40:87:40:
         a7:fb:a8:f6:30:d1:71:8e:0b:c0:e9:66:27:36:d9:39:b2:05:
         1f:d4:32:bc:77:04:1e:e6:24:cc:b3:58:df:84:00:d2:23:f3:
         0c:6a:39:09:18:42:da:54:36:2e:3e:7f:7c:db:a1:59:fa:2a:
         6f:66:7a:67
-----BEGIN CERTIFICATE-----
MIIEQjCCAyqgAwIBAgIBBTANBgkqhkiG9w0BAQsFADBxMQswCQYDVQQGEwJVUzET
MBEGA1UECAwKQ2FsaWZvcm5pYTEUMBIGA1UEBwwLU2FudGEgQ2xhcmExDTALBgNV
BAoMBHBrZzUxEDAOBgNVBAMMB2NoNF90YTExFjAUBgkqhkiG9w0BCQEWB2NoNF90
YTEwHhcNMTcxMTExMTIzODMwWhcNMjAwODA3MTIzODMwWjBxMQswCQYDVQQGEwJV
UzETMBEGA1UECAwKQ2FsaWZvcm5pYTEUMBIGA1UEBwwLU2FudGEgQ2xhcmExDTAL
BgNVBAoMBHBrZzUxEDAOBgNVBAMMB2NoNV90YTExFjAUBgkqhkiG9w0BCQEWB2No
NV90YTEwggEiMA0GCSqGSIb3DQEBAQUAA4IBDwAwggEKAoIBAQDDNQ8XNzOL5b/L
GF0xm20lKQBygssBHiyqtLzx4WFfub2qBHU7UYmKlvr7X4GG4nFLGiIQ9ga9Tdvd
r8ZIxZiCK06v8PX4sNtae6crFIAAOlMPrJZ+aPcL8loFc7t5RvHhd22smDZv/8ds
TBM6jxYVLQdib/xeUNI/h+fOntUJ4/mmjl5O72dLNn1+TyyqAaDefQdoV5CmmrBC
giaTg7WZV3X3nqq5bcumYtPCnE+EtdxjTIDr6IsNx+9qtHdA0HpB5WAd53e0qaFN
BJvFihnNPRXWpjBFSZOJpDcGoPc/DLgGvvVvPANRfyqGzivlBpMBKDpHy4gcREMt
Eahzza+TAgMBAAGjgeQwgeEwHQYDVR0OBBYEFAHeoWWNqbrHSkTmPfk6s0vUJ910
MIGbBgNVHSMEgZMwgZCAFCrth0rxYcdk5f+UBrtibW1RYneEoXWkczBxMQswCQYD
VQQGEwJVUzETMBEGA1UECAwKQ2FsaWZvcm5pYTEUMBIGA1UEBwwLU2FudGEgQ2xh
cmExDTALBgNVBAoMBHBrZzUxEDAOBgNVBAMMB2NoM190YTExFjAUBgkqhkiG9w0B
CQEWB2NoM190YTGCAQQwEgYDVR0TAQH/BAgwBgEB/wIBADAOBgNVHQ8BAf8EBAMC
AQYwDQYJKoZIhvcNAQELBQADggEBADCF7ss5acKbAQrFK9b9hDDZf3QrMPdbnrw7
MZm5k5SE9ppSF6npsHtHjMzJFzY3xU1eGCFez44Lv1as7Q/MFF4FtBSaE9ZYjYkn
ygGBXe0ajRgrLkU+0SHbHe5xvhqBImdQTrs0WcpRSk83T5016+lYEdiAd7gB5SB4
EMxMfVTbwV8xxbqCyQ1ILjZU6V4l7bDUdvJIS4/6vDTlyZYyFl0FAGXbnGht6fq0
nZYVllSYoAXkzkVThjIz2FS3NzyRz3TJs0CHQKf7qPYw0XGOC8DpZic22TmyBR/U
Mrx3BB7mJMyzWN+EANIj8wxqOQkYQtpUNi4+f3zboVn6Km9memc=
-----END CERTIFICATE-----
