Certificate:
    Data:
        Version: 3 (0x2)
        Serial Number: 5 (0x5)
    Signature Algorithm: sha256WithRSAEncryption
        Issuer: C=US, ST=California, L=Santa Clara, O=pkg5, CN=ch4_ta1/emailAddress=ch4_ta1
        Validity
            Not Before: Nov 24 01:22:41 2021 GMT
            Not After : Aug 20 01:22:41 2024 GMT
        Subject: C=US, ST=California, L=Santa Clara, O=pkg5, CN=ch5_ta1/emailAddress=ch5_ta1
        Subject Public Key Info:
            Public Key Algorithm: rsaEncryption
                Public-Key: (2048 bit)
                Modulus:
                    00:a1:1c:f4:7c:d2:7b:88:e4:e8:5f:57:13:31:5d:
                    19:21:2a:48:98:10:08:d7:29:52:b3:db:a5:f8:bf:
                    61:a2:ee:d1:fe:fb:7d:e9:1b:54:b4:ce:22:6c:1e:
                    85:c5:17:05:07:06:07:b0:90:ef:52:6d:f7:fb:89:
                    d2:ad:16:41:32:ad:4a:4a:c3:f8:db:2e:b6:e3:f7:
                    4f:3f:9d:a9:17:21:14:f4:e5:ef:e5:b9:b8:c4:a7:
                    7e:39:74:13:b8:29:d9:16:ad:64:bb:79:b7:e1:f3:
                    d3:fb:fb:82:75:6c:c6:04:0d:95:68:e4:a6:73:fd:
                    32:59:95:c1:c3:08:5f:0e:ac:d1:aa:1c:b1:ad:b5:
                    b2:13:e4:25:c7:57:ea:18:6b:6a:fa:f8:b5:96:9a:
                    f7:44:49:bd:97:f6:4a:39:27:09:41:40:d6:c0:99:
                    7a:74:a8:12:72:51:1a:18:ea:19:e5:73:f0:67:e3:
                    e2:a1:ca:35:eb:6e:79:87:9d:2c:e5:a6:67:70:13:
                    f1:ef:ae:be:d6:2f:97:6d:60:de:fd:fc:2c:58:41:
                    6d:0e:8d:f7:3d:0e:9a:57:7f:9e:cc:16:d8:51:03:
                    e5:35:57:60:19:ad:b1:f1:d1:f3:62:43:be:48:c3:
                    72:4d:2e:7b:72:04:7b:45:70:37:f4:81:ff:b9:98:
                    90:ff
                Exponent: 65537 (0x10001)
        X509v3 extensions:
            X509v3 Subject Key Identifier: 
                43:0B:85:A5:3C:90:67:73:1B:EA:9A:68:86:E5:36:CA:A5:44:72:A6
            X509v3 Authority Key Identifier: 
                keyid:E6:E0:E9:49:6F:1C:61:2B:85:D0:19:1E:3C:AA:9F:D8:84:51:75:C7
                DirName:/C=US/ST=California/L=Santa Clara/O=pkg5/CN=ch3_ta1/emailAddress=ch3_ta1
                serial:04

            X509v3 Basic Constraints: critical
                CA:TRUE, pathlen:0
            X509v3 Key Usage: critical
                Certificate Sign, CRL Sign
    Signature Algorithm: sha256WithRSAEncryption
         07:bf:47:1c:ca:89:ad:c5:46:db:45:3c:43:32:86:a2:3b:06:
         e6:d7:82:91:1f:85:d2:fb:0d:87:83:a6:ea:8a:da:87:df:0d:
         99:ba:22:3a:8e:24:59:14:d8:c5:c7:6e:8e:37:85:ff:04:5b:
         a6:7d:6e:9e:8c:cf:f8:d9:fe:3b:4f:46:2f:a2:ec:13:c2:11:
         21:a3:f6:66:d5:29:18:62:a1:c4:6c:43:ac:f3:34:9b:d1:0c:
         ce:a4:a8:43:c0:18:0b:77:af:fa:0d:a9:69:ab:21:df:17:8b:
         63:c2:c1:61:ec:b3:ff:3d:8d:09:f0:c6:a1:5e:c6:37:3c:d0:
         94:5d:83:10:6b:92:d5:ad:bd:40:9b:b7:28:b8:79:33:9f:74:
         4a:e9:7f:6c:ac:93:b8:93:4c:9b:a4:3b:ef:c2:cb:41:88:d8:
         d7:b9:7c:be:cc:fe:a9:c7:55:c6:23:7c:1d:d1:b0:78:ad:18:
         aa:b4:ac:84:3e:c8:fc:97:7c:62:e6:5c:92:e8:05:2b:dd:12:
         90:e5:34:d4:c5:53:ee:59:6d:7e:f8:3f:f0:f1:58:21:30:a7:
         e3:db:45:e5:be:c3:a9:f3:b6:92:6a:af:02:9b:a8:66:8b:6a:
         8f:2e:86:fe:d7:a8:a0:c6:ac:a8:35:29:f9:42:61:7e:67:9c:
         a4:bf:02:5d
-----BEGIN CERTIFICATE-----
MIIEQjCCAyqgAwIBAgIBBTANBgkqhkiG9w0BAQsFADBxMQswCQYDVQQGEwJVUzET
MBEGA1UECAwKQ2FsaWZvcm5pYTEUMBIGA1UEBwwLU2FudGEgQ2xhcmExDTALBgNV
BAoMBHBrZzUxEDAOBgNVBAMMB2NoNF90YTExFjAUBgkqhkiG9w0BCQEWB2NoNF90
YTEwHhcNMjExMTI0MDEyMjQxWhcNMjQwODIwMDEyMjQxWjBxMQswCQYDVQQGEwJV
UzETMBEGA1UECAwKQ2FsaWZvcm5pYTEUMBIGA1UEBwwLU2FudGEgQ2xhcmExDTAL
BgNVBAoMBHBrZzUxEDAOBgNVBAMMB2NoNV90YTExFjAUBgkqhkiG9w0BCQEWB2No
NV90YTEwggEiMA0GCSqGSIb3DQEBAQUAA4IBDwAwggEKAoIBAQChHPR80nuI5Ohf
VxMxXRkhKkiYEAjXKVKz26X4v2Gi7tH++33pG1S0ziJsHoXFFwUHBgewkO9Sbff7
idKtFkEyrUpKw/jbLrbj908/nakXIRT05e/lubjEp345dBO4KdkWrWS7ebfh89P7
+4J1bMYEDZVo5KZz/TJZlcHDCF8OrNGqHLGttbIT5CXHV+oYa2r6+LWWmvdESb2X
9ko5JwlBQNbAmXp0qBJyURoY6hnlc/Bn4+KhyjXrbnmHnSzlpmdwE/Hvrr7WL5dt
YN79/CxYQW0Ojfc9DppXf57MFthRA+U1V2AZrbHx0fNiQ75Iw3JNLntyBHtFcDf0
gf+5mJD/AgMBAAGjgeQwgeEwHQYDVR0OBBYEFEMLhaU8kGdzG+qaaIblNsqlRHKm
MIGbBgNVHSMEgZMwgZCAFObg6UlvHGErhdAZHjyqn9iEUXXHoXWkczBxMQswCQYD
VQQGEwJVUzETMBEGA1UECAwKQ2FsaWZvcm5pYTEUMBIGA1UEBwwLU2FudGEgQ2xh
cmExDTALBgNVBAoMBHBrZzUxEDAOBgNVBAMMB2NoM190YTExFjAUBgkqhkiG9w0B
CQEWB2NoM190YTGCAQQwEgYDVR0TAQH/BAgwBgEB/wIBADAOBgNVHQ8BAf8EBAMC
AQYwDQYJKoZIhvcNAQELBQADggEBAAe/RxzKia3FRttFPEMyhqI7BubXgpEfhdL7
DYeDpuqK2offDZm6IjqOJFkU2MXHbo43hf8EW6Z9bp6Mz/jZ/jtPRi+i7BPCESGj
9mbVKRhiocRsQ6zzNJvRDM6kqEPAGAt3r/oNqWmrId8Xi2PCwWHss/89jQnwxqFe
xjc80JRdgxBrktWtvUCbtyi4eTOfdErpf2ysk7iTTJukO+/Cy0GI2Ne5fL7M/qnH
VcYjfB3RsHitGKq0rIQ+yPyXfGLmXJLoBSvdEpDlNNTFU+5ZbX74P/DxWCEwp+Pb
ReW+w6nztpJqrwKbqGaLao8uhv7XqKDGrKg1KflCYX5nnKS/Al0=
-----END CERTIFICATE-----
