Certificate Revocation List (CRL):
        Version 1 (0x0)
    Signature Algorithm: sha256WithRSAEncryption
        Issuer: /C=US/ST=California/L=Santa Clara/O=pkg5/CN=ch1.1_ta4/emailAddress=ch1.1_ta4
        Last Update: Nov 24 01:22:43 2021 GMT
        Next Update: Aug 20 01:22:43 2024 GMT
Revoked Certificates:
    Serial Number: 07
        Revocation Date: Nov 24 01:22:41 2021 GMT
    Serial Number: 24
        Revocation Date: Nov 24 01:22:43 2021 GMT
    Serial Number: 28
        Revocation Date: Nov 24 01:22:43 2021 GMT
    Signature Algorithm: sha256WithRSAEncryption
         6c:57:da:43:55:59:5c:47:6b:5e:7a:ed:20:31:82:57:76:42:
         85:dc:17:b1:a8:5b:fd:e5:20:97:45:bf:35:4c:9b:56:97:ae:
         f7:d9:00:55:c3:42:8a:d6:31:3b:57:a4:9c:50:ff:c9:67:58:
         0c:08:19:28:c0:34:0b:69:e2:9a:ea:e0:e6:20:12:65:53:04:
         5b:74:9c:42:57:71:9c:6b:99:6a:21:9f:dd:c0:15:d1:44:75:
         7f:7b:b9:f3:b1:6a:86:25:63:79:98:09:6c:11:ae:e5:74:28:
         7a:6a:17:74:31:6d:10:35:cd:1d:ba:65:05:d0:a9:57:f1:da:
         8a:b2:4a:19:b2:48:ff:00:04:e7:37:a2:b9:1b:8f:c0:38:67:
         6b:d4:e0:62:f3:52:d0:60:2c:3d:14:11:15:11:71:07:e9:10:
         74:d8:6c:8e:60:0e:91:19:cc:e0:4a:e6:b6:89:9e:ec:98:4f:
         3e:93:f4:b0:f7:3d:cd:e6:e1:96:35:f9:e8:c3:c7:dd:89:0e:
         5f:e9:a7:47:f6:eb:62:05:64:1b:75:23:19:44:b5:04:cc:51:
         87:bb:3c:c4:3b:62:8f:69:4b:b8:8c:73:f1:95:8d:84:82:c9:
         70:03:1d:04:4b:36:f5:95:eb:a2:66:02:e7:44:9a:32:51:e0:
         f8:f3:89:21
-----BEGIN X509 CRL-----
MIIB+TCB4jANBgkqhkiG9w0BAQsFADB1MQswCQYDVQQGEwJVUzETMBEGA1UECAwK
Q2FsaWZvcm5pYTEUMBIGA1UEBwwLU2FudGEgQ2xhcmExDTALBgNVBAoMBHBrZzUx
EjAQBgNVBAMMCWNoMS4xX3RhNDEYMBYGCSqGSIb3DQEJARYJY2gxLjFfdGE0Fw0y
MTExMjQwMTIyNDNaFw0yNDA4MjAwMTIyNDNaMDwwEgIBBxcNMjExMTI0MDEyMjQx
WjASAgEkFw0yMTExMjQwMTIyNDNaMBICASgXDTIxMTEyNDAxMjI0M1owDQYJKoZI
hvcNAQELBQADggEBAGxX2kNVWVxHa1567SAxgld2QoXcF7GoW/3lIJdFvzVMm1aX
rvfZAFXDQorWMTtXpJxQ/8lnWAwIGSjANAtp4prq4OYgEmVTBFt0nEJXcZxrmWoh
n93AFdFEdX97ufOxaoYlY3mYCWwRruV0KHpqF3QxbRA1zR26ZQXQqVfx2oqyShmy
SP8ABOc3orkbj8A4Z2vU4GLzUtBgLD0UERURcQfpEHTYbI5gDpEZzOBK5raJnuyY
Tz6T9LD3Pc3m4ZY1+ejDx92JDl/pp0f262IFZBt1IxlEtQTMUYe7PMQ7Yo9pS7iM
c/GVjYSCyXADHQRLNvWV66JmAudEmjJR4PjziSE=
-----END X509 CRL-----
