Certificate Revocation List (CRL):
        Version 1 (0x0)
    Signature Algorithm: sha256WithRSAEncryption
        Issuer: /C=US/ST=California/L=Santa Clara/O=pkg5/CN=ch1.1_ta4/emailAddress=ch1.1_ta4
        Last Update: Jul  3 14:14:03 2018 GMT
        Next Update: Mar 29 14:14:03 2021 GMT
Revoked Certificates:
    Serial Number: 07
        Revocation Date: Jul  3 14:13:59 2018 GMT
    Serial Number: 24
        Revocation Date: Jul  3 14:14:03 2018 GMT
    Serial Number: 28
        Revocation Date: Jul  3 14:14:03 2018 GMT
    Signature Algorithm: sha256WithRSAEncryption
         cf:39:0e:66:c3:3e:f1:42:ac:1c:50:31:da:7c:bb:7d:32:ca:
         53:a7:ba:f8:44:c2:23:3a:49:6d:73:6c:2f:cf:5a:68:b4:d0:
         8b:cc:de:02:5b:f1:4f:9b:fd:69:23:ef:58:04:a0:f4:46:9f:
         e7:ff:cd:f5:ac:21:4d:68:a9:6f:66:1c:88:93:23:52:e1:0d:
         04:80:09:1d:bf:e3:1e:fe:af:08:13:57:91:cf:f8:b5:e9:86:
         10:56:bc:8b:bf:5e:81:4b:15:4f:86:39:40:72:5c:9a:e6:1e:
         0a:16:2f:e1:e3:9e:eb:a4:10:e9:f3:20:ee:07:c5:26:8a:88:
         57:2b:0c:82:e6:b5:ee:6e:e5:12:5d:b1:a5:3a:cb:3c:c1:7a:
         cc:3a:c2:a4:b4:8d:15:bb:9b:ef:61:39:06:e3:de:f5:4a:91:
         b6:e5:dc:2b:2b:9e:dc:00:59:e5:44:57:b7:73:15:e6:48:43:
         0a:ec:92:e5:a4:6f:fe:19:cd:c9:0b:ed:3e:82:b1:cf:1a:cf:
         c4:f9:e8:1a:90:58:6f:f9:7b:fd:1c:ae:7c:26:03:d7:02:e8:
         0e:75:a8:36:2e:7f:5d:24:9d:a0:c5:81:37:b6:12:5c:80:d6:
         9a:2f:c5:6d:07:cb:61:e6:bc:f6:2b:57:26:dc:0b:54:51:8d:
         78:eb:80:49
-----BEGIN X509 CRL-----
MIIB+TCB4jANBgkqhkiG9w0BAQsFADB1MQswCQYDVQQGEwJVUzETMBEGA1UECAwK
Q2FsaWZvcm5pYTEUMBIGA1UEBwwLU2FudGEgQ2xhcmExDTALBgNVBAoMBHBrZzUx
EjAQBgNVBAMMCWNoMS4xX3RhNDEYMBYGCSqGSIb3DQEJARYJY2gxLjFfdGE0Fw0x
ODA3MDMxNDE0MDNaFw0yMTAzMjkxNDE0MDNaMDwwEgIBBxcNMTgwNzAzMTQxMzU5
WjASAgEkFw0xODA3MDMxNDE0MDNaMBICASgXDTE4MDcwMzE0MTQwM1owDQYJKoZI
hvcNAQELBQADggEBAM85DmbDPvFCrBxQMdp8u30yylOnuvhEwiM6SW1zbC/PWmi0
0IvM3gJb8U+b/Wkj71gEoPRGn+f/zfWsIU1oqW9mHIiTI1LhDQSACR2/4x7+rwgT
V5HP+LXphhBWvIu/XoFLFU+GOUByXJrmHgoWL+HjnuukEOnzIO4HxSaKiFcrDILm
te5u5RJdsaU6yzzBesw6wqS0jRW7m+9hOQbj3vVKkbbl3CsrntwAWeVEV7dzFeZI
QwrskuWkb/4ZzckL7T6Csc8az8T56BqQWG/5e/0crnwmA9cC6A51qDYuf10knaDF
gTe2ElyA1povxW0Hy2HmvPYrVybcC1RRjXjrgEk=
-----END X509 CRL-----
