Certificate Revocation List (CRL):
        Version 1 (0x0)
    Signature Algorithm: sha256WithRSAEncryption
        Issuer: /C=US/ST=California/L=Santa Clara/O=pkg5/CN=ch1.1_ta4/emailAddress=ch1.1_ta4
        Last Update: Nov 11 12:38:33 2017 GMT
        Next Update: Aug  7 12:38:33 2020 GMT
Revoked Certificates:
    Serial Number: 07
        Revocation Date: Nov 11 12:38:30 2017 GMT
    Serial Number: 23
        Revocation Date: Nov 11 12:38:33 2017 GMT
    Serial Number: 27
        Revocation Date: Nov 11 12:38:33 2017 GMT
    Signature Algorithm: sha256WithRSAEncryption
         bf:56:40:3d:dd:21:a8:1b:7a:c1:cc:29:a7:a6:20:67:15:80:
         ef:1c:51:bc:61:48:56:5f:e7:42:3d:0f:c0:8c:37:10:d9:f0:
         ee:49:8e:e0:27:f1:dc:c0:ea:34:83:de:54:b0:71:b9:b3:d9:
         a8:d1:c8:7b:08:3b:04:ce:bb:52:f9:d7:07:67:64:b9:fa:1d:
         4f:44:70:fc:a2:b1:a4:df:22:2d:f3:49:5e:e7:88:64:a6:ed:
         b3:28:7c:60:fb:f7:d7:7f:59:77:c3:8e:11:30:32:70:d6:98:
         51:bc:84:7f:0a:e7:ee:c5:81:13:21:77:26:2a:64:23:30:5f:
         f9:b6:88:fc:39:9f:f9:45:cc:b7:75:db:02:df:fd:24:0d:13:
         95:23:e3:5e:de:39:ef:13:e9:ba:75:8e:d6:95:ae:82:51:80:
         b7:aa:8d:7f:d0:31:96:fd:6f:7c:05:2a:c2:5a:09:bf:66:b2:
         e2:f5:f9:e6:08:30:d5:fc:2a:cd:47:3d:88:2d:84:54:bd:a8:
         50:78:71:7d:87:6c:b4:86:25:d8:23:03:d0:5a:a6:36:34:d1:
         94:3a:5a:28:f9:81:d0:ec:fd:55:f5:18:f6:c3:d4:e7:eb:bd:
         29:0c:d3:58:ad:97:78:52:68:3f:84:a8:dc:cb:d6:f3:24:03:
         4d:7f:a4:c5
-----BEGIN X509 CRL-----
MIIB+TCB4jANBgkqhkiG9w0BAQsFADB1MQswCQYDVQQGEwJVUzETMBEGA1UECAwK
Q2FsaWZvcm5pYTEUMBIGA1UEBwwLU2FudGEgQ2xhcmExDTALBgNVBAoMBHBrZzUx
EjAQBgNVBAMMCWNoMS4xX3RhNDEYMBYGCSqGSIb3DQEJARYJY2gxLjFfdGE0Fw0x
NzExMTExMjM4MzNaFw0yMDA4MDcxMjM4MzNaMDwwEgIBBxcNMTcxMTExMTIzODMw
WjASAgEjFw0xNzExMTExMjM4MzNaMBICAScXDTE3MTExMTEyMzgzM1owDQYJKoZI
hvcNAQELBQADggEBAL9WQD3dIagbesHMKaemIGcVgO8cUbxhSFZf50I9D8CMNxDZ
8O5JjuAn8dzA6jSD3lSwcbmz2ajRyHsIOwTOu1L51wdnZLn6HU9EcPyisaTfIi3z
SV7niGSm7bMofGD799d/WXfDjhEwMnDWmFG8hH8K5+7FgRMhdyYqZCMwX/m2iPw5
n/lFzLd12wLf/SQNE5Uj417eOe8T6bp1jtaVroJRgLeqjX/QMZb9b3wFKsJaCb9m
suL1+eYIMNX8Ks1HPYgthFS9qFB4cX2HbLSGJdgjA9BapjY00ZQ6Wij5gdDs/VX1
GPbD1OfrvSkM01itl3hSaD+EqNzL1vMkA01/pMU=
-----END X509 CRL-----
