Certificate Revocation List (CRL):
        Version 1 (0x0)
    Signature Algorithm: sha256WithRSAEncryption
        Issuer: /C=US/ST=California/L=Santa Clara/O=pkg5/CN=ch1_ta4/emailAddress=ch1_ta4
        Last Update: Nov 24 01:22:43 2021 GMT
        Next Update: Aug 20 01:22:43 2024 GMT
Revoked Certificates:
    Serial Number: 07
        Revocation Date: Nov 24 01:22:41 2021 GMT
    Serial Number: 24
        Revocation Date: Nov 24 01:22:43 2021 GMT
    Signature Algorithm: sha256WithRSAEncryption
         5c:f7:0f:c9:b0:a5:03:07:51:5f:be:0f:b3:53:49:cc:d8:af:
         01:3a:eb:33:bd:99:50:1b:68:bb:3c:bc:6c:57:01:36:2d:32:
         ab:77:89:a3:95:54:1e:b5:ad:de:ba:e0:c9:b2:2f:b8:0f:d1:
         43:bb:90:f8:05:61:32:65:90:83:52:22:e0:e7:11:d4:49:aa:
         0c:09:9c:71:b6:38:1f:a0:d1:fe:eb:e6:55:b2:87:59:c2:e8:
         b5:56:80:f6:85:68:55:58:d1:1b:1d:f0:37:c9:15:5e:2b:d8:
         da:f2:b8:38:d2:94:06:13:49:d3:af:ff:d9:4d:de:26:9f:10:
         5d:42:9f:93:49:76:53:f2:8c:ef:2d:61:3b:cb:be:e8:15:74:
         fb:43:be:22:14:b4:b1:95:e4:d6:fb:71:2b:bb:37:51:8e:93:
         9e:d1:f5:c9:86:9f:0f:dd:e3:54:38:64:3a:8b:38:af:ad:13:
         d4:76:a0:88:7b:da:a7:1e:27:fe:d1:21:44:33:09:1c:b5:09:
         0a:ac:be:72:3f:03:a2:2d:f4:ce:b4:b3:e8:79:e2:eb:e0:18:
         69:07:af:76:66:b8:0b:3a:c0:80:55:32:41:80:26:d4:f6:b8:
         b9:0a:c4:7b:81:45:80:3a:c6:63:17:93:df:09:f8:48:98:a7:
         58:27:74:02
-----BEGIN X509 CRL-----
MIIB4TCByjANBgkqhkiG9w0BAQsFADBxMQswCQYDVQQGEwJVUzETMBEGA1UECAwK
Q2FsaWZvcm5pYTEUMBIGA1UEBwwLU2FudGEgQ2xhcmExDTALBgNVBAoMBHBrZzUx
EDAOBgNVBAMMB2NoMV90YTQxFjAUBgkqhkiG9w0BCQEWB2NoMV90YTQXDTIxMTEy
NDAxMjI0M1oXDTI0MDgyMDAxMjI0M1owKDASAgEHFw0yMTExMjQwMTIyNDFaMBIC
ASQXDTIxMTEyNDAxMjI0M1owDQYJKoZIhvcNAQELBQADggEBAFz3D8mwpQMHUV++
D7NTSczYrwE66zO9mVAbaLs8vGxXATYtMqt3iaOVVB61rd664MmyL7gP0UO7kPgF
YTJlkINSIuDnEdRJqgwJnHG2OB+g0f7r5lWyh1nC6LVWgPaFaFVY0Rsd8DfJFV4r
2NryuDjSlAYTSdOv/9lN3iafEF1Cn5NJdlPyjO8tYTvLvugVdPtDviIUtLGV5Nb7
cSu7N1GOk57R9cmGnw/d41Q4ZDqLOK+tE9R2oIh72qceJ/7RIUQzCRy1CQqsvnI/
A6It9M60s+h54uvgGGkHr3ZmuAs6wIBVMkGAJtT2uLkKxHuBRYA6xmMXk98J+EiY
p1gndAI=
-----END X509 CRL-----
