Certificate Revocation List (CRL):
        Version 1 (0x0)
    Signature Algorithm: sha256WithRSAEncryption
        Issuer: /C=US/ST=California/L=Santa Clara/O=pkg5/CN=ch1_ta4/emailAddress=ch1_ta4
        Last Update: Nov 11 12:38:33 2017 GMT
        Next Update: Aug  7 12:38:33 2020 GMT
Revoked Certificates:
    Serial Number: 07
        Revocation Date: Nov 11 12:38:30 2017 GMT
    Serial Number: 23
        Revocation Date: Nov 11 12:38:33 2017 GMT
    Signature Algorithm: sha256WithRSAEncryption
         ba:da:dc:96:19:12:e3:df:9b:a1:06:39:b4:4b:ce:b5:1c:9b:
         7d:52:45:6a:19:b4:bb:e0:54:48:6a:4e:95:93:57:9e:13:6c:
         d1:03:88:76:f9:7f:17:e0:e9:0d:83:04:db:b7:9d:eb:90:dd:
         4b:a0:1d:0e:b5:73:05:e0:a1:da:dc:ad:5a:ac:ec:cb:ab:dc:
         2c:4d:b2:5f:cf:ac:05:0e:3d:c5:6d:59:9d:ff:15:74:89:2b:
         bc:8f:d1:fe:dc:b6:17:8f:fb:df:83:b4:64:fd:27:aa:6f:4e:
         f6:bf:4c:ea:40:1a:9a:a8:64:69:4a:00:54:2b:55:47:59:87:
         b5:cf:72:68:a6:b9:82:96:88:a3:be:3f:33:3f:e1:4c:73:39:
         6a:69:54:d0:4a:7e:23:10:10:53:c5:54:19:ea:76:36:7e:32:
         0b:b9:4d:aa:0f:3a:5b:a8:24:ba:5b:b6:e6:bc:b3:4d:90:98:
         99:55:90:e2:2a:8f:89:84:2c:d5:6e:44:42:ed:73:ca:c4:2c:
         99:33:00:9f:09:80:bd:79:58:a5:1a:f6:0f:71:a7:81:5d:9a:
         1a:96:80:71:da:2d:db:8e:5a:98:f0:c6:e8:be:69:3d:7f:95:
         f3:03:82:75:ab:b9:9f:36:4b:88:7b:d6:1b:9b:19:40:3c:5c:
         93:88:20:ee
-----BEGIN X509 CRL-----
MIIB4TCByjANBgkqhkiG9w0BAQsFADBxMQswCQYDVQQGEwJVUzETMBEGA1UECAwK
Q2FsaWZvcm5pYTEUMBIGA1UEBwwLU2FudGEgQ2xhcmExDTALBgNVBAoMBHBrZzUx
EDAOBgNVBAMMB2NoMV90YTQxFjAUBgkqhkiG9w0BCQEWB2NoMV90YTQXDTE3MTEx
MTEyMzgzM1oXDTIwMDgwNzEyMzgzM1owKDASAgEHFw0xNzExMTExMjM4MzBaMBIC
ASMXDTE3MTExMTEyMzgzM1owDQYJKoZIhvcNAQELBQADggEBALra3JYZEuPfm6EG
ObRLzrUcm31SRWoZtLvgVEhqTpWTV54TbNEDiHb5fxfg6Q2DBNu3neuQ3UugHQ61
cwXgodrcrVqs7Mur3CxNsl/PrAUOPcVtWZ3/FXSJK7yP0f7ctheP+9+DtGT9J6pv
Tva/TOpAGpqoZGlKAFQrVUdZh7XPcmimuYKWiKO+PzM/4UxzOWppVNBKfiMQEFPF
VBnqdjZ+Mgu5TaoPOluoJLpbtua8s02QmJlVkOIqj4mELNVuRELtc8rELJkzAJ8J
gL15WKUa9g9xp4FdmhqWgHHaLduOWpjwxui+aT1/lfMDgnWruZ82S4h71hubGUA8
XJOIIO4=
-----END X509 CRL-----
