Certificate Revocation List (CRL):
        Version 1 (0x0)
    Signature Algorithm: sha256WithRSAEncryption
        Issuer: /C=US/ST=California/L=Santa Clara/O=pkg5/CN=ch1_ta4/emailAddress=ch1_ta4
        Last Update: Jul  3 14:14:03 2018 GMT
        Next Update: Mar 29 14:14:03 2021 GMT
Revoked Certificates:
    Serial Number: 07
        Revocation Date: Jul  3 14:13:59 2018 GMT
    Serial Number: 24
        Revocation Date: Jul  3 14:14:03 2018 GMT
    Signature Algorithm: sha256WithRSAEncryption
         33:52:2c:e5:30:a1:e6:fe:f2:c3:77:8a:40:6e:b4:8e:9d:0d:
         63:f6:cb:a3:df:24:84:18:1f:b2:49:4a:46:58:64:67:fd:40:
         cf:d2:bb:2f:88:b4:d8:7d:85:22:f8:26:7e:20:76:5f:66:0f:
         6b:08:90:13:b3:1a:a4:34:69:59:96:54:45:35:28:3d:e1:58:
         a2:d8:82:db:28:38:39:35:e6:0b:88:4c:c9:f4:e5:3d:fe:d9:
         fa:51:a6:bd:68:69:46:8d:92:be:8a:44:cf:2b:24:06:08:72:
         55:12:07:e1:6d:e5:4c:c3:b4:26:09:e1:83:3d:1a:65:b2:a9:
         ff:ba:9e:05:ae:64:55:00:43:00:ad:37:4f:48:fb:73:43:84:
         ae:d3:87:fd:14:19:12:f3:b0:27:b5:cb:bc:35:3d:2c:93:8d:
         11:e8:d2:b1:60:72:35:ca:f5:f7:24:3c:bf:23:99:17:f2:be:
         6d:ba:06:ca:f9:9d:d2:4a:38:c9:98:5a:48:67:9d:35:aa:07:
         1e:dc:a0:20:cf:7c:b2:97:5a:06:4c:d2:34:72:d5:43:07:95:
         64:e4:e9:c7:26:ef:1c:2e:b7:55:a3:46:7c:1b:21:1b:1d:f7:
         34:b4:5c:c2:7b:f0:2f:01:84:ff:04:7a:42:f2:6c:59:3b:63:
         20:b6:3f:16
-----BEGIN X509 CRL-----
MIIB4TCByjANBgkqhkiG9w0BAQsFADBxMQswCQYDVQQGEwJVUzETMBEGA1UECAwK
Q2FsaWZvcm5pYTEUMBIGA1UEBwwLU2FudGEgQ2xhcmExDTALBgNVBAoMBHBrZzUx
EDAOBgNVBAMMB2NoMV90YTQxFjAUBgkqhkiG9w0BCQEWB2NoMV90YTQXDTE4MDcw
MzE0MTQwM1oXDTIxMDMyOTE0MTQwM1owKDASAgEHFw0xODA3MDMxNDEzNTlaMBIC
ASQXDTE4MDcwMzE0MTQwM1owDQYJKoZIhvcNAQELBQADggEBADNSLOUwoeb+8sN3
ikButI6dDWP2y6PfJIQYH7JJSkZYZGf9QM/Suy+ItNh9hSL4Jn4gdl9mD2sIkBOz
GqQ0aVmWVEU1KD3hWKLYgtsoODk15guITMn05T3+2fpRpr1oaUaNkr6KRM8rJAYI
clUSB+Ft5UzDtCYJ4YM9GmWyqf+6ngWuZFUAQwCtN09I+3NDhK7Th/0UGRLzsCe1
y7w1PSyTjRHo0rFgcjXK9fckPL8jmRfyvm26Bsr5ndJKOMmYWkhnnTWqBx7coCDP
fLKXWgZM0jRy1UMHlWTk6ccm7xwut1WjRnwbIRsd9zS0XMJ78C8BhP8EekLybFk7
YyC2PxY=
-----END X509 CRL-----
