Certificate Revocation List (CRL):
        Version 1 (0x0)
    Signature Algorithm: sha256WithRSAEncryption
        Issuer: /C=US/ST=California/L=Santa Clara/O=pkg5/CN=ch5_ta1/emailAddress=ch5_ta1
        Last Update: Nov 24 01:22:41 2021 GMT
        Next Update: Aug 20 01:22:41 2024 GMT
Revoked Certificates:
    Serial Number: 07
        Revocation Date: Nov 24 01:22:41 2021 GMT
    Signature Algorithm: sha256WithRSAEncryption
         8f:66:48:1d:31:66:81:53:83:3b:b3:76:8e:b5:08:9f:e6:4a:
         00:84:b7:14:12:fb:19:7e:74:0e:1d:9b:ba:c2:e3:3e:1a:28:
         b0:21:73:8f:8d:db:74:a9:2b:a7:1e:e0:7d:36:e8:67:c2:4c:
         9d:7a:64:f4:7b:3a:73:0d:90:45:b3:ff:7f:ae:30:1f:dd:5d:
         0d:34:b0:26:bd:6e:5f:4f:99:8f:fb:d4:ad:bd:30:ac:87:18:
         84:4b:80:68:29:70:47:af:98:7c:57:71:7c:f1:c8:03:32:51:
         31:70:bb:2c:43:81:d5:03:7b:a6:61:bd:ad:c0:e9:29:08:14:
         c8:14:53:8c:94:c6:b8:35:23:71:df:5f:c5:f6:fb:16:38:2a:
         5b:ab:66:7f:9a:4a:87:07:59:d0:8c:fc:95:59:39:b7:1e:15:
         d8:ba:df:89:58:e6:6f:9b:a8:59:da:3c:e6:52:97:1a:55:30:
         a4:12:e4:70:ef:ee:19:e2:5e:01:d4:6c:81:55:2b:5d:3b:bc:
         4a:b0:d3:65:de:ea:9a:05:01:3c:62:c1:dd:f3:c7:ce:3c:92:
         35:81:05:fb:a8:93:cc:60:56:1b:bd:6e:02:12:3f:8a:fd:a7:
         54:21:fd:8e:65:29:cd:16:4e:7f:e9:fd:9a:7e:6f:88:fb:00:
         83:0c:ea:3a
-----BEGIN X509 CRL-----
MIIBzTCBtjANBgkqhkiG9w0BAQsFADBxMQswCQYDVQQGEwJVUzETMBEGA1UECAwK
Q2FsaWZvcm5pYTEUMBIGA1UEBwwLU2FudGEgQ2xhcmExDTALBgNVBAoMBHBrZzUx
EDAOBgNVBAMMB2NoNV90YTExFjAUBgkqhkiG9w0BCQEWB2NoNV90YTEXDTIxMTEy
NDAxMjI0MVoXDTI0MDgyMDAxMjI0MVowFDASAgEHFw0yMTExMjQwMTIyNDFaMA0G
CSqGSIb3DQEBCwUAA4IBAQCPZkgdMWaBU4M7s3aOtQif5koAhLcUEvsZfnQOHZu6
wuM+GiiwIXOPjdt0qSunHuB9NuhnwkydemT0ezpzDZBFs/9/rjAf3V0NNLAmvW5f
T5mP+9StvTCshxiES4BoKXBHr5h8V3F88cgDMlExcLssQ4HVA3umYb2twOkpCBTI
FFOMlMa4NSNx31/F9vsWOCpbq2Z/mkqHB1nQjPyVWTm3HhXYut+JWOZvm6hZ2jzm
UpcaVTCkEuRw7+4Z4l4B1GyBVStdO7xKsNNl3uqaBQE8YsHd88fOPJI1gQX7qJPM
YFYbvW4CEj+K/adUIf2OZSnNFk5/6f2afm+I+wCDDOo6
-----END X509 CRL-----
