Certificate Revocation List (CRL):
        Version 1 (0x0)
    Signature Algorithm: sha256WithRSAEncryption
        Issuer: /C=US/ST=California/L=Santa Clara/O=pkg5/CN=ch5_ta1/emailAddress=ch5_ta1
        Last Update: Nov 11 12:38:30 2017 GMT
        Next Update: Aug  7 12:38:30 2020 GMT
Revoked Certificates:
    Serial Number: 07
        Revocation Date: Nov 11 12:38:30 2017 GMT
    Signature Algorithm: sha256WithRSAEncryption
         5a:88:84:12:a8:4b:b2:a1:1b:ac:1a:79:7e:3e:73:a6:6a:cf:
         bc:a1:0c:d2:86:ca:13:ef:b8:e4:fc:f5:1a:24:a2:b4:8d:bb:
         80:cd:36:8f:db:f4:ba:bf:cf:d1:62:22:e4:33:51:3c:28:d0:
         7a:9c:ee:15:35:1b:77:e0:a3:e4:83:72:f6:6e:3b:a7:09:2b:
         53:39:21:56:d3:e5:a1:39:6f:18:14:f0:84:50:e5:d0:1f:ea:
         53:13:d0:8e:8f:06:cb:80:b9:a8:0f:e8:88:21:63:69:17:cb:
         e3:1d:b9:f7:7a:19:19:09:16:a7:09:84:e6:9f:88:d7:21:f3:
         b4:24:b5:2d:cc:83:bc:ec:5b:86:2b:90:3a:bd:26:57:9c:6f:
         ce:5e:b5:a5:0f:b6:ee:3a:49:ce:86:6a:dd:93:59:cf:bc:7b:
         3e:55:c8:68:ff:fb:ea:3d:df:35:ce:b1:06:51:26:7e:68:a2:
         67:53:2e:0d:ab:d2:a3:c5:2c:5c:11:70:7e:d3:d1:07:36:cb:
         48:98:32:e0:3c:74:77:c1:0b:a1:2a:61:47:0d:29:bc:23:bf:
         9c:0b:3c:cf:7b:62:46:d9:8d:67:ed:71:e1:a1:2e:47:7b:59:
         bc:25:9c:d6:ca:60:b2:8c:d6:dc:b9:85:58:35:4d:32:9d:ba:
         62:28:fa:ae
-----BEGIN X509 CRL-----
MIIBzTCBtjANBgkqhkiG9w0BAQsFADBxMQswCQYDVQQGEwJVUzETMBEGA1UECAwK
Q2FsaWZvcm5pYTEUMBIGA1UEBwwLU2FudGEgQ2xhcmExDTALBgNVBAoMBHBrZzUx
EDAOBgNVBAMMB2NoNV90YTExFjAUBgkqhkiG9w0BCQEWB2NoNV90YTEXDTE3MTEx
MTEyMzgzMFoXDTIwMDgwNzEyMzgzMFowFDASAgEHFw0xNzExMTExMjM4MzBaMA0G
CSqGSIb3DQEBCwUAA4IBAQBaiIQSqEuyoRusGnl+PnOmas+8oQzShsoT77jk/PUa
JKK0jbuAzTaP2/S6v8/RYiLkM1E8KNB6nO4VNRt34KPkg3L2bjunCStTOSFW0+Wh
OW8YFPCEUOXQH+pTE9COjwbLgLmoD+iIIWNpF8vjHbn3ehkZCRanCYTmn4jXIfO0
JLUtzIO87FuGK5A6vSZXnG/OXrWlD7buOknOhmrdk1nPvHs+Vcho//vqPd81zrEG
USZ+aKJnUy4Nq9KjxSxcEXB+09EHNstImDLgPHR3wQuhKmFHDSm8I7+cCzzPe2JG
2Y1n7XHhoS5He1m8JZzWymCyjNbcuYVYNU0ynbpiKPqu
-----END X509 CRL-----
