Certificate Revocation List (CRL):
        Version 1 (0x0)
    Signature Algorithm: sha256WithRSAEncryption
        Issuer: /C=US/ST=California/L=Santa Clara/O=pkg5/CN=ch5_ta1/emailAddress=ch5_ta1
        Last Update: Jul  3 14:13:59 2018 GMT
        Next Update: Mar 29 14:13:59 2021 GMT
Revoked Certificates:
    Serial Number: 07
        Revocation Date: Jul  3 14:13:59 2018 GMT
    Signature Algorithm: sha256WithRSAEncryption
         a7:c4:54:ae:ba:aa:95:e5:12:dd:cd:8c:23:d7:dc:fb:ac:79:
         f0:6b:d8:71:7b:f5:70:49:4a:16:3f:24:61:ce:c5:ad:8c:27:
         2a:7d:ca:6c:2d:cb:c8:66:af:a3:f7:0c:05:37:5b:aa:b4:50:
         4b:79:b2:a2:c7:75:96:5f:65:ad:1c:c5:c0:4f:5f:9f:d9:26:
         40:5c:4d:92:e0:13:c7:c4:d6:17:60:54:e8:06:4b:94:55:19:
         18:37:c2:48:23:fb:f6:ef:c0:0a:14:69:59:d0:5a:46:7f:31:
         b2:b1:63:0c:56:c6:63:46:d9:80:c1:83:8d:58:bc:71:1c:bb:
         78:0f:ae:9d:a2:44:14:67:ac:dd:27:ac:2e:69:43:84:f4:9b:
         98:8d:f1:ef:e6:1c:32:7e:1c:e2:60:4c:71:cb:8c:ea:e3:51:
         5e:47:00:26:ad:a3:af:13:ca:98:09:3b:56:23:62:16:47:00:
         f8:ae:47:20:64:78:3b:8b:cc:52:52:63:bf:35:b2:3a:ba:89:
         5b:8e:e8:1b:31:ad:dc:26:26:88:72:37:72:be:f4:6f:47:c0:
         12:53:6a:04:41:46:d7:99:a8:0b:9e:24:4f:a7:21:27:0e:6d:
         1c:1c:43:6d:12:58:7a:f4:c1:dd:60:f1:53:d1:3d:43:d5:dd:
         d4:77:06:98
-----BEGIN X509 CRL-----
MIIBzTCBtjANBgkqhkiG9w0BAQsFADBxMQswCQYDVQQGEwJVUzETMBEGA1UECAwK
Q2FsaWZvcm5pYTEUMBIGA1UEBwwLU2FudGEgQ2xhcmExDTALBgNVBAoMBHBrZzUx
EDAOBgNVBAMMB2NoNV90YTExFjAUBgkqhkiG9w0BCQEWB2NoNV90YTEXDTE4MDcw
MzE0MTM1OVoXDTIxMDMyOTE0MTM1OVowFDASAgEHFw0xODA3MDMxNDEzNTlaMA0G
CSqGSIb3DQEBCwUAA4IBAQCnxFSuuqqV5RLdzYwj19z7rHnwa9hxe/VwSUoWPyRh
zsWtjCcqfcpsLcvIZq+j9wwFN1uqtFBLebKix3WWX2WtHMXAT1+f2SZAXE2S4BPH
xNYXYFToBkuUVRkYN8JII/v278AKFGlZ0FpGfzGysWMMVsZjRtmAwYONWLxxHLt4
D66dokQUZ6zdJ6wuaUOE9JuYjfHv5hwyfhziYExxy4zq41FeRwAmraOvE8qYCTtW
I2IWRwD4rkcgZHg7i8xSUmO/NbI6uolbjugbMa3cJiaIcjdyvvRvR8ASU2oEQUbX
magLniRPpyEnDm0cHENtElh69MHdYPFT0T1D1d3UdwaY
-----END X509 CRL-----
