Certificate Revocation List (CRL):
        Version 1 (0x0)
    Signature Algorithm: sha256WithRSAEncryption
        Issuer: /C=US/ST=California/L=Santa Clara/O=pkg5/CN=ta5/emailAddress=ta5
        Last Update: Jul  3 14:14:04 2018 GMT
        Next Update: Mar 29 14:14:04 2021 GMT
Revoked Certificates:
    Serial Number: 07
        Revocation Date: Jul  3 14:13:59 2018 GMT
    Serial Number: 24
        Revocation Date: Jul  3 14:14:03 2018 GMT
    Serial Number: 28
        Revocation Date: Jul  3 14:14:03 2018 GMT
    Serial Number: 29
        Revocation Date: Jul  3 14:14:04 2018 GMT
    Signature Algorithm: sha256WithRSAEncryption
         18:2a:a7:ff:56:99:72:55:33:80:7d:cd:6f:1d:d4:36:55:a1:
         b4:57:8c:7b:12:8c:44:d5:81:eb:87:14:e1:f4:9e:02:fc:fe:
         9c:1e:98:09:64:f8:f8:39:10:57:fa:04:03:6a:ac:9f:8f:54:
         08:49:62:38:80:a2:dd:fc:33:29:b1:d6:4e:54:06:6d:18:13:
         06:b9:87:2d:77:a3:e5:9b:24:07:40:b5:51:3e:77:c0:34:5e:
         33:a1:e1:81:77:2a:40:08:2b:3a:5c:7f:31:db:6e:67:03:73:
         b4:42:0e:c4:62:58:cb:16:2f:c2:d4:a1:fc:27:37:28:17:bb:
         15:32:5d:55:a5:92:80:73:98:c9:48:46:c5:f8:97:cd:b7:f5:
         f2:81:16:f9:6d:98:9b:a8:fe:46:db:39:8a:b7:f0:88:5e:4a:
         6e:a9:86:f8:2a:90:91:e1:83:64:7f:a8:f7:3c:73:2c:f9:b4:
         24:9c:30:02:7c:2c:ef:f7:ff:75:08:4d:77:36:6b:97:d7:64:
         2e:6b:ce:b8:94:e2:4f:b9:13:5c:6a:56:ff:bd:cf:aa:b3:33:
         13:0f:ed:8e:35:c0:96:a4:46:e6:1e:b2:03:28:85:e1:55:33:
         54:20:0a:cf:7b:4a:99:12:fb:31:4d:6e:2b:15:03:47:86:ef:
         2a:9e:56:73
-----BEGIN X509 CRL-----
MIICATCB6jANBgkqhkiG9w0BAQsFADBpMQswCQYDVQQGEwJVUzETMBEGA1UECAwK
Q2FsaWZvcm5pYTEUMBIGA1UEBwwLU2FudGEgQ2xhcmExDTALBgNVBAoMBHBrZzUx
DDAKBgNVBAMMA3RhNTESMBAGCSqGSIb3DQEJARYDdGE1Fw0xODA3MDMxNDE0MDRa
Fw0yMTAzMjkxNDE0MDRaMFAwEgIBBxcNMTgwNzAzMTQxMzU5WjASAgEkFw0xODA3
MDMxNDE0MDNaMBICASgXDTE4MDcwMzE0MTQwM1owEgIBKRcNMTgwNzAzMTQxNDA0
WjANBgkqhkiG9w0BAQsFAAOCAQEAGCqn/1aZclUzgH3Nbx3UNlWhtFeMexKMRNWB
64cU4fSeAvz+nB6YCWT4+DkQV/oEA2qsn49UCEliOICi3fwzKbHWTlQGbRgTBrmH
LXej5ZskB0C1UT53wDReM6HhgXcqQAgrOlx/MdtuZwNztEIOxGJYyxYvwtSh/Cc3
KBe7FTJdVaWSgHOYyUhGxfiXzbf18oEW+W2Ym6j+Rts5irfwiF5KbqmG+CqQkeGD
ZH+o9zxzLPm0JJwwAnws7/f/dQhNdzZrl9dkLmvOuJTiT7kTXGpW/73PqrMzEw/t
jjXAlqRG5h6yAyiF4VUzVCAKz3tKmRL7MU1uKxUDR4bvKp5Wcw==
-----END X509 CRL-----
