Certificate Revocation List (CRL):
        Version 1 (0x0)
    Signature Algorithm: sha256WithRSAEncryption
        Issuer: /C=US/ST=California/L=Santa Clara/O=pkg5/CN=ta5/emailAddress=ta5
        Last Update: Nov 24 01:22:44 2021 GMT
        Next Update: Aug 20 01:22:44 2024 GMT
Revoked Certificates:
    Serial Number: 07
        Revocation Date: Nov 24 01:22:41 2021 GMT
    Serial Number: 24
        Revocation Date: Nov 24 01:22:43 2021 GMT
    Serial Number: 28
        Revocation Date: Nov 24 01:22:43 2021 GMT
    Serial Number: 29
        Revocation Date: Nov 24 01:22:44 2021 GMT
    Signature Algorithm: sha256WithRSAEncryption
         a6:57:3f:e2:f6:e8:3c:ba:85:01:60:31:88:ea:47:59:b4:7d:
         56:47:88:ee:74:b1:53:48:1e:ea:38:4d:a8:71:e2:ce:7d:cd:
         04:52:ca:d7:77:b1:f4:53:4b:48:24:e9:74:c4:87:b1:3c:1b:
         6d:16:47:54:47:e9:b9:31:eb:7e:49:ea:76:74:6d:b0:8e:b0:
         05:0d:a5:73:99:5e:63:db:5c:c4:52:5d:68:fe:02:f9:ea:c4:
         73:ed:13:66:10:39:44:d1:bf:cd:73:1e:7e:04:af:69:bd:5c:
         1c:95:0b:d9:9c:d0:54:0c:44:80:72:8f:a6:be:d1:57:81:fc:
         0b:74:a7:bd:33:4e:bf:77:8a:b5:30:ef:dd:cb:92:4c:61:30:
         57:bd:47:0d:e4:09:6e:5d:49:77:69:98:80:8d:4a:78:27:57:
         61:ec:08:99:6e:ca:bd:72:7c:a1:d3:16:d3:11:76:47:86:85:
         07:d5:0b:c5:3d:11:52:8c:85:31:09:c2:82:a4:3f:a0:dc:63:
         fe:56:31:d3:d2:3b:39:4f:31:32:a4:a2:2f:fc:9f:5a:22:10:
         90:1b:22:36:d9:0d:aa:44:14:e9:cd:db:90:cc:fd:3b:f7:c6:
         54:87:50:aa:27:0e:23:bf:e9:02:2c:2d:be:cf:9d:0c:44:f1:
         27:e5:03:99
-----BEGIN X509 CRL-----
MIICATCB6jANBgkqhkiG9w0BAQsFADBpMQswCQYDVQQGEwJVUzETMBEGA1UECAwK
Q2FsaWZvcm5pYTEUMBIGA1UEBwwLU2FudGEgQ2xhcmExDTALBgNVBAoMBHBrZzUx
DDAKBgNVBAMMA3RhNTESMBAGCSqGSIb3DQEJARYDdGE1Fw0yMTExMjQwMTIyNDRa
Fw0yNDA4MjAwMTIyNDRaMFAwEgIBBxcNMjExMTI0MDEyMjQxWjASAgEkFw0yMTEx
MjQwMTIyNDNaMBICASgXDTIxMTEyNDAxMjI0M1owEgIBKRcNMjExMTI0MDEyMjQ0
WjANBgkqhkiG9w0BAQsFAAOCAQEAplc/4vboPLqFAWAxiOpHWbR9VkeI7nSxU0ge
6jhNqHHizn3NBFLK13ex9FNLSCTpdMSHsTwbbRZHVEfpuTHrfknqdnRtsI6wBQ2l
c5leY9tcxFJdaP4C+erEc+0TZhA5RNG/zXMefgSvab1cHJUL2ZzQVAxEgHKPpr7R
V4H8C3SnvTNOv3eKtTDv3cuSTGEwV71HDeQJbl1Jd2mYgI1KeCdXYewImW7KvXJ8
odMW0xF2R4aFB9ULxT0RUoyFMQnCgqQ/oNxj/lYx09I7OU8xMqSiL/yfWiIQkBsi
NtkNqkQU6c3bkMz9O/fGVIdQqicOI7/pAiwtvs+dDETxJ+UDmQ==
-----END X509 CRL-----
