Certificate Revocation List (CRL):
        Version 1 (0x0)
    Signature Algorithm: sha256WithRSAEncryption
        Issuer: /C=US/ST=California/L=Santa Clara/O=pkg5/CN=ta5/emailAddress=ta5
        Last Update: Nov 11 12:38:34 2017 GMT
        Next Update: Aug  7 12:38:34 2020 GMT
Revoked Certificates:
    Serial Number: 07
        Revocation Date: Nov 11 12:38:30 2017 GMT
    Serial Number: 23
        Revocation Date: Nov 11 12:38:33 2017 GMT
    Serial Number: 27
        Revocation Date: Nov 11 12:38:33 2017 GMT
    Serial Number: 28
        Revocation Date: Nov 11 12:38:34 2017 GMT
    Signature Algorithm: sha256WithRSAEncryption
         28:8b:24:c3:e9:05:74:85:1a:5e:52:63:49:72:07:b8:f4:3a:
         38:04:e1:cc:23:31:07:97:89:1c:a6:d1:09:25:38:cb:5b:ee:
         ec:7a:b5:82:ca:ee:a7:8f:08:dc:0c:bc:93:18:ee:29:fb:56:
         38:60:4e:68:39:a7:74:73:66:5c:de:9f:28:a1:79:62:28:c7:
         69:f0:61:14:8c:3b:16:bf:4e:20:04:84:8d:9e:81:87:a4:15:
         e7:5e:42:79:5b:92:7e:75:34:d6:96:dc:06:5c:05:9a:0d:43:
         47:b6:a3:ea:9b:9a:14:d9:4f:ae:99:ba:7d:af:78:61:78:25:
         ff:be:be:a9:55:dc:58:c4:d8:09:5e:be:f7:9e:ec:fa:a8:85:
         5e:ef:cc:6c:66:d3:8e:5c:9d:0a:60:08:e4:be:3f:f5:41:f4:
         ff:29:0e:72:fc:74:d6:f5:af:b0:0a:91:69:2a:59:ab:b8:ab:
         fa:cc:c9:72:15:df:68:45:d0:eb:14:a5:7a:01:3f:aa:b6:19:
         21:93:3b:2e:02:1e:09:bd:88:13:49:19:92:e0:a1:7d:29:6d:
         e4:37:dc:37:0b:03:89:d1:68:05:2d:ef:95:2f:9a:6d:02:05:
         b7:27:00:b7:35:2a:2e:c0:23:f7:5d:16:41:a3:4b:d8:88:59:
         9b:d2:42:14
-----BEGIN X509 CRL-----
MIICATCB6jANBgkqhkiG9w0BAQsFADBpMQswCQYDVQQGEwJVUzETMBEGA1UECAwK
Q2FsaWZvcm5pYTEUMBIGA1UEBwwLU2FudGEgQ2xhcmExDTALBgNVBAoMBHBrZzUx
DDAKBgNVBAMMA3RhNTESMBAGCSqGSIb3DQEJARYDdGE1Fw0xNzExMTExMjM4MzRa
Fw0yMDA4MDcxMjM4MzRaMFAwEgIBBxcNMTcxMTExMTIzODMwWjASAgEjFw0xNzEx
MTExMjM4MzNaMBICAScXDTE3MTExMTEyMzgzM1owEgIBKBcNMTcxMTExMTIzODM0
WjANBgkqhkiG9w0BAQsFAAOCAQEAKIskw+kFdIUaXlJjSXIHuPQ6OAThzCMxB5eJ
HKbRCSU4y1vu7Hq1gsrup48I3Ay8kxjuKftWOGBOaDmndHNmXN6fKKF5YijHafBh
FIw7Fr9OIASEjZ6Bh6QV515CeVuSfnU01pbcBlwFmg1DR7aj6puaFNlPrpm6fa94
YXgl/76+qVXcWMTYCV6+957s+qiFXu/MbGbTjlydCmAI5L4/9UH0/ykOcvx01vWv
sAqRaSpZq7ir+szJchXfaEXQ6xSlegE/qrYZIZM7LgIeCb2IE0kZkuChfSlt5Dfc
NwsDidFoBS3vlS+abQIFtycAtzUqLsAj910WQaNL2IhZm9JCFA==
-----END X509 CRL-----
